                             //
                             // Headers
                             // ram:00400000-ram:004003ff
                             //
             assume DF = 0x0  (Default)
                             IMAGE_DOS_HEADER_00400000                       XREF[1]:     00400114(*)
        00400000 4d 5a 90        IMAGE_DO
                 00 03 00
                 00 00 04
           00400000 4d 5a           char[2]   "MZ"                    e_magic                           XREF[1]:     00400114(*)
              00400000 [0]            'M', 'Z'
           00400002 90 00           dw        90h                     e_cblp        Bytes of last page
           00400004 03 00           dw        3h                      e_cp          Pages in file
           00400006 00 00           dw        0h                      e_crlc        Relocations
           00400008 04 00           dw        4h                      e_cparhdr     Size of header in
           0040000a 00 00           dw        0h                      e_minalloc    Minimum extra para
           0040000c ff ff           dw        FFFFh                   e_maxalloc    Maximum extra para
           0040000e 00 00           dw        0h                      e_ss          Initial (relative)
           00400010 b8 00           dw        B8h                     e_sp          Initial SP value
           00400012 00 00           dw        0h                      e_csum        Checksum
           00400014 00 00           dw        0h                      e_ip          Initial IP value
           00400016 00 00           dw        0h                      e_cs          Initial (relative)
           00400018 40 00           dw        40h                     e_lfarlc      File address of re
           0040001a 00 00           dw        0h                      e_ovno        Overlay number
           0040001c 00 00 00 00 00  dw[4]                             e_res[4]      Reserved words
                    00 00 00
           00400024 00 00           dw        0h                      e_oemid       OEM identifier (fo
           00400026 00 00           dw        0h                      e_oeminfo     OEM information; e
           00400028 00 00 00 00 00  dw[10]                            e_res2[10]    Reserved words
                    00 00 00 00 00
                    00 00 00 00 00
           0040003c e0 00 00 00     ddw       E0h                     e_lfanew      File address of ne
           00400040 0e 1f ba 0e 00  db[64]                            e_program     Actual DOS program
                    b4 09 cd 21 b8
                    01 4c cd 21 54
        00400080 2b eb 12        IMAGE_RI
                 91 6f 8a
                 7c c2 6f
        004000d8 00              ??         00h
        004000d9 00              ??         00h
        004000da 00              ??         00h
        004000db 00              ??         00h
        004000dc 00              ??         00h
        004000dd 00              ??         00h
        004000de 00              ??         00h
        004000df 00              ??         00h
        004000e0 50 45 00        IMAGE_NT                                                    = 000022e0
                 00 4c 01                                                                    = 21D4h
                 04 00 09
        004001d8 2e 74 65        IMAGE_SE                                                    .text
                 78 74 00
                 00 00 a6
        00400200 2e 72 64        IMAGE_SE                                                    .rdata
                 61 74 61
                 00 00 7e
        00400228 2e 64 61        IMAGE_SE                                                    .data
                 74 61 00
                 00 00 28
        00400250 2e 72 73        IMAGE_SE                                                    .rsrc
                 72 63 00
                 00 00 7c
        00400278 00              ??         00h
        00400279 00              ??         00h
        0040027a 00              ??         00h
        0040027b 00              ??         00h
        0040027c 00              ??         00h
        0040027d 00              ??         00h
        0040027e 00              ??         00h
        0040027f 00              ??         00h
        00400280 00              ??         00h
        00400281 00              ??         00h
        00400282 00              ??         00h
        00400283 00              ??         00h
        00400284 00              ??         00h
        00400285 00              ??         00h
        00400286 00              ??         00h
        00400287 00              ??         00h
        00400288 00              ??         00h
        00400289 00              ??         00h
        0040028a 00              ??         00h
        0040028b 00              ??         00h
        0040028c 00              ??         00h
        0040028d 00              ??         00h
        0040028e 00              ??         00h
        0040028f 00              ??         00h
        00400290 00              ??         00h
        00400291 00              ??         00h
        00400292 00              ??         00h
        00400293 00              ??         00h
        00400294 00              ??         00h
        00400295 00              ??         00h
        00400296 00              ??         00h
        00400297 00              ??         00h
        00400298 00              ??         00h
        00400299 00              ??         00h
        0040029a 00              ??         00h
        0040029b 00              ??         00h
        0040029c 00              ??         00h
        0040029d 00              ??         00h
        0040029e 00              ??         00h
        0040029f 00              ??         00h
        004002a0 00              ??         00h
        004002a1 00              ??         00h
        004002a2 00              ??         00h
        004002a3 00              ??         00h
        004002a4 00              ??         00h
        004002a5 00              ??         00h
        004002a6 00              ??         00h
        004002a7 00              ??         00h
        004002a8 00              ??         00h
        004002a9 00              ??         00h
        004002aa 00              ??         00h
        004002ab 00              ??         00h
        004002ac 00              ??         00h
        004002ad 00              ??         00h
        004002ae 00              ??         00h
        004002af 00              ??         00h
        004002b0 00              ??         00h
        004002b1 00              ??         00h
        004002b2 00              ??         00h
        004002b3 00              ??         00h
        004002b4 00              ??         00h
        004002b5 00              ??         00h
        004002b6 00              ??         00h
        004002b7 00              ??         00h
        004002b8 00              ??         00h
        004002b9 00              ??         00h
        004002ba 00              ??         00h
        004002bb 00              ??         00h
        004002bc 00              ??         00h
        004002bd 00              ??         00h
        004002be 00              ??         00h
        004002bf 00              ??         00h
        004002c0 00              ??         00h
        004002c1 00              ??         00h
        004002c2 00              ??         00h
        004002c3 00              ??         00h
        004002c4 00              ??         00h
        004002c5 00              ??         00h
        004002c6 00              ??         00h
        004002c7 00              ??         00h
        004002c8 00              ??         00h
        004002c9 00              ??         00h
        004002ca 00              ??         00h
        004002cb 00              ??         00h
        004002cc 00              ??         00h
        004002cd 00              ??         00h
        004002ce 00              ??         00h
        004002cf 00              ??         00h
        004002d0 00              ??         00h
        004002d1 00              ??         00h
        004002d2 00              ??         00h
        004002d3 00              ??         00h
        004002d4 00              ??         00h
        004002d5 00              ??         00h
        004002d6 00              ??         00h
        004002d7 00              ??         00h
        004002d8 00              ??         00h
        004002d9 00              ??         00h
        004002da 00              ??         00h
        004002db 00              ??         00h
        004002dc 00              ??         00h
        004002dd 00              ??         00h
        004002de 00              ??         00h
        004002df 00              ??         00h
        004002e0 00              ??         00h
        004002e1 00              ??         00h
        004002e2 00              ??         00h
        004002e3 00              ??         00h
        004002e4 00              ??         00h
        004002e5 00              ??         00h
        004002e6 00              ??         00h
        004002e7 00              ??         00h
        004002e8 00              ??         00h
        004002e9 00              ??         00h
        004002ea 00              ??         00h
        004002eb 00              ??         00h
        004002ec 00              ??         00h
        004002ed 00              ??         00h
        004002ee 00              ??         00h
        004002ef 00              ??         00h
        004002f0 00              ??         00h
        004002f1 00              ??         00h
        004002f2 00              ??         00h
        004002f3 00              ??         00h
        004002f4 00              ??         00h
        004002f5 00              ??         00h
        004002f6 00              ??         00h
        004002f7 00              ??         00h
        004002f8 00              ??         00h
        004002f9 00              ??         00h
        004002fa 00              ??         00h
        004002fb 00              ??         00h
        004002fc 00              ??         00h
        004002fd 00              ??         00h
        004002fe 00              ??         00h
        004002ff 00              ??         00h
        00400300 00              ??         00h
        00400301 00              ??         00h
        00400302 00              ??         00h
        00400303 00              ??         00h
        00400304 00              ??         00h
        00400305 00              ??         00h
        00400306 00              ??         00h
        00400307 00              ??         00h
        00400308 00              ??         00h
        00400309 00              ??         00h
        0040030a 00              ??         00h
        0040030b 00              ??         00h
        0040030c 00              ??         00h
        0040030d 00              ??         00h
        0040030e 00              ??         00h
        0040030f 00              ??         00h
        00400310 00              ??         00h
        00400311 00              ??         00h
        00400312 00              ??         00h
        00400313 00              ??         00h
        00400314 00              ??         00h
        00400315 00              ??         00h
        00400316 00              ??         00h
        00400317 00              ??         00h
        00400318 00              ??         00h
        00400319 00              ??         00h
        0040031a 00              ??         00h
        0040031b 00              ??         00h
        0040031c 00              ??         00h
        0040031d 00              ??         00h
        0040031e 00              ??         00h
        0040031f 00              ??         00h
        00400320 00              ??         00h
        00400321 00              ??         00h
        00400322 00              ??         00h
        00400323 00              ??         00h
        00400324 00              ??         00h
        00400325 00              ??         00h
        00400326 00              ??         00h
        00400327 00              ??         00h
        00400328 00              ??         00h
        00400329 00              ??         00h
        0040032a 00              ??         00h
        0040032b 00              ??         00h
        0040032c 00              ??         00h
        0040032d 00              ??         00h
        0040032e 00              ??         00h
        0040032f 00              ??         00h
        00400330 00              ??         00h
        00400331 00              ??         00h
        00400332 00              ??         00h
        00400333 00              ??         00h
        00400334 00              ??         00h
        00400335 00              ??         00h
        00400336 00              ??         00h
        00400337 00              ??         00h
        00400338 00              ??         00h
        00400339 00              ??         00h
        0040033a 00              ??         00h
        0040033b 00              ??         00h
        0040033c 00              ??         00h
        0040033d 00              ??         00h
        0040033e 00              ??         00h
        0040033f 00              ??         00h
        00400340 00              ??         00h
        00400341 00              ??         00h
        00400342 00              ??         00h
        00400343 00              ??         00h
        00400344 00              ??         00h
        00400345 00              ??         00h
        00400346 00              ??         00h
        00400347 00              ??         00h
        00400348 00              ??         00h
        00400349 00              ??         00h
        0040034a 00              ??         00h
        0040034b 00              ??         00h
        0040034c 00              ??         00h
        0040034d 00              ??         00h
        0040034e 00              ??         00h
        0040034f 00              ??         00h
        00400350 00              ??         00h
        00400351 00              ??         00h
        00400352 00              ??         00h
        00400353 00              ??         00h
        00400354 00              ??         00h
        00400355 00              ??         00h
        00400356 00              ??         00h
        00400357 00              ??         00h
        00400358 00              ??         00h
        00400359 00              ??         00h
        0040035a 00              ??         00h
        0040035b 00              ??         00h
        0040035c 00              ??         00h
        0040035d 00              ??         00h
        0040035e 00              ??         00h
        0040035f 00              ??         00h
        00400360 00              ??         00h
        00400361 00              ??         00h
        00400362 00              ??         00h
        00400363 00              ??         00h
        00400364 00              ??         00h
        00400365 00              ??         00h
        00400366 00              ??         00h
        00400367 00              ??         00h
        00400368 00              ??         00h
        00400369 00              ??         00h
        0040036a 00              ??         00h
        0040036b 00              ??         00h
        0040036c 00              ??         00h
        0040036d 00              ??         00h
        0040036e 00              ??         00h
        0040036f 00              ??         00h
        00400370 00              ??         00h
        00400371 00              ??         00h
        00400372 00              ??         00h
        00400373 00              ??         00h
        00400374 00              ??         00h
        00400375 00              ??         00h
        00400376 00              ??         00h
        00400377 00              ??         00h
        00400378 00              ??         00h
        00400379 00              ??         00h
        0040037a 00              ??         00h
        0040037b 00              ??         00h
        0040037c 00              ??         00h
        0040037d 00              ??         00h
        0040037e 00              ??         00h
        0040037f 00              ??         00h
        00400380 00              ??         00h
        00400381 00              ??         00h
        00400382 00              ??         00h
        00400383 00              ??         00h
        00400384 00              ??         00h
        00400385 00              ??         00h
        00400386 00              ??         00h
        00400387 00              ??         00h
        00400388 00              ??         00h
        00400389 00              ??         00h
        0040038a 00              ??         00h
        0040038b 00              ??         00h
        0040038c 00              ??         00h
        0040038d 00              ??         00h
        0040038e 00              ??         00h
        0040038f 00              ??         00h
        00400390 00              ??         00h
        00400391 00              ??         00h
        00400392 00              ??         00h
        00400393 00              ??         00h
        00400394 00              ??         00h
        00400395 00              ??         00h
        00400396 00              ??         00h
        00400397 00              ??         00h
        00400398 00              ??         00h
        00400399 00              ??         00h
        0040039a 00              ??         00h
        0040039b 00              ??         00h
        0040039c 00              ??         00h
        0040039d 00              ??         00h
        0040039e 00              ??         00h
        0040039f 00              ??         00h
        004003a0 00              ??         00h
        004003a1 00              ??         00h
        004003a2 00              ??         00h
        004003a3 00              ??         00h
        004003a4 00              ??         00h
        004003a5 00              ??         00h
        004003a6 00              ??         00h
        004003a7 00              ??         00h
        004003a8 00              ??         00h
        004003a9 00              ??         00h
        004003aa 00              ??         00h
        004003ab 00              ??         00h
        004003ac 00              ??         00h
        004003ad 00              ??         00h
        004003ae 00              ??         00h
        004003af 00              ??         00h
        004003b0 00              ??         00h
        004003b1 00              ??         00h
        004003b2 00              ??         00h
        004003b3 00              ??         00h
        004003b4 00              ??         00h
        004003b5 00              ??         00h
        004003b6 00              ??         00h
        004003b7 00              ??         00h
        004003b8 00              ??         00h
        004003b9 00              ??         00h
        004003ba 00              ??         00h
        004003bb 00              ??         00h
        004003bc 00              ??         00h
        004003bd 00              ??         00h
        004003be 00              ??         00h
        004003bf 00              ??         00h
        004003c0 00              ??         00h
        004003c1 00              ??         00h
        004003c2 00              ??         00h
        004003c3 00              ??         00h
        004003c4 00              ??         00h
        004003c5 00              ??         00h
        004003c6 00              ??         00h
        004003c7 00              ??         00h
        004003c8 00              ??         00h
        004003c9 00              ??         00h
        004003ca 00              ??         00h
        004003cb 00              ??         00h
        004003cc 00              ??         00h
        004003cd 00              ??         00h
        004003ce 00              ??         00h
        004003cf 00              ??         00h
        004003d0 00              ??         00h
        004003d1 00              ??         00h
        004003d2 00              ??         00h
        004003d3 00              ??         00h
        004003d4 00              ??         00h
        004003d5 00              ??         00h
        004003d6 00              ??         00h
        004003d7 00              ??         00h
        004003d8 00              ??         00h
        004003d9 00              ??         00h
        004003da 00              ??         00h
        004003db 00              ??         00h
        004003dc 00              ??         00h
        004003dd 00              ??         00h
        004003de 00              ??         00h
        004003df 00              ??         00h
        004003e0 00              ??         00h
        004003e1 00              ??         00h
        004003e2 00              ??         00h
        004003e3 00              ??         00h
        004003e4 00              ??         00h
        004003e5 00              ??         00h
        004003e6 00              ??         00h
        004003e7 00              ??         00h
        004003e8 00              ??         00h
        004003e9 00              ??         00h
        004003ea 00              ??         00h
        004003eb 00              ??         00h
        004003ec 00              ??         00h
        004003ed 00              ??         00h
        004003ee 00              ??         00h
        004003ef 00              ??         00h
        004003f0 00              ??         00h
        004003f1 00              ??         00h
        004003f2 00              ??         00h
        004003f3 00              ??         00h
        004003f4 00              ??         00h
        004003f5 00              ??         00h
        004003f6 00              ??         00h
        004003f7 00              ??         00h
        004003f8 00              ??         00h
        004003f9 00              ??         00h
        004003fa 00              ??         00h
        004003fb 00              ??         00h
        004003fc 00              ??         00h
        004003fd 00              ??         00h
        004003fe 00              ??         00h
        004003ff 00              ??         00h
                             //
                             // .text
                             // ram:00401000-ram:00401fff
                             //
             assume FS_OFFSET = 0xffdff000
                             LAB_00401000                                    XREF[2]:     0040010c(*), 004001e4(*)
        00401000 8b 44 24 08     MOV        EAX,dword ptr [ESP + 0x8]
        00401004 8b 54 24 04     MOV        EDX,dword ptr [ESP + 0x4]
        00401008 8b c8           MOV        ECX,EAX
        0040100a c1 e9 09        SHR        ECX,0x9
        0040100d 83 e1 01        AND        ECX,0x1
        00401010 33 ca           XOR        ECX,EDX
        00401012 74 21           JZ         LAB_00401035
        00401014 8b c8           MOV        ECX,EAX
        00401016 d1 e9           SHR        ECX,0x1
        00401018 33 c8           XOR        ECX,EAX
        0040101a d1 e9           SHR        ECX,0x1
        0040101c 33 c8           XOR        ECX,EAX
        0040101e c1 e9 03        SHR        ECX,0x3
        00401021 33 c8           XOR        ECX,EAX
        00401023 25 ff ff        AND        EAX,0x3ffff
                 03 00
        00401028 c1 e9 0d        SHR        ECX,0xd
        0040102b d1 e0           SHL        EAX,0x1
        0040102d f6 c1 01        TEST       CL,0x1
        00401030 74 03           JZ         LAB_00401035
        00401032 83 f0 01        XOR        EAX,0x1
                             LAB_00401035                                    XREF[2]:     00401012(j), 00401030(j)
        00401035 c3              RET
        00401036 90              ??         90h
        00401037 90              ??         90h
        00401038 90              ??         90h
        00401039 90              ??         90h
        0040103a 90              ??         90h
        0040103b 90              ??         90h
        0040103c 90              ??         90h
        0040103d 90              ??         90h
        0040103e 90              ??         90h
        0040103f 90              ??         90h
        00401040 8b              ??         8Bh
        00401041 44              ??         44h    D
        00401042 24              ??         24h    $
        00401043 08              ??         08h
        00401044 8b              ??         8Bh
        00401045 54              ??         54h    T
        00401046 24              ??         24h    $
        00401047 04              ??         04h
        00401048 8b              ??         8Bh
        00401049 c8              ??         C8h
        0040104a c1              ??         C1h
        0040104b e9              ??         E9h
        0040104c 0b              ??         0Bh
        0040104d 83              ??         83h
        0040104e e1              ??         E1h
        0040104f 01              ??         01h
        00401050 33              ??         33h    3
        00401051 ca              ??         CAh
        00401052 74              ??         74h    t
        00401053 22              ??         22h    "
        00401054 8b              ??         8Bh
        00401055 c8              ??         C8h
        00401056 d1              ??         D1h
        00401057 e9              ??         E9h
        00401058 33              ??         33h    3
        00401059 c8              ??         C8h
        0040105a c1              ??         C1h
        0040105b e9              ??         E9h
        0040105c 04              ??         04h
        0040105d 33              ??         33h    3
        0040105e c8              ??         C8h
        0040105f c1              ??         C1h
        00401060 e9              ??         E9h
        00401061 04              ??         04h
        00401062 33              ??         33h    3
        00401063 c8              ??         C8h
        00401064 25              ??         25h    %
        00401065 ff              ??         FFh
        00401066 ff              ??         FFh
        00401067 1f              ??         1Fh
        00401068 00              ??         00h
        00401069 c1              ??         C1h
        0040106a e9              ??         E9h
        0040106b 0c              ??         0Ch
        0040106c d1              ??         D1h
        0040106d e0              ??         E0h
        0040106e f6              ??         F6h
        0040106f c1              ??         C1h
        00401070 01              ??         01h
        00401071 74              ??         74h    t
        00401072 03              ??         03h
        00401073 83              ??         83h
        00401074 f0              ??         F0h
        00401075 01              ??         01h
        00401076 c3              ??         C3h
        00401077 90              ??         90h
        00401078 90              ??         90h
        00401079 90              ??         90h
        0040107a 90              ??         90h
        0040107b 90              ??         90h
        0040107c 90              ??         90h
        0040107d 90              ??         90h
        0040107e 90              ??         90h
        0040107f 90              ??         90h
        00401080 8b              ??         8Bh
        00401081 44              ??         44h    D
        00401082 24              ??         24h    $
        00401083 08              ??         08h
        00401084 8b              ??         8Bh
        00401085 54              ??         54h    T
        00401086 24              ??         24h    $
        00401087 04              ??         04h
        00401088 8b              ??         8Bh
        00401089 c8              ??         C8h
        0040108a c1              ??         C1h
        0040108b e9              ??         E9h
        0040108c 0b              ??         0Bh
        0040108d 83              ??         83h
        0040108e e1              ??         E1h
        0040108f 01              ??         01h
        00401090 33              ??         33h    3
        00401091 ca              ??         CAh
        00401092 74              ??         74h    t
        00401093 21              ??         21h    !
        00401094 8b              ??         8Bh
        00401095 c8              ??         C8h
        00401096 d1              ??         D1h
        00401097 e9              ??         E9h
        00401098 33              ??         33h    3
        00401099 c8              ??         C8h
        0040109a c1              ??         C1h
        0040109b e9              ??         E9h
        0040109c 03              ??         03h
        0040109d 33              ??         33h    3
        0040109e c8              ??         C8h
        0040109f d1              ??         D1h
        004010a0 e9              ??         E9h
        004010a1 33              ??         33h    3
        004010a2 c8              ??         C8h
        004010a3 25              ??         25h    %
        004010a4 ff              ??         FFh
        004010a5 ff              ??         FFh
        004010a6 3f              ??         3Fh    ?
        004010a7 00              ??         00h
        004010a8 c1              ??         C1h
        004010a9 e9              ??         E9h
        004010aa 11              ??         11h
        004010ab d1              ??         D1h
        004010ac e0              ??         E0h
        004010ad f6              ??         F6h
        004010ae c1              ??         C1h
        004010af 01              ??         01h
        004010b0 74              ??         74h    t
        004010b1 03              ??         03h
        004010b2 83              ??         83h
        004010b3 f0              ??         F0h
        004010b4 01              ??         01h
        004010b5 c3              ??         C3h
        004010b6 90              ??         90h
        004010b7 90              ??         90h
        004010b8 90              ??         90h
        004010b9 90              ??         90h
        004010ba 90              ??         90h
        004010bb 90              ??         90h
        004010bc 90              ??         90h
        004010bd 90              ??         90h
        004010be 90              ??         90h
        004010bf 90              ??         90h
        004010c0 8b              ??         8Bh
        004010c1 44              ??         44h    D
        004010c2 24              ??         24h    $
        004010c3 08              ??         08h
        004010c4 53              ??         53h    S
        004010c5 56              ??         56h    V
        004010c6 0f              ??         0Fh
        004010c7 be              ??         BEh
        004010c8 10              ??         10h
        004010c9 0f              ??         0Fh
        004010ca be              ??         BEh
        004010cb 48              ??         48h    H
        004010cc 01              ??         01h
        004010cd c1              ??         C1h
        004010ce e2              ??         E2h
        004010cf 08              ??         08h
        004010d0 0b              ??         0Bh
        004010d1 d1              ??         D1h
        004010d2 8a              ??         8Ah
        004010d3 48              ??         48h    H
        004010d4 02              ??         02h
        004010d5 c0              ??         C0h
        004010d6 f9              ??         F9h
        004010d7 05              ??         05h
        004010d8 0f              ??         0Fh
        004010d9 be              ??         BEh
        004010da c9              ??         C9h
        004010db c1              ??         C1h
        004010dc e2              ??         E2h
        004010dd 03              ??         03h
        004010de 0b              ??         0Bh
        004010df d1              ??         D1h
        004010e0 8b              ??         8Bh
        004010e1 4c              ??         4Ch    L
        004010e2 24              ??         24h    $
        004010e3 0c              ??         0Ch
        004010e4 89              ??         89h
        004010e5 11              ??         11h
        004010e6 8a              ??         8Ah
        004010e7 58              ??         58h    X
        004010e8 05              ??         05h
        004010e9 0f              ??         0Fh
        004010ea be              ??         BEh
        004010eb 50              ??         50h    P
        004010ec 02              ??         02h
        004010ed 0f              ??         0Fh
        004010ee be              ??         BEh
        004010ef 70              ??         70h    p
        004010f0 03              ??         03h
        004010f1 c1              ??         C1h
        004010f2 e2              ??         E2h
        004010f3 06              ??         06h
        004010f4 0b              ??         0Bh
        004010f5 d6              ??         D6h
        004010f6 0f              ??         0Fh
        004010f7 be              ??         BEh
        004010f8 70              ??         70h    p
        004010f9 04              ??         04h
        004010fa c1              ??         C1h
        004010fb e2              ??         E2h
        004010fc 08              ??         08h
        004010fd c0              ??         C0h
        004010fe fb              ??         FBh
        004010ff 07              ??         07h
        00401100 0b              ??         0Bh
        00401101 d6              ??         D6h
        00401102 0f              ??         0Fh
        00401103 be              ??         BEh
        00401104 f3              ??         F3h
        00401105 d1              ??         D1h
        00401106 e2              ??         E2h
        00401107 0b              ??         0Bh
        00401108 d6              ??         D6h
        00401109 89              ??         89h
        0040110a 51              ??         51h    Q
        0040110b 04              ??         04h
        0040110c 0f              ??         0Fh
        0040110d be              ??         BEh
        0040110e 50              ??         50h    P
        0040110f 05              ??         05h
        00401110 0f              ??         0Fh
        00401111 be              ??         BEh
        00401112 70              ??         70h    p
        00401113 06              ??         06h
        00401114 0f              ??         0Fh
        00401115 be              ??         BEh
        00401116 40              ??         40h    @
        00401117 07              ??         07h
        00401118 c1              ??         C1h
        00401119 e2              ??         E2h
        0040111a 09              ??         09h
        0040111b 0b              ??         0Bh
        0040111c d6              ??         D6h
        0040111d 5e              ??         5Eh    ^
        0040111e c1              ??         C1h
        0040111f e2              ??         E2h
        00401120 08              ??         08h
        00401121 0b              ??         0Bh
        00401122 d0              ??         D0h
        00401123 5b              ??         5Bh    [
        00401124 89              ??         89h
        00401125 51              ??         51h    Q
        00401126 08              ??         08h
        00401127 c3              ??         C3h
        00401128 90              ??         90h
        00401129 90              ??         90h
        0040112a 90              ??         90h
        0040112b 90              ??         90h
        0040112c 90              ??         90h
        0040112d 90              ??         90h
        0040112e 90              ??         90h
        0040112f 90              ??         90h
        00401130 56              ??         56h    V
        00401131 8b              ??         8Bh
        00401132 74              ??         74h    t
        00401133 24              ??         24h    $
        00401134 08              ??         08h
        00401135 57              ??         57h    W
        00401136 8b              ??         8Bh
        00401137 46              ??         46h    F
        00401138 08              ??         08h
        00401139 8b              ??         8Bh
        0040113a 4e              ??         4Eh    N
        0040113b 04              ??         04h
        0040113c 8b              ??         8Bh
        0040113d 16              ??         16h
        0040113e 50              ??         50h    P
        0040113f 51              ??         51h    Q
        00401140 52              ??         52h    R
        00401141 e8              ??         E8h
        00401142 4a              ??         4Ah    J
        00401143 00              ??         00h
        00401144 00              ??         00h
        00401145 00              ??         00h
        00401146 8b              ??         8Bh
        00401147 f8              ??         F8h
        00401148 8b              ??         8Bh
        00401149 06              ??         06h
        0040114a 50              ??         50h    P
        0040114b 57              ??         57h    W
        0040114c e8              ??         E8h
        0040114d af              ??         AFh
        0040114e fe              ??         FEh
        0040114f ff              ??         FFh
        00401150 ff              ??         FFh
        00401151 8b              ??         8Bh
        00401152 4e              ??         4Eh    N
        00401153 04              ??         04h
        00401154 89              ??         89h
        00401155 06              ??         06h
        00401156 51              ??         51h    Q
        00401157 57              ??         57h    W
        00401158 e8              ??         E8h
        00401159 e3              ??         E3h
        0040115a fe              ??         FEh
        0040115b ff              ??         FFh
        0040115c ff              ??         FFh
        0040115d 8b              ??         8Bh
        0040115e 56              ??         56h    V
        0040115f 08              ??         08h
        00401160 89              ??         89h
        00401161 46              ??         46h    F
        00401162 04              ??         04h
        00401163 52              ??         52h    R
        00401164 57              ??         57h    W
        00401165 e8              ??         E8h
        00401166 16              ??         16h
        00401167 ff              ??         FFh
        00401168 ff              ??         FFh
        00401169 ff              ??         FFh
        0040116a 8b              ??         8Bh
        0040116b 3e              ??         3Eh    >
        0040116c 8b              ??         8Bh
        0040116d c8              ??         C8h
        0040116e 8b              ??         8Bh
        0040116f 46              ??         46h    F
        00401170 04              ??         04h
        00401171 83              ??         83h
        00401172 c4              ??         C4h
        00401173 24              ??         24h    $
        00401174 33              ??         33h    3
        00401175 c7              ??         C7h
        00401176 89              ??         89h
        00401177 4e              ??         4Eh    N
        00401178 08              ??         08h
        00401179 33              ??         33h    3
        0040117a c1              ??         C1h
        0040117b 5f              ??         5Fh    _
        0040117c 83              ??         83h
        0040117d e0              ??         E0h
        0040117e 01              ??         01h
        0040117f 5e              ??         5Eh    ^
        00401180 c3              ??         C3h
        00401181 90              ??         90h
        00401182 90              ??         90h
        00401183 90              ??         90h
        00401184 90              ??         90h
        00401185 90              ??         90h
        00401186 90              ??         90h
        00401187 90              ??         90h
        00401188 90              ??         90h
        00401189 90              ??         90h
        0040118a 90              ??         90h
        0040118b 90              ??         90h
        0040118c 90              ??         90h
        0040118d 90              ??         90h
        0040118e 90              ??         90h
        0040118f 90              ??         90h
        00401190 8b              ??         8Bh
        00401191 44              ??         44h    D
        00401192 24              ??         24h    $
        00401193 04              ??         04h
        00401194 8b              ??         8Bh
        00401195 54              ??         54h    T
        00401196 24              ??         24h    $
        00401197 08              ??         08h
        00401198 24              ??         24h    $
        00401199 80              ??         80h
        0040119a 33              ??         33h    3
        0040119b c9              ??         C9h
        0040119c 3c              ??         3Ch    <
        0040119d 80              ??         80h
        0040119e 0f              ??         0Fh
        0040119f 94              ??         94h
        004011a0 c1              ??         C1h
        004011a1 81              ??         81h
        004011a2 e2              ??         E2h
        004011a3 00              ??         00h
        004011a4 08              ??         08h
        004011a5 00              ??         00h
        004011a6 00              ??         00h
        004011a7 33              ??         33h    3
        004011a8 c0              ??         C0h
        004011a9 81              ??         81h
        004011aa fa              ??         FAh
        004011ab 00              ??         00h
        004011ac 08              ??         08h
        004011ad 00              ??         00h
        004011ae 00              ??         00h
        004011af 8b              ??         8Bh
        004011b0 54              ??         54h    T
        004011b1 24              ??         24h    $
        004011b2 0c              ??         0Ch
        004011b3 0f              ??         0Fh
        004011b4 94              ??         94h
        004011b5 c0              ??         C0h
        004011b6 03              ??         03h
        004011b7 c8              ??         C8h
        004011b8 81              ??         81h
        004011b9 e2              ??         E2h
        004011ba 00              ??         00h
        004011bb 08              ??         08h
        004011bc 00              ??         00h
        004011bd 00              ??         00h
        004011be 33              ??         33h    3
        004011bf c0              ??         C0h
        004011c0 81              ??         81h
        004011c1 fa              ??         FAh
        004011c2 00              ??         00h
        004011c3 08              ??         08h
        004011c4 00              ??         00h
        004011c5 00              ??         00h
        004011c6 0f              ??         0Fh
        004011c7 94              ??         94h
        004011c8 c0              ??         C0h
        004011c9 03              ??         03h
        004011ca c8              ??         C8h
        004011cb 33              ??         33h    3
        004011cc c0              ??         C0h
        004011cd 83              ??         83h
        004011ce f9              ??         F9h
        004011cf 01              ??         01h
        004011d0 0f              ??         0Fh
        004011d1 9e              ??         9Eh
        004011d2 c0              ??         C0h
        004011d3 c3              ??         C3h
        004011d4 90              ??         90h
        004011d5 90              ??         90h
        004011d6 90              ??         90h
        004011d7 90              ??         90h
        004011d8 90              ??         90h
        004011d9 90              ??         90h
        004011da 90              ??         90h
        004011db 90              ??         90h
        004011dc 90              ??         90h
        004011dd 90              ??         90h
        004011de 90              ??         90h
        004011df 90              ??         90h
        004011e0 53              ??         53h    S
        004011e1 55              ??         55h    U
        004011e2 8b              ??         8Bh
        004011e3 6c              ??         6Ch    l
        004011e4 24              ??         24h    $
        004011e5 14              ??         14h
        004011e6 56              ??         56h    V
        004011e7 33              ??         33h    3
        004011e8 f6              ??         F6h
        004011e9 b3              ??         B3h
        004011ea 01              ??         01h
        004011eb 85              ??         85h
        004011ec ed              ??         EDh
        004011ed 7e              ??         7Eh    ~
        004011ee 24              ??         24h    $
        004011ef 57              ??         57h    W
        004011f0 8b              ??         8Bh
        004011f1 7c              ??         7Ch    |
        004011f2 24              ??         24h    $
        004011f3 18              ??         18h
        004011f4 8b              ??         8Bh
        004011f5 44              ??         44h    D
        004011f6 24              ??         24h    $
        004011f7 14              ??         14h
        004011f8 50              ??         50h    P
        004011f9 e8              ??         E8h
        004011fa 32              ??         32h    2
        004011fb ff              ??         FFh
        004011fc ff              ??         FFh
        004011fd ff              ??         FFh
        004011fe 8a              ??         8Ah
        004011ff 14              ??         14h
        00401200 3e              ??         3Eh    >
        00401201 83              ??         83h
        00401202 c4              ??         C4h
        00401203 04              ??         04h
        00401204 d0              ??         D0h
        00401205 e3              ??         E3h
        00401206 0a              ??         0Ah
        00401207 d8              ??         D8h
        00401208 32              ??         32h    2
        00401209 d3              ??         D3h
        0040120a 88              ??         88h
        0040120b 14              ??         14h
        0040120c 3e              ??         3Eh    >
        0040120d 46              ??         46h    F
        0040120e 3b              ??         3Bh    ;
        0040120f f5              ??         F5h
        00401210 7c              ??         7Ch    |
        00401211 e2              ??         E2h
        00401212 5f              ??         5Fh    _
        00401213 5e              ??         5Eh    ^
        00401214 5d              ??         5Dh    ]
        00401215 5b              ??         5Bh    [
        00401216 c3              ??         C3h
        00401217 90              ??         90h
        00401218 90              ??         90h
        00401219 90              ??         90h
        0040121a 90              ??         90h
        0040121b 90              ??         90h
        0040121c 90              ??         90h
        0040121d 90              ??         90h
        0040121e 90              ??         90h
        0040121f 90              ??         90h
        00401220 8b              ??         8Bh
        00401221 44              ??         44h    D
        00401222 24              ??         24h    $
        00401223 0c              ??         0Ch
        00401224 8b              ??         8Bh
        00401225 4c              ??         4Ch    L
        00401226 24              ??         24h    $
        00401227 08              ??         08h
        00401228 8b              ??         8Bh
        00401229 54              ??         54h    T
        0040122a 24              ??         24h    $
        0040122b 04              ??         04h
        0040122c 50              ??         50h    P
        0040122d 51              ??         51h    Q
        0040122e 52              ??         52h    R
        0040122f e8              ??         E8h
        00401230 ac              ??         ACh
        00401231 ff              ??         FFh
        00401232 ff              ??         FFh
        00401233 ff              ??         FFh
        00401234 83              ??         83h
        00401235 c4              ??         C4h
        00401236 0c              ??         0Ch
        00401237 c3              ??         C3h
        00401238 90              ??         90h
        00401239 90              ??         90h
        0040123a 90              ??         90h
        0040123b 90              ??         90h
        0040123c 90              ??         90h
        0040123d 90              ??         90h
        0040123e 90              ??         90h
        0040123f 90              ??         90h
                             **************************************************************
                             *                          FUNCTION                          *
                             **************************************************************
                             undefined4 __stdcall FUN_00401240(HINSTANCE param_1)
                               assume FS_OFFSET = 0xffdff000
             undefined4        EAX:4          <RETURN>
             HINSTANCE         Stack[0x4]:4   param_1                                 XREF[1]:     00401240(R)
                             FUN_00401240                                    XREF[1]:     entry:00401e09(c)
        00401240 8b 44 24 04     MOV        EAX,dword ptr [ESP + param_1]
        00401244 68 ff 00        PUSH       0xff                                             int cchBufferMax for LoadStringA
                 00 00
        00401249 68 a0 30        PUSH       _Str_004030a0                                    LPSTR lpBuffer for LoadStringA
                 40 00
        0040124e 6a 01           PUSH       0x1                                              UINT uID for LoadStringA
        00401250 50              PUSH       EAX                                              HINSTANCE hInstance for LoadStri
        00401251 ff 15 e0        CALL       dword ptr [->USER32.DLL::LoadStringA]            = 000024de
                 20 40 00
        00401257 68 a0 30        PUSH       _Str_004030a0                                    = 00000000
                 40 00
        0040125c e8 5f 00        CALL       FUN_004012c0                                     undefined FUN_004012c0(void)
                 00 00
        00401261 83 c4 04        ADD        ESP,0x4
        00401264 33 c0           XOR        EAX,EAX
        00401266 c2 10 00        RET        0x10
        00401269 90 90 90        align      align(7)
                 90 90 90 90
        00401270 53              ??         53h    S
        00401271 55              ??         55h    U
        00401272 8b              ??         8Bh
        00401273 6c              ??         6Ch    l
        00401274 24              ??         24h    $
        00401275 14              ??         14h
        00401276 56              ??         56h    V
        00401277 85              ??         85h
        00401278 ed              ??         EDh
        00401279 57              ??         57h    W
        0040127a 8b              ??         8Bh
        0040127b f5              ??         F5h
        0040127c 7e              ??         7Eh    ~
        0040127d 20              ??         20h
        0040127e 8b              ??         8Bh
        0040127f 5c              ??         5Ch    \
        00401280 24              ??         24h    $
        00401281 14              ??         14h
        00401282 8b              ??         8Bh
        00401283 7c              ??         7Ch    |
        00401284 24              ??         24h    $
        00401285 18              ??         18h
        00401286 6a              ??         6Ah    j
        00401287 00              ??         00h
        00401288 56              ??         56h    V
        00401289 57              ??         57h    W
        0040128a 53              ??         53h    S
        0040128b e8              ??         E8h
        0040128c dc              ??         DCh
        0040128d 0b              ??         0Bh
        0040128e 00              ??         00h
        0040128f 00              ??         00h
        00401290 85              ??         85h
        00401291 c0              ??         C0h
        00401292 7c              ??         7Ch    |
        00401293 11              ??         11h
        00401294 74              ??         74h    t
        00401295 17              ??         17h
        00401296 2b              ??         2Bh    +
        00401297 f0              ??         F0h
        00401298 03              ??         03h
        00401299 f8              ??         F8h
        0040129a 85              ??         85h
        0040129b f6              ??         F6h
        0040129c 7f              ??         7Fh    
        0040129d e8              ??         E8h
        0040129e 5f              ??         5Fh    _
        0040129f 8b              ??         8Bh
        004012a0 c5              ??         C5h
        004012a1 5e              ??         5Eh    ^
        004012a2 5d              ??         5Dh    ]
        004012a3 5b              ??         5Bh    [
        004012a4 c3              ??         C3h
        004012a5 5f              ??         5Fh    _
        004012a6 5e              ??         5Eh    ^
        004012a7 5d              ??         5Dh    ]
        004012a8 83              ??         83h
        004012a9 c8              ??         C8h
        004012aa ff              ??         FFh
        004012ab 5b              ??         5Bh    [
        004012ac c3              ??         C3h
        004012ad 8b              ??         8Bh
        004012ae c5              ??         C5h
        004012af 5f              ??         5Fh    _
        004012b0 2b              ??         2Bh    +
        004012b1 c6              ??         C6h
        004012b2 5e              ??         5Eh    ^
        004012b3 5d              ??         5Dh    ]
        004012b4 5b              ??         5Bh    [
        004012b5 c3              ??         C3h
        004012b6 90              ??         90h
        004012b7 90              ??         90h
        004012b8 90              ??         90h
        004012b9 90              ??         90h
        004012ba 90              ??         90h
        004012bb 90              ??         90h
        004012bc 90              ??         90h
        004012bd 90              ??         90h
        004012be 90              ??         90h
        004012bf 90              ??         90h
                             **************************************************************
                             *                          FUNCTION                          *
                             **************************************************************
                             undefined __stdcall FUN_004012c0(void)
                               assume FS_OFFSET = 0xffdff000
             undefined         <UNASSIGNED>   <RETURN>
                             FUN_004012c0                                    XREF[1]:     FUN_00401240:0040125c(c)
        004012c0 56              PUSH       ESI
        004012c1 8b 35 08        MOV        ESI,dword ptr [->KERNEL32.DLL::CreateEventA]     = 00002304
                 20 40 00
        004012c7 57              PUSH       EDI
        004012c8 6a 00           PUSH       0x0                                              LPCSTR lpName for CreateEventA
        004012ca 6a 00           PUSH       0x0                                              BOOL bInitialState for CreateEve
        004012cc 6a 01           PUSH       0x1                                              BOOL bManualReset for CreateEventA
        004012ce 6a 00           PUSH       0x0                                              LPSECURITY_ATTRIBUTES lpEventAtt
        004012d0 ff d6           CALL       ESI=>KERNEL32.DLL::CreateEventA
        004012d2 6a 00           PUSH       0x0                                              LPCSTR lpName for CreateEventA
        004012d4 6a 00           PUSH       0x0                                              BOOL bInitialState for CreateEve
        004012d6 6a 01           PUSH       0x1                                              BOOL bManualReset for CreateEventA
        004012d8 6a 00           PUSH       0x0                                              LPSECURITY_ATTRIBUTES lpEventAtt
        004012da a3 d8 30        MOV        [DAT_004030d8],EAX
                 40 00
        004012df ff d6           CALL       ESI=>KERNEL32.DLL::CreateEventA
        004012e1 a3 d4 30        MOV        [DAT_004030d4],EAX
                 40 00
        004012e6 b9 4b 00        MOV        ECX,0x4b
                 00 00
        004012eb 33 c0           XOR        EAX,EAX
        004012ed bf e0 30        MOV        EDI,DAT_004030e0
                 40 00
        004012f2 f3 ab           STOSD.REP  ES:EDI=>DAT_004030e0
        004012f4 8b 44 24 0c     MOV        EAX,dword ptr [ESP + Stack[0x4]]
        004012f8 50              PUSH       EAX
        004012f9 e8 22 00        CALL       FUN_00401320                                     undefined FUN_00401320(void)
                 00 00
        004012fe 8b 0d d8        MOV        ECX,dword ptr [DAT_004030d8]
                 30 40 00
        00401304 83 c4 04        ADD        ESP,0x4
        00401307 6a 00           PUSH       0x0                                              DWORD dwMilliseconds for WaitFor
        00401309 51              PUSH       ECX                                              HANDLE hHandle for WaitForSingle
        0040130a ff 15 04        CALL       dword ptr [->KERNEL32.DLL::WaitForSingleObject]  = 000022ee
                 20 40 00
        00401310 8b 15 d8        MOV        EDX,dword ptr [DAT_004030d8]
                 30 40 00
        00401316 52              PUSH       EDX                                              HANDLE hObject for CloseHandle
        00401317 ff 15 00        CALL       dword ptr [->KERNEL32.DLL::CloseHandle]          = 000022e0
                 20 40 00
        0040131d 5f              POP        EDI
        0040131e 5e              POP        ESI
        0040131f c3              RET
                             **************************************************************
                             *                          FUNCTION                          *
                             **************************************************************
                             undefined __stdcall FUN_00401320(void)
                               assume FS_OFFSET = 0xffdff000
             undefined         <UNASSIGNED>   <RETURN>
             undefined1        Stack[-0x294   local_294                               XREF[2]:     004013ad(*),
                                                                                                   004013ba(*)
             undefined1        Stack[-0x3a8   local_3a8                               XREF[1]:     0040135a(*)
             undefined1        Stack[-0x3bb   local_3bb                               XREF[2]:     00401391(*),
                                                                                                   004013c3(*)
             undefined4        Stack[-0x3dc   local_3dc                               XREF[2]:     004013b4(*),
                                                                                                   004013c7(W)
                             FUN_00401320                                    XREF[1]:     FUN_004012c0:004012f9(c)
        00401320 81 ec dc        SUB        ESP,0x3dc
                 03 00 00
        00401326 53              PUSH       EBX
        00401327 55              PUSH       EBP
        00401328 56              PUSH       ESI
        00401329 57              PUSH       EDI
        0040132a 6a 3a           PUSH       0x3a                                             int _Val for strchr
        0040132c 68 a0 30        PUSH       _Str_004030a0                                    char * _Str for strchr
                 40 00
        00401331 e8 92 09        CALL       MSVCRT.DLL::strchr                               char * strchr(char * _Str, int _
                 00 00
        00401336 8b d0           MOV        EDX,EAX
        00401338 33 db           XOR        EBX,EBX
        0040133a 81 ea a0        SUB        EDX,_Str_004030a0                                = 00000000
                 30 40 00
        00401340 83 c4 08        ADD        ESP,0x8
        00401343 3b d3           CMP        EDX,EBX
        00401345 0f 8e db        JLE        LAB_00401426
                 00 00 00
        0040134b 33 c0           XOR        EAX,EAX
        0040134d 3b d3           CMP        EDX,EBX
        0040134f 7e 19           JLE        LAB_0040136a
        00401351 8b ca           MOV        ECX,EDX
        00401353 be a0 30        MOV        ESI,_Str_004030a0                                = 00000000
                 40 00
        00401358 8b c1           MOV        EAX,ECX
        0040135a 8d 7c 24 44     LEA        EDI=>local_3a8,[ESP + 0x44]
        0040135e c1 e9 02        SHR        ECX,0x2
        00401361 f3 a5           MOVSD.REP  ES:EDI,ESI=>_Str_004030a0                        = 00000000
        00401363 8b c8           MOV        ECX,EAX
        00401365 83 e1 03        AND        ECX,0x3
        00401368 f3 a4           MOVSB.REP  ES:EDI,ESI=>_Str_004030a0                        = 00000000
                             LAB_0040136a                                    XREF[1]:     0040134f(j)
        0040136a 88 5c 04 44     MOV        byte ptr [ESP + EAX*0x1 + 0x44],BL
        0040136e bf a0 30        MOV        EDI,_Str_004030a0                                = 00000000
                 40 00
        00401373 83 c9 ff        OR         ECX,0xffffffff
        00401376 33 c0           XOR        EAX,EAX
        00401378 33 f6           XOR        ESI,ESI
        0040137a f2 ae           SCASB.RE   ES:EDI
        0040137c f7 d1           NOT        ECX
        0040137e 49              DEC        ECX
        0040137f 2b ca           SUB        ECX,EDX
        00401381 85 c9           TEST       ECX,ECX
        00401383 7e 21           JLE        LAB_004013a6
                             LAB_00401385                                    XREF[1]:     004013a4(j)
        00401385 8a 8c 32        MOV        CL,byte ptr [EDX + ESI*0x1 + _Str_004030a0+1]
                 a1 30 40 00
        0040138c bf a0 30        MOV        EDI,_Str_004030a0                                = 00000000
                 40 00
        00401391 88 4c 34 30     MOV        byte ptr [ESP + ESI*0x1 + local_3bb],CL
        00401395 83 c9 ff        OR         ECX,0xffffffff
        00401398 33 c0           XOR        EAX,EAX
        0040139a 46              INC        ESI
        0040139b f2 ae           SCASB.RE   ES:EDI
        0040139d f7 d1           NOT        ECX
        0040139f 49              DEC        ECX
        004013a0 2b ca           SUB        ECX,EDX
        004013a2 3b f1           CMP        ESI,ECX
        004013a4 7c df           JL         LAB_00401385
                             LAB_004013a6                                    XREF[1]:     00401383(j)
        004013a6 b9 41 00        MOV        ECX,0x41
                 00 00
        004013ab 33 c0           XOR        EAX,EAX
        004013ad 8d bc 24        LEA        EDI=>local_294,[ESP + 0x158]
                 58 01 00 00
        004013b4 8d 54 24 10     LEA        EDX=>local_3dc,[ESP + 0x10]
        004013b8 f3 ab           STOSD.REP  ES:EDI
        004013ba 8d 84 24        LEA        EAX=>local_294,[ESP + 0x158]
                 58 01 00 00
        004013c1 52              PUSH       EDX                                              LPDWORD nSize for GetComputerNameA
        004013c2 50              PUSH       EAX                                              LPSTR lpBuffer for GetComputerNa
        004013c3 88 5c 34 38     MOV        byte ptr [ESP + ESI*0x1 + local_3bb],BL
        004013c7 c7 44 24        MOV        dword ptr [ESP + local_3dc],0x104
                 18 04 01
                 00 00
        004013cf ff 15 14        CALL       dword ptr [->KERNEL32.DLL::GetComputerNameA]     = 0000232a
                 20 40 00
        004013d5 8d bc 24        LEA        EDI,[ESP + 0x158]
                 58 01 00 00
        004013dc 83 c9 ff        OR         ECX,0xffffffff
        004013df 33 c0           XOR        EAX,EAX
        004013e1 f2 ae           SCASB.RE   ES:EDI
        004013e3 f7 d1           NOT        ECX
        004013e5 49              DEC        ECX
        004013e6 88 9c 0c        MOV        byte ptr [ESP + ECX*0x1 + 0x158],BL
                 58 01 00 00
        004013ed 8d 8c 24        LEA        ECX,[ESP + 0x25c]
                 5c 02 00 00
        004013f4 51              PUSH       ECX
        004013f5 68 01 01        PUSH       0x101
                 00 00
        004013fa e8 97 0a        CALL       WS2_32.DLL::Ordinal_115                          undefined Ordinal_115()
                 00 00
        004013ff 53              PUSH       EBX
        00401400 6a 01           PUSH       0x1
        00401402 6a 02           PUSH       0x2
        00401404 e8 87 0a        CALL       WS2_32.DLL::Ordinal_23                           undefined Ordinal_23()
                 00 00
        00401409 8b e8           MOV        EBP,EAX
        0040140b 83 fd ff        CMP        EBP,-0x1
        0040140e 75 21           JNZ        LAB_00401431
        00401410 50              PUSH       EAX
        00401411 e8 74 0a        CALL       WS2_32.DLL::Ordinal_3                            undefined Ordinal_3()
                 00 00
        00401416 68 c0 27        PUSH       0x927c0                                          DWORD dwMilliseconds for Sleep
                 09 00
                             LAB_0040141b                                    XREF[1]:     0040147b(j)
        0040141b ff 15 10        CALL       dword ptr [->KERNEL32.DLL::Sleep]                = 00002322
                 20 40 00
                             LAB_00401421                                    XREF[3]:     00401542(j), 0040156c(j),
                                                                                          00401574(j)
        00401421 e8 2a 07        CALL       FUN_00401b50                                     undefined4 FUN_00401b50(void)
                 00 00
                             LAB_00401426                                    XREF[1]:     00401345(j)
        00401426 5f              POP        EDI
        00401427 5e              POP        ESI
        00401428 5d              POP        EBP
        00401429 5b              POP        EBX
        0040142a 81 c4 dc        ADD        ESP,0x3dc
                 03 00 00
        00401430 c3              RET
                             LAB_00401431                                    XREF[1]:     0040140e(j)
        00401431 8d 54 24 30     LEA        EDX,[ESP + 0x30]
        00401435 66 c7 44        MOV        word ptr [ESP + 0x14],0x2
                 24 14 02 00
        0040143c 52              PUSH       EDX                                              char * _Str for atol
        0040143d e8 80 08        CALL       MSVCRT.DLL::atol                                 long atol(char * _Str)
                 00 00
        00401442 83 c4 04        ADD        ESP,0x4
        00401445 50              PUSH       EAX
        00401446 e8 39 0a        CALL       WS2_32.DLL::Ordinal_9                            undefined Ordinal_9()
                 00 00
        0040144b 66 89 44        MOV        word ptr [ESP + 0x16],AX
                 24 16
        00401450 8d 44 24 44     LEA        EAX,[ESP + 0x44]
        00401454 50              PUSH       EAX
        00401455 e8 24 0a        CALL       WS2_32.DLL::Ordinal_11                           undefined Ordinal_11()
                 00 00
        0040145a 8d 4c 24 14     LEA        ECX,[ESP + 0x14]
        0040145e 6a 10           PUSH       0x10
        00401460 51              PUSH       ECX
        00401461 55              PUSH       EBP
        00401462 89 44 24 24     MOV        dword ptr [ESP + 0x24],EAX
        00401466 e8 0d 0a        CALL       WS2_32.DLL::Ordinal_4                            undefined Ordinal_4()
                 00 00
        0040146b 83 f8 ff        CMP        EAX,-0x1
        0040146e 75 0d           JNZ        LAB_0040147d
        00401470 55              PUSH       EBP
        00401471 e8 14 0a        CALL       WS2_32.DLL::Ordinal_3                            undefined Ordinal_3()
                 00 00
        00401476 68 e8 03        PUSH       0x3e8
                 00 00
        0040147b eb 9e           JMP        LAB_0040141b
                             LAB_0040147d                                    XREF[1]:     0040146e(j)
        0040147d b9 3f 00        MOV        ECX,0x3f
                 00 00
        00401482 33 c0           XOR        EAX,EAX
        00401484 8d 7c 24 58     LEA        EDI,[ESP + 0x58]
        00401488 8d 54 24 58     LEA        EDX,[ESP + 0x58]
        0040148c f3 ab           STOSD.REP  ES:EDI
        0040148e 66 ab           STOSW      ES:EDI
        00401490 aa              STOSB      ES:EDI
        00401491 bf 60 30        MOV        EDI,s_*(SY)#_00403060                            = "*(SY)# "
                 40 00
        00401496 83 c9 ff        OR         ECX,0xffffffff
        00401499 33 c0           XOR        EAX,EAX
        0040149b 53              PUSH       EBX
        0040149c f2 ae           SCASB.RE   ES:EDI=>s_*(SY)#_00403060                        = "*(SY)# "
        0040149e f7 d1           NOT        ECX
        004014a0 2b f9           SUB        EDI,ECX
        004014a2 8b c1           MOV        EAX,ECX
        004014a4 8b f7           MOV        ESI,EDI
        004014a6 8b fa           MOV        EDI,EDX
        004014a8 8d 54 24 5c     LEA        EDX,[ESP + 0x5c]
        004014ac c1 e9 02        SHR        ECX,0x2
        004014af f3 a5           MOVSD.REP  ES:EDI,ESI=>s_*(SY)#_00403060                    = "*(SY)# "
        004014b1 8b c8           MOV        ECX,EAX
        004014b3 33 c0           XOR        EAX,EAX
        004014b5 83 e1 03        AND        ECX,0x3
        004014b8 f3 a4           MOVSB.REP  ES:EDI,ESI=>s_*(SY)#_00403060                    = "*(SY)# "
        004014ba 8d bc 24        LEA        EDI,[ESP + 0x15c]
                 5c 01 00 00
        004014c1 83 c9 ff        OR         ECX,0xffffffff
        004014c4 f2 ae           SCASB.RE   ES:EDI
        004014c6 f7 d1           NOT        ECX
        004014c8 2b f9           SUB        EDI,ECX
        004014ca 8b f7           MOV        ESI,EDI
        004014cc 8b fa           MOV        EDI,EDX
        004014ce 8b d1           MOV        EDX,ECX
        004014d0 83 c9 ff        OR         ECX,0xffffffff
        004014d3 f2 ae           SCASB.RE   ES:EDI
        004014d5 8b ca           MOV        ECX,EDX
        004014d7 4f              DEC        EDI
        004014d8 c1 e9 02        SHR        ECX,0x2
        004014db f3 a5           MOVSD.REP  ES:EDI,ESI
        004014dd 8b ca           MOV        ECX,EDX
        004014df 83 e1 03        AND        ECX,0x3
        004014e2 f3 a4           MOVSB.REP  ES:EDI,ESI
        004014e4 8d 7c 24 5c     LEA        EDI,[ESP + 0x5c]
        004014e8 83 c9 ff        OR         ECX,0xffffffff
        004014eb f2 ae           SCASB.RE   ES:EDI
        004014ed f7 d1           NOT        ECX
        004014ef 49              DEC        ECX
        004014f0 8d 7c 24 5c     LEA        EDI,[ESP + 0x5c]
        004014f4 88 5c 0c 5c     MOV        byte ptr [ESP + ECX*0x1 + 0x5c],BL
        004014f8 83 c9 ff        OR         ECX,0xffffffff
        004014fb f2 ae           SCASB.RE   ES:EDI
        004014fd f7 d1           NOT        ECX
        004014ff 49              DEC        ECX
        00401500 8d 44 24 5c     LEA        EAX,[ESP + 0x5c]
        00401504 51              PUSH       ECX
        00401505 50              PUSH       EAX
        00401506 55              PUSH       EBP
        00401507 e8 60 09        CALL       WS2_32.DLL::Ordinal_19                           undefined Ordinal_19()
                 00 00
        0040150c 8b f0           MOV        ESI,EAX
        0040150e 8d 7c 24 58     LEA        EDI,[ESP + 0x58]
        00401512 83 c9 ff        OR         ECX,0xffffffff
        00401515 33 c0           XOR        EAX,EAX
        00401517 f2 ae           SCASB.RE   ES:EDI
        00401519 f7 d1           NOT        ECX
        0040151b 49              DEC        ECX
        0040151c 51              PUSH       ECX
        0040151d 8d 4c 24 28     LEA        ECX,[ESP + 0x28]
        00401521 68 54 30        PUSH       s_send_=_%d_00403054                             char * _Format for sprintf
                 40 00
        00401526 51              PUSH       ECX                                              char * _Dest for sprintf
        00401527 e8 90 07        CALL       MSVCRT.DLL::sprintf                              int sprintf(char * _Dest, char *
                 00 00
        0040152c 56              PUSH       ESI
        0040152d 8d 54 24 34     LEA        EDX,[ESP + 0x34]
        00401531 68 54 30        PUSH       s_send_=_%d_00403054                             char * _Format for sprintf
                 40 00
        00401536 52              PUSH       EDX                                              char * _Dest for sprintf
        00401537 e8 80 07        CALL       MSVCRT.DLL::sprintf                              int sprintf(char * _Dest, char *
                 00 00
        0040153c 83 c4 18        ADD        ESP,0x18
        0040153f 83 fe ff        CMP        ESI,-0x1
        00401542 0f 84 d9        JZ         LAB_00401421
                 fe ff ff
        00401548 b9 3f 00        MOV        ECX,0x3f
                 00 00
        0040154d 33 c0           XOR        EAX,EAX
        0040154f 8d 7c 24 58     LEA        EDI,[ESP + 0x58]
        00401553 53              PUSH       EBX
        00401554 f3 ab           STOSD.REP  ES:EDI
        00401556 66 ab           STOSW      ES:EDI
        00401558 aa              STOSB      ES:EDI
        00401559 8d 44 24 5c     LEA        EAX,[ESP + 0x5c]
        0040155d 68 ff 00        PUSH       0xff
                 00 00
        00401562 50              PUSH       EAX
        00401563 55              PUSH       EBP
        00401564 e8 09 09        CALL       WS2_32.DLL::Ordinal_16                           undefined Ordinal_16()
                 00 00
        00401569 83 f8 ff        CMP        EAX,-0x1
        0040156c 0f 84 af        JZ         LAB_00401421
                 fe ff ff
                             LAB_00401572                                    XREF[1]:     004015ce(j)
        00401572 3b c3           CMP        EAX,EBX
        00401574 0f 8e a7        JLE        LAB_00401421
                 fe ff ff
        0040157a 6a 06           PUSH       0x6                                              size_t _MaxCount for _strnicmp
        0040157c 8d 4c 24 5c     LEA        ECX,[ESP + 0x5c]
        00401580 68 4c 30        PUSH       s_*(SY)#_0040304c                                char * _Str2 for _strnicmp
                 40 00
        00401585 51              PUSH       ECX                                              char * _Str1 for _strnicmp
        00401586 e8 2b 07        CALL       MSVCRT.DLL::_strnicmp                            int _strnicmp(char * _Str1, char
                 00 00
        0040158b 83 c4 0c        ADD        ESP,0xc
        0040158e 85 c0           TEST       EAX,EAX
        00401590 75 5d           JNZ        LAB_004015ef
        00401592 6a 0a           PUSH       0xa                                              size_t _MaxCount for _strnicmp
        00401594 8d 54 24 5c     LEA        EDX,[ESP + 0x5c]
        00401598 68 40 30        PUSH       s_*(SY)#_cmd_00403040                            char * _Str2 for _strnicmp
                 40 00
        0040159d 52              PUSH       EDX                                              char * _Str1 for _strnicmp
        0040159e e8 13 07        CALL       MSVCRT.DLL::_strnicmp                            int _strnicmp(char * _Str1, char
                 00 00
        004015a3 83 c4 0c        ADD        ESP,0xc
        004015a6 85 c0           TEST       EAX,EAX
        004015a8 74 36           JZ         LAB_004015e0
        004015aa b9 3f 00        MOV        ECX,0x3f
                 00 00
        004015af 33 c0           XOR        EAX,EAX
        004015b1 8d 7c 24 58     LEA        EDI,[ESP + 0x58]
        004015b5 53              PUSH       EBX
        004015b6 f3 ab           STOSD.REP  ES:EDI
        004015b8 66 ab           STOSW      ES:EDI
        004015ba aa              STOSB      ES:EDI
        004015bb 8d 44 24 5c     LEA        EAX,[ESP + 0x5c]
        004015bf 68 ff 00        PUSH       0xff
                 00 00
        004015c4 50              PUSH       EAX
        004015c5 55              PUSH       EBP
        004015c6 e8 a7 08        CALL       WS2_32.DLL::Ordinal_16                           undefined Ordinal_16()
                 00 00
        004015cb 83 f8 ff        CMP        EAX,-0x1
        004015ce 75 a2           JNZ        LAB_00401572
        004015d0 e8 7b 05        CALL       FUN_00401b50                                     undefined4 FUN_00401b50(void)
                 00 00
        004015d5 5f              POP        EDI
        004015d6 5e              POP        ESI
        004015d7 5d              POP        EBP
        004015d8 5b              POP        EBX
        004015d9 81 c4 dc        ADD        ESP,0x3dc
                 03 00 00
        004015df c3              RET
                             LAB_004015e0                                    XREF[1]:     004015a8(j)
        004015e0 55              PUSH       EBP                                              void * _ArgList for _beginthread
        004015e1 53              PUSH       EBX                                              uint _StackSize for _beginthread
        004015e2 68 f0 16        PUSH       _StartAddress_004016f0                           _StartAddress * _StartAddress fo
                 40 00
        004015e7 e8 c4 06        CALL       MSVCRT.DLL::_beginthread                         uintptr_t _beginthread(_StartAdd
                 00 00
        004015ec 83 c4 0c        ADD        ESP,0xc
                             LAB_004015ef                                    XREF[1]:     00401590(j)
        004015ef 53              PUSH       EBX                                              DWORD dwExitCode for ExitThread
        004015f0 ff 15 0c        CALL       dword ptr [->KERNEL32.DLL::ExitThread]           = 00002314
                 20 40 00
                             -- Flow Override: CALL_RETURN (COMPUTED_CALL_TERMINATOR)
             assume FS_OFFSET = <UNKNOWN>
        004015f6 90 90 90        align      align(10)
                 90 90 90
                 90 90 90 90
                             **************************************************************
                             *                          FUNCTION                          *
                             **************************************************************
                             PHANDLE __stdcall FUN_00401600(void)
                               assume FS_OFFSET = 0xffdff000
             PHANDLE           EAX:4          <RETURN>
             undefined4        Stack[-0x4]:4  local_4                                 XREF[1]:     00401654(W)
             undefined4        Stack[-0x8]:4  local_8                                 XREF[1]:     0040164c(W)
             undefined4        Stack[-0xc]:4  local_c                                 XREF[3]:     00401628(*),
                                                                                                   00401644(W),
                                                                                                   00401662(*)
             undefined4        Stack[-0x10]:4 local_10                                XREF[5]:     00401610(W),
                                                                                                   0040162e(*),
                                                                                                   00401684(R),
                                                                                                   004016b5(R),
                                                                                                   004016d7(R)
             undefined4        Stack[-0x14]:4 local_14                                XREF[5]:     00401608(W),
                                                                                                   00401669(*),
                                                                                                   00401698(R),
                                                                                                   004016b9(R),
                                                                                                   004016d0(R)
                             FUN_00401600                                    XREF[1]:     _StartAddress_004016f0:004016ff(
        00401600 83 ec 14        SUB        ESP,0x14
        00401603 53              PUSH       EBX
        00401604 56              PUSH       ESI
        00401605 57              PUSH       EDI
        00401606 6a 18           PUSH       0x18                                             size_t _Size for malloc
        00401608 c7 44 24        MOV        dword ptr [ESP + local_14],0x0
                 10 00 00
                 00 00
        00401610 c7 44 24        MOV        dword ptr [ESP + local_10],0x0
                 14 00 00
                 00 00
        00401618 e8 b7 06        CALL       MSVCRT.DLL::malloc                               void * malloc(size_t _Size)
                 00 00
        0040161d 8b 1d 18        MOV        EBX,dword ptr [->KERNEL32.DLL::CreatePipe]       = 0000233e
                 20 40 00
        00401623 83 c4 04        ADD        ESP,0x4
        00401626 8b f0           MOV        ESI,EAX
        00401628 8d 44 24 14     LEA        EAX=>local_c,[ESP + 0x14]
        0040162c 6a 00           PUSH       0x0                                              DWORD nSize for CreatePipe
        0040162e 8d 4c 24 14     LEA        ECX=>local_10,[ESP + 0x14]
        00401632 8d 7e 04        LEA        EDI,[ESI + 0x4]
        00401635 50              PUSH       EAX                                              LPSECURITY_ATTRIBUTES lpPipeAttr
        00401636 51              PUSH       ECX                                              PHANDLE hWritePipe for CreatePipe
        00401637 c7 06 00        MOV        dword ptr [ESI],0x0
                 00 00 00
        0040163d c7 07 00        MOV        dword ptr [EDI],0x0
                 00 00 00
        00401643 56              PUSH       ESI                                              PHANDLE hReadPipe for CreatePipe
        00401644 c7 44 24        MOV        dword ptr [ESP + local_c],0xc
                 24 0c 00
                 00 00
        0040164c c7 44 24        MOV        dword ptr [ESP + local_8],0x0
                 28 00 00
                 00 00
        00401654 c7 44 24        MOV        dword ptr [ESP + local_4],0x1
                 2c 01 00
                 00 00
        0040165c ff d3           CALL       EBX=>KERNEL32.DLL::CreatePipe
        0040165e 85 c0           TEST       EAX,EAX
        00401660 74 13           JZ         LAB_00401675
        00401662 8d 54 24 14     LEA        EDX=>local_c,[ESP + 0x14]
        00401666 6a 00           PUSH       0x0                                              DWORD nSize for CreatePipe
        00401668 52              PUSH       EDX                                              LPSECURITY_ATTRIBUTES lpPipeAttr
        00401669 8d 44 24 14     LEA        EAX=>local_14,[ESP + 0x14]
        0040166d 57              PUSH       EDI                                              PHANDLE hWritePipe for CreatePipe
        0040166e 50              PUSH       EAX                                              PHANDLE hReadPipe for CreatePipe
        0040166f ff d3           CALL       EBX=>KERNEL32.DLL::CreatePipe
        00401671 85 c0           TEST       EAX,EAX
        00401673 75 40           JNZ        LAB_004016b5
                             LAB_00401675                                    XREF[1]:     00401660(j)
        00401675 8b 06           MOV        EAX,dword ptr [ESI]
        00401677 8b 1d 00        MOV        EBX,dword ptr [->KERNEL32.DLL::CloseHandle]      = 000022e0
                 20 40 00
        0040167d 85 c0           TEST       EAX,EAX
        0040167f 74 03           JZ         LAB_00401684
        00401681 50              PUSH       EAX                                              HANDLE hObject for CloseHandle
        00401682 ff d3           CALL       EBX=>KERNEL32.DLL::CloseHandle
                             LAB_00401684                                    XREF[1]:     0040167f(j)
        00401684 8b 44 24 10     MOV        EAX,dword ptr [ESP + local_10]
        00401688 85 c0           TEST       EAX,EAX
        0040168a 74 03           JZ         LAB_0040168f
        0040168c 50              PUSH       EAX                                              HANDLE hObject for CloseHandle
        0040168d ff d3           CALL       EBX=>KERNEL32.DLL::CloseHandle
                             LAB_0040168f                                    XREF[1]:     0040168a(j)
        0040168f 8b 3f           MOV        EDI,dword ptr [EDI]
        00401691 85 ff           TEST       EDI,EDI
        00401693 74 03           JZ         LAB_00401698
        00401695 57              PUSH       EDI                                              HANDLE hObject for CloseHandle
        00401696 ff d3           CALL       EBX=>KERNEL32.DLL::CloseHandle
                             LAB_00401698                                    XREF[1]:     00401693(j)
        00401698 8b 44 24 0c     MOV        EAX,dword ptr [ESP + local_14]
        0040169c 85 c0           TEST       EAX,EAX
        0040169e 74 03           JZ         LAB_004016a3
        004016a0 50              PUSH       EAX                                              HANDLE hObject for CloseHandle
        004016a1 ff d3           CALL       EBX=>KERNEL32.DLL::CloseHandle
                             LAB_004016a3                                    XREF[1]:     0040169e(j)
        004016a3 56              PUSH       ESI                                              void * _Memory for free
        004016a4 e8 25 06        CALL       MSVCRT.DLL::free                                 void free(void * _Memory)
                 00 00
        004016a9 83 c4 04        ADD        ESP,0x4
        004016ac 33 c0           XOR        EAX,EAX
        004016ae 5f              POP        EDI
        004016af 5e              POP        ESI
        004016b0 5b              POP        EBX
        004016b1 83 c4 14        ADD        ESP,0x14
        004016b4 c3              RET
                             LAB_004016b5                                    XREF[1]:     00401673(j)
        004016b5 8b 4c 24 10     MOV        ECX,dword ptr [ESP + local_10]
        004016b9 8b 54 24 0c     MOV        EDX,dword ptr [ESP + local_14]
        004016bd 51              PUSH       ECX
        004016be 52              PUSH       EDX
        004016bf e8 9c 01        CALL       FUN_00401860                                     HANDLE FUN_00401860(HANDLE param
                 00 00
        004016c4 8b 3d 00        MOV        EDI,dword ptr [->KERNEL32.DLL::CloseHandle]      = 000022e0
                 20 40 00
        004016ca 83 c4 08        ADD        ESP,0x8
        004016cd 89 46 08        MOV        dword ptr [ESI + 0x8],EAX
        004016d0 8b 44 24 0c     MOV        EAX,dword ptr [ESP + local_14]
        004016d4 50              PUSH       EAX                                              HANDLE hObject for CloseHandle
        004016d5 ff d7           CALL       EDI=>KERNEL32.DLL::CloseHandle
        004016d7 8b 4c 24 10     MOV        ECX,dword ptr [ESP + local_10]
        004016db 51              PUSH       ECX                                              HANDLE hObject for CloseHandle
        004016dc ff d7           CALL       EDI=>KERNEL32.DLL::CloseHandle
        004016de 8b c6           MOV        EAX,ESI
        004016e0 5f              POP        EDI
        004016e1 5e              POP        ESI
        004016e2 5b              POP        EBX
        004016e3 83 c4 14        ADD        ESP,0x14
        004016e6 c3              RET
        004016e7 90 90 90        align      align(9)
                 90 90 90
                 90 90 90
                             **************************************************************
                             * _StartAddress parameter of _beginthread                    *
                             *                                                            *
                             **************************************************************
                             undefined __cdecl _StartAddress_004016f0(HANDLE param_1)
                               assume FS_OFFSET = 0xffdff000
             undefined         <UNASSIGNED>   <RETURN>
             HANDLE            Stack[0x4]:4   param_1                                 XREF[1]:     00401710(R)
             undefined4        Stack[-0x4]:4  local_4                                 XREF[1]:     004017a3(W)
             undefined4        Stack[-0x8]:4  local_8                                 XREF[1]:     00401797(W)
             undefined4        Stack[-0xc]:4  local_c                                 XREF[2]:     0040178c(W),
                                                                                                   00401793(*)
             undefined4        Stack[-0x10]:4 local_10                                XREF[1]:     00401733(W)
             undefined4        Stack[-0x14]:4 local_14                                XREF[1]:     0040172b(W)
             undefined4        Stack[-0x18]:4 local_18                                XREF[3]:     0040171d(*),
                                                                                                   00401723(W),
                                                                                                   00401759(*)
             undefined1        Stack[-0x1c]:1 local_1c                                XREF[2]:     0040170a(*),
                                                                                                   00401755(*)
                             _StartAddress_004016f0                          XREF[1]:     FUN_00401320:004015e2(*)
        004016f0 83 ec 1c        SUB        ESP,0x1c
        004016f3 56              PUSH       ESI
        004016f4 57              PUSH       EDI
        004016f5 6a 18           PUSH       0x18                                             size_t _Size for malloc
        004016f7 e8 d8 05        CALL       MSVCRT.DLL::malloc                               void * malloc(size_t _Size)
                 00 00
        004016fc 83 c4 04        ADD        ESP,0x4
        004016ff e8 fc fe        CALL       FUN_00401600                                     PHANDLE FUN_00401600(void)
                 ff ff
        00401704 8b 3d 2c        MOV        EDI,dword ptr [->KERNEL32.DLL::CreateThread]     = 000023a2
                 20 40 00
        0040170a 8d 4c 24 08     LEA        ECX=>local_1c,[ESP + 0x8]
        0040170e 8b f0           MOV        ESI,EAX
        00401710 8b 44 24 28     MOV        EAX,dword ptr [ESP + param_1]
        00401714 51              PUSH       ECX                                              LPDWORD lpThreadId for CreateThr
        00401715 6a 00           PUSH       0x0                                              DWORD dwCreationFlags for Create
        00401717 56              PUSH       ESI                                              LPVOID lpParameter for CreateThr
        00401718 68 40 19        PUSH       lpStartAddress_00401940                          LPTHREAD_START_ROUTINE lpStartAd
                 40 00
        0040171d 8d 54 24 1c     LEA        EDX=>local_18,[ESP + 0x1c]
        00401721 6a 00           PUSH       0x0                                              SIZE_T dwStackSize for CreateThr
        00401723 c7 44 24        MOV        dword ptr [ESP + local_18],0xc
                 20 0c 00
                 00 00
        0040172b c7 44 24        MOV        dword ptr [ESP + local_14],0x0
                 24 00 00
                 00 00
        00401733 c7 44 24        MOV        dword ptr [ESP + local_10],0x0
                 28 00 00
                 00 00
        0040173b 52              PUSH       EDX                                              LPSECURITY_ATTRIBUTES lpThreadAt
        0040173c 89 46 0c        MOV        dword ptr [ESI + 0xc],EAX
        0040173f ff d7           CALL       EDI=>KERNEL32.DLL::CreateThread
        00401741 85 c0           TEST       EAX,EAX
        00401743 89 46 10        MOV        dword ptr [ESI + 0x10],EAX
        00401746 75 0d           JNZ        LAB_00401755
        00401748 c7 46 0c        MOV        dword ptr [ESI + 0xc],0xffffffff
                 ff ff ff ff
        0040174f 5f              POP        EDI
        00401750 5e              POP        ESI
        00401751 83 c4 1c        ADD        ESP,0x1c
        00401754 c3              RET
                             LAB_00401755                                    XREF[1]:     00401746(j)
        00401755 8d 44 24 08     LEA        EAX=>local_1c,[ESP + 0x8]
        00401759 8d 4c 24 0c     LEA        ECX=>local_18,[ESP + 0xc]
        0040175d 50              PUSH       EAX                                              LPDWORD lpThreadId for CreateThr
        0040175e 6a 00           PUSH       0x0                                              DWORD dwCreationFlags for Create
        00401760 56              PUSH       ESI                                              LPVOID lpParameter for CreateThr
        00401761 68 70 1a        PUSH       lpStartAddress_00401a70                          LPTHREAD_START_ROUTINE lpStartAd
                 40 00
        00401766 6a 00           PUSH       0x0                                              SIZE_T dwStackSize for CreateThr
        00401768 51              PUSH       ECX                                              LPSECURITY_ATTRIBUTES lpThreadAt
        00401769 ff d7           CALL       EDI=>KERNEL32.DLL::CreateThread
        0040176b 85 c0           TEST       EAX,EAX
        0040176d 89 46 14        MOV        dword ptr [ESI + 0x14],EAX
        00401770 75 15           JNZ        LAB_00401787
        00401772 50              PUSH       EAX                                              DWORD dwExitCode for TerminateTh
        00401773 50              PUSH       EAX                                              HANDLE hThread for TerminateThread
        00401774 c7 46 0c        MOV        dword ptr [ESI + 0xc],0xffffffff
                 ff ff ff ff
        0040177b ff 15 28        CALL       dword ptr [->KERNEL32.DLL::TerminateThread]      = 00002390
                 20 40 00
        00401781 5f              POP        EDI
        00401782 5e              POP        ESI
        00401783 83 c4 1c        ADD        ESP,0x1c
        00401786 c3              RET
                             LAB_00401787                                    XREF[1]:     00401770(j)
        00401787 8b 56 10        MOV        EDX,dword ptr [ESI + 0x10]
        0040178a 6a ff           PUSH       -0x1                                             DWORD dwMilliseconds for WaitFor
        0040178c 89 54 24 1c     MOV        dword ptr [ESP + local_c],EDX
        00401790 8b 46 14        MOV        EAX,dword ptr [ESI + 0x14]
        00401793 8d 54 24 1c     LEA        EDX=>local_c,[ESP + 0x1c]
        00401797 89 44 24 20     MOV        dword ptr [ESP + local_8],EAX
        0040179b 8b 4e 08        MOV        ECX,dword ptr [ESI + 0x8]
        0040179e 6a 00           PUSH       0x0                                              BOOL bWaitAll for WaitForMultipl
        004017a0 52              PUSH       EDX                                              HANDLE * lpHandles for WaitForMu
        004017a1 6a 03           PUSH       0x3                                              DWORD nCount for WaitForMultiple
        004017a3 89 4c 24 30     MOV        dword ptr [ESP + local_4],ECX
        004017a7 ff 15 24        CALL       dword ptr [->KERNEL32.DLL::WaitForMultipleObje   = 00002376
                 20 40 00
        004017ad 83 e8 00        SUB        EAX,0x0
        004017b0 74 32           JZ         LAB_004017e4
        004017b2 48              DEC        EAX
        004017b3 74 1b           JZ         LAB_004017d0
        004017b5 48              DEC        EAX
        004017b6 75 44           JNZ        LAB_004017fc
        004017b8 8b 46 14        MOV        EAX,dword ptr [ESI + 0x14]
        004017bb 8b 3d 28        MOV        EDI,dword ptr [->KERNEL32.DLL::TerminateThread]  = 00002390
                 20 40 00
        004017c1 6a 00           PUSH       0x0                                              DWORD dwExitCode for TerminateTh
        004017c3 50              PUSH       EAX                                              HANDLE hThread for TerminateThread
        004017c4 ff d7           CALL       EDI=>KERNEL32.DLL::TerminateThread
        004017c6 8b 4e 10        MOV        ECX,dword ptr [ESI + 0x10]
        004017c9 6a 00           PUSH       0x0                                              DWORD dwExitCode for TerminateTh
        004017cb 51              PUSH       ECX                                              HANDLE hThread for TerminateThread
        004017cc ff d7           CALL       EDI=>KERNEL32.DLL::TerminateThread
        004017ce eb 2c           JMP        LAB_004017fc
                             LAB_004017d0                                    XREF[1]:     004017b3(j)
        004017d0 8b 56 10        MOV        EDX,dword ptr [ESI + 0x10]
        004017d3 6a 00           PUSH       0x0                                              DWORD dwExitCode for TerminateTh
        004017d5 52              PUSH       EDX                                              HANDLE hThread for TerminateThread
        004017d6 ff 15 28        CALL       dword ptr [->KERNEL32.DLL::TerminateThread]      = 00002390
                 20 40 00
        004017dc 8b 46 08        MOV        EAX,dword ptr [ESI + 0x8]
        004017df 6a 01           PUSH       0x1
        004017e1 50              PUSH       EAX
        004017e2 eb 12           JMP        LAB_004017f6
                             LAB_004017e4                                    XREF[1]:     004017b0(j)
        004017e4 8b 4e 14        MOV        ECX,dword ptr [ESI + 0x14]
        004017e7 6a 00           PUSH       0x0                                              DWORD dwExitCode for TerminateTh
        004017e9 51              PUSH       ECX                                              HANDLE hThread for TerminateThread
        004017ea ff 15 28        CALL       dword ptr [->KERNEL32.DLL::TerminateThread]      = 00002390
                 20 40 00
        004017f0 8b 56 08        MOV        EDX,dword ptr [ESI + 0x8]
        004017f3 6a 01           PUSH       0x1                                              UINT uExitCode for TerminateProc
        004017f5 52              PUSH       EDX                                              HANDLE hProcess for TerminatePro
                             LAB_004017f6                                    XREF[1]:     004017e2(j)
        004017f6 ff 15 20        CALL       dword ptr [->KERNEL32.DLL::TerminateProcess]     = 00002362
                 20 40 00
                             LAB_004017fc                                    XREF[2]:     004017b6(j), 004017ce(j)
        004017fc 8b 46 0c        MOV        EAX,dword ptr [ESI + 0xc]
        004017ff 53              PUSH       EBX
        00401800 50              PUSH       EAX
        00401801 e8 84 06        CALL       WS2_32.DLL::Ordinal_3                            undefined Ordinal_3()
                 00 00
        00401806 8b 0e           MOV        ECX,dword ptr [ESI]
        00401808 8b 1d 1c        MOV        EBX,dword ptr [->KERNEL32.DLL::DisconnectNamed   = 0000234c
                 20 40 00
        0040180e 51              PUSH       ECX                                              HANDLE hNamedPipe for Disconnect
        0040180f ff d3           CALL       EBX=>KERNEL32.DLL::DisconnectNamedPipe
        00401811 8b 16           MOV        EDX,dword ptr [ESI]
        00401813 8b 3d 00        MOV        EDI,dword ptr [->KERNEL32.DLL::CloseHandle]      = 000022e0
                 20 40 00
        00401819 52              PUSH       EDX                                              HANDLE hObject for CloseHandle
        0040181a ff d7           CALL       EDI=>KERNEL32.DLL::CloseHandle
        0040181c 8b 46 04        MOV        EAX,dword ptr [ESI + 0x4]
        0040181f 50              PUSH       EAX                                              HANDLE hNamedPipe for Disconnect
        00401820 ff d3           CALL       EBX=>KERNEL32.DLL::DisconnectNamedPipe
        00401822 8b 4e 04        MOV        ECX,dword ptr [ESI + 0x4]
        00401825 51              PUSH       ECX                                              HANDLE hObject for CloseHandle
        00401826 ff d7           CALL       EDI=>KERNEL32.DLL::CloseHandle
        00401828 8b 56 10        MOV        EDX,dword ptr [ESI + 0x10]
        0040182b 52              PUSH       EDX                                              HANDLE hObject for CloseHandle
        0040182c ff d7           CALL       EDI=>KERNEL32.DLL::CloseHandle
        0040182e 8b 46 14        MOV        EAX,dword ptr [ESI + 0x14]
        00401831 50              PUSH       EAX                                              HANDLE hObject for CloseHandle
        00401832 ff d7           CALL       EDI=>KERNEL32.DLL::CloseHandle
        00401834 8b 4e 08        MOV        ECX,dword ptr [ESI + 0x8]
        00401837 51              PUSH       ECX                                              HANDLE hObject for CloseHandle
        00401838 ff d7           CALL       EDI=>KERNEL32.DLL::CloseHandle
        0040183a 85 f6           TEST       ESI,ESI
        0040183c 5b              POP        EBX
        0040183d 74 09           JZ         LAB_00401848
        0040183f 56              PUSH       ESI                                              void * _Memory for free
        00401840 e8 89 04        CALL       MSVCRT.DLL::free                                 void free(void * _Memory)
                 00 00
        00401845 83 c4 04        ADD        ESP,0x4
                             LAB_00401848                                    XREF[1]:     0040183d(j)
        00401848 e8 03 03        CALL       FUN_00401b50                                     undefined4 FUN_00401b50(void)
                 00 00
        0040184d 5f              POP        EDI
        0040184e 5e              POP        ESI
        0040184f 83 c4 1c        ADD        ESP,0x1c
        00401852 c3              RET
        00401853 90 90 90        align      align(13)
                 90 90 90
                 90 90 90
                             **************************************************************
                             *                          FUNCTION                          *
                             **************************************************************
                             HANDLE __cdecl FUN_00401860(HANDLE param_1, HANDLE param
                               assume FS_OFFSET = 0xffdff000
             HANDLE            EAX:4          <RETURN>
             HANDLE            Stack[0x4]:4   param_1                                 XREF[1]:     00401863(R)
             HANDLE            Stack[0x8]:4   param_2                                 XREF[1]:     00401869(R)
             undefined4        Stack[-0x4]:4  local_4                                 XREF[2]:     00401879(*),
                                                                                                   004018c2(W)
             undefined4        Stack[-0x8]:4  local_8                                 XREF[1]:     004018be(W)
             undefined4        Stack[-0xc]:4  local_c                                 XREF[1]:     004018ba(W)
             undefined4        Stack[-0x10]:4 local_10                                XREF[1]:     004018a9(W)
             undefined2        Stack[-0x12]:2 local_12                                XREF[1]:     004018ad(W)
             undefined2        Stack[-0x14]:2 local_14                                XREF[1]:     004018a4(W)
             undefined4        Stack[-0x18]:4 local_18                                XREF[1]:     004018b2(W)
             undefined4        Stack[-0x28]:4 local_28                                XREF[1]:     00401894(W)
             undefined4        Stack[-0x2c]:4 local_2c                                XREF[1]:     00401898(W)
             undefined4        Stack[-0x30]:4 local_30                                XREF[1]:     0040189c(W)
             undefined4        Stack[-0x34]:4 local_34                                XREF[1]:     004018a0(W)
             undefined4        Stack[-0x38]:4 local_38                                XREF[1]:     0040188c(W)
             undefined4        Stack[-0x3c]:4 local_3c                                XREF[1]:     00401890(W)
             undefined4        Stack[-0x40]:4 local_40                                XREF[1]:     00401888(W)
             undefined4        Stack[-0x44]:4 local_44                                XREF[1]:     00401880(W)
                             FUN_00401860                                    XREF[1]:     FUN_00401600:004016bf(c)
        00401860 83 ec 60        SUB        ESP,0x60
        00401863 8b 44 24 64     MOV        EAX,dword ptr [ESP + param_1]
        00401867 53              PUSH       EBX
        00401868 56              PUSH       ESI
        00401869 8b 74 24 70     MOV        ESI,dword ptr [ESP + param_2]
        0040186d 33 db           XOR        EBX,EBX
        0040186f 57              PUSH       EDI
        00401870 8b 3d 38        MOV        EDI,dword ptr [->KERNEL32.DLL::GetCurrentProce   = 000023d6
                 20 40 00
        00401876 53              PUSH       EBX                                              DWORD dwOptions for DuplicateHan
        00401877 6a 01           PUSH       0x1                                              BOOL bInheritHandle for Duplicat
        00401879 8d 4c 24 70     LEA        ECX=>local_4,[ESP + 0x70]
        0040187d 6a 02           PUSH       0x2                                              DWORD dwDesiredAccess for Duplic
        0040187f 51              PUSH       ECX                                              LPHANDLE lpTargetHandle for Dupl
        00401880 c7 44 24        MOV        dword ptr [ESP + local_44],0x44
                 38 44 00
                 00 00
        00401888 89 5c 24 3c     MOV        dword ptr [ESP + local_40],EBX
        0040188c 89 5c 24 44     MOV        dword ptr [ESP + local_38],EBX
        00401890 89 5c 24 40     MOV        dword ptr [ESP + local_3c],EBX
        00401894 89 5c 24 54     MOV        dword ptr [ESP + local_28],EBX
        00401898 89 5c 24 50     MOV        dword ptr [ESP + local_2c],EBX
        0040189c 89 5c 24 4c     MOV        dword ptr [ESP + local_30],EBX
        004018a0 89 5c 24 48     MOV        dword ptr [ESP + local_34],EBX
        004018a4 66 89 5c        MOV        word ptr [ESP + local_14],BX
                 24 68
        004018a9 89 5c 24 6c     MOV        dword ptr [ESP + local_10],EBX
        004018ad 66 89 5c        MOV        word ptr [ESP + local_12],BX
                 24 6a
        004018b2 c7 44 24        MOV        dword ptr [ESP + local_18],0x101
                 64 01 01
                 00 00
        004018ba 89 44 24 70     MOV        dword ptr [ESP + local_c],EAX
        004018be 89 74 24 74     MOV        dword ptr [ESP + local_8],ESI
        004018c2 89 74 24 78     MOV        dword ptr [ESP + local_4],ESI
        004018c6 ff d7           CALL       EDI=>KERNEL32.DLL::GetCurrentProcess
        004018c8 50              PUSH       EAX                                              HANDLE hTargetProcessHandle for
        004018c9 56              PUSH       ESI                                              HANDLE hSourceHandle for Duplica
        004018ca ff d7           CALL       EDI=>KERNEL32.DLL::GetCurrentProcess
        004018cc 50              PUSH       EAX                                              HANDLE hSourceProcessHandle for
        004018cd ff 15 34        CALL       dword ptr [->KERNEL32.DLL::DuplicateHandle]      = 000023c4
                 20 40 00
        004018d3 bf 68 30        MOV        EDI,s_cmd.exe_00403068                           = "cmd.exe"
                 40 00
        004018d8 83 c9 ff        OR         ECX,0xffffffff
        004018db 33 c0           XOR        EAX,EAX
        004018dd 8d 54 24 0c     LEA        EDX,[ESP + 0xc]
        004018e1 f2 ae           SCASB.RE   ES:EDI
        004018e3 f7 d1           NOT        ECX
        004018e5 2b f9           SUB        EDI,ECX
        004018e7 8b c1           MOV        EAX,ECX
        004018e9 8b f7           MOV        ESI,EDI
        004018eb 8b fa           MOV        EDI,EDX
        004018ed 8d 54 24 28     LEA        EDX,[ESP + 0x28]
        004018f1 c1 e9 02        SHR        ECX,0x2
        004018f4 f3 a5           MOVSD.REP  ES:EDI,ESI
        004018f6 8b c8           MOV        ECX,EAX
        004018f8 8d 44 24 0c     LEA        EAX,[ESP + 0xc]
        004018fc 83 e1 03        AND        ECX,0x3
        004018ff f3 a4           MOVSB.REP  ES:EDI,ESI
        00401901 8d 4c 24 18     LEA        ECX,[ESP + 0x18]
        00401905 51              PUSH       ECX                                              LPPROCESS_INFORMATION lpProcessI
        00401906 52              PUSH       EDX                                              LPSTARTUPINFOA lpStartupInfo for
        00401907 53              PUSH       EBX                                              LPCSTR lpCurrentDirectory for Cr
        00401908 53              PUSH       EBX                                              LPVOID lpEnvironment for CreateP
        00401909 53              PUSH       EBX                                              DWORD dwCreationFlags for Create
        0040190a 6a 01           PUSH       0x1                                              BOOL bInheritHandles for CreateP
        0040190c 53              PUSH       EBX                                              LPSECURITY_ATTRIBUTES lpThreadAt
        0040190d 53              PUSH       EBX                                              LPSECURITY_ATTRIBUTES lpProcessA
        0040190e 50              PUSH       EAX                                              LPSTR lpCommandLine for CreatePr
        0040190f 53              PUSH       EBX                                              LPCSTR lpApplicationName for Cre
        00401910 ff 15 30        CALL       dword ptr [->KERNEL32.DLL::CreateProcessA]       = 000023b2
                 20 40 00
        00401916 85 c0           TEST       EAX,EAX
        00401918 74 18           JZ         LAB_00401932
        0040191a 8b 4c 24 1c     MOV        ECX,dword ptr [ESP + 0x1c]
        0040191e 8b 74 24 18     MOV        ESI,dword ptr [ESP + 0x18]
        00401922 51              PUSH       ECX                                              HANDLE hObject for CloseHandle
        00401923 ff 15 00        CALL       dword ptr [->KERNEL32.DLL::CloseHandle]          = 000022e0
                 20 40 00
        00401929 8b c6           MOV        EAX,ESI
        0040192b 5f              POP        EDI
        0040192c 5e              POP        ESI
        0040192d 5b              POP        EBX
        0040192e 83 c4 60        ADD        ESP,0x60
        00401931 c3              RET
                             LAB_00401932                                    XREF[1]:     00401918(j)
        00401932 5f              POP        EDI
        00401933 8b c3           MOV        EAX,EBX
        00401935 5e              POP        ESI
        00401936 5b              POP        EBX
        00401937 83 c4 60        ADD        ESP,0x60
        0040193a c3              RET
        0040193b 90 90 90        align      align(5)
                 90 90
