Process: smartscreen.ex Pid: 2152 Address: 0x20759180000
Vad Tag: VadS Protection: PAGE_EXECUTE_READWRITE
Flags: PrivateMemory: 1, Protection: 6

0x0000020759180000  48 89 54 24 10 48 89 4c 24 08 4c 89 44 24 18 4c   H.T$.H.L$.L.D$.L
0x0000020759180010  89 4c 24 20 48 8b 41 28 48 8b 48 08 48 8b 51 50   .L$.H.A(H.H.H.QP
0x0000020759180020  48 83 e2 f8 48 8b ca 48 b8 60 00 18 59 07 02 00   H...H..H.`..Y...
0x0000020759180030  00 48 2b c8 48 81 f9 70 0f 00 00 76 09 48 c7 c1   .H+.H..p...v.H..

0x0000000059180000 48               DEC EAX
0x0000000059180001 89542410         MOV [ESP+0x10], EDX
0x0000000059180005 48               DEC EAX
0x0000000059180006 894c2408         MOV [ESP+0x8], ECX
0x000000005918000a 4c               DEC ESP
0x000000005918000b 89442418         MOV [ESP+0x18], EAX
0x000000005918000f 4c               DEC ESP
0x0000000059180010 894c2420         MOV [ESP+0x20], ECX
0x0000000059180014 48               DEC EAX
0x0000000059180015 8b4128           MOV EAX, [ECX+0x28]
0x0000000059180018 48               DEC EAX
0x0000000059180019 8b4808           MOV ECX, [EAX+0x8]
0x000000005918001c 48               DEC EAX
0x000000005918001d 8b5150           MOV EDX, [ECX+0x50]
0x0000000059180020 48               DEC EAX
0x0000000059180021 83e2f8           AND EDX, -0x8
0x0000000059180024 48               DEC EAX
0x0000000059180025 8bca             MOV ECX, EDX
0x0000000059180027 48               DEC EAX
0x0000000059180028 b860001859       MOV EAX, 0x59180060
0x000000005918002d 07               POP ES
0x000000005918002e 0200             ADD AL, [EAX]
0x0000000059180030 00482b           ADD [EAX+0x2b], CL
0x0000000059180033 c84881f9         ENTER 0x8148, 0xf9
0x0000000059180037 700f             JO 0x59180048
0x0000000059180039 0000             ADD [EAX], AL
0x000000005918003b 7609             JBE 0x59180046
0x000000005918003d 48               DEC EAX
0x000000005918003e c7               DB 0xc7
0x000000005918003f c1               DB 0xc1

Process: MsMpEng.exe Pid: 3256 Address: 0x27b001d0000
Vad Tag: VadS Protection: PAGE_EXECUTE_READWRITE
Flags: PrivateMemory: 1, Protection: 6

0x0000027b001d0000  56 57 53 55 41 54 41 55 41 56 41 57 48 83 ec 28   VWSUATAUAVAWH..(
0x0000027b001d0010  4c 8d 3c 24 48 8b e9 48 8d b1 98 38 00 00 ff e2   L.<$H..H...8....
0x0000027b001d0020  49 8d 67 28 41 5f 41 5e 41 5d 41 5c 5d 5b 5f 5e   I.g(A_A^A]A\][_^
0x0000027b001d0030  c3 00 00 40 00 80 00 00 00 48 89 e9 48 b8 70 f6   ...@.....H..H.p.

0x00000000001d0000 56               PUSH ESI
0x00000000001d0001 57               PUSH EDI
0x00000000001d0002 53               PUSH EBX
0x00000000001d0003 55               PUSH EBP
0x00000000001d0004 41               INC ECX
0x00000000001d0005 54               PUSH ESP
0x00000000001d0006 41               INC ECX
0x00000000001d0007 55               PUSH EBP
0x00000000001d0008 41               INC ECX
0x00000000001d0009 56               PUSH ESI
0x00000000001d000a 41               INC ECX
0x00000000001d000b 57               PUSH EDI
0x00000000001d000c 48               DEC EAX
0x00000000001d000d 83ec28           SUB ESP, 0x28
0x00000000001d0010 4c               DEC ESP
0x00000000001d0011 8d3c24           LEA EDI, [ESP]
0x00000000001d0014 48               DEC EAX
0x00000000001d0015 8be9             MOV EBP, ECX
0x00000000001d0017 48               DEC EAX
0x00000000001d0018 8db198380000     LEA ESI, [ECX+0x3898]
0x00000000001d001e ffe2             JMP EDX
0x00000000001d0020 49               DEC ECX
0x00000000001d0021 8d6728           LEA ESP, [EDI+0x28]
0x00000000001d0024 41               INC ECX
0x00000000001d0025 5f               POP EDI
0x00000000001d0026 41               INC ECX
0x00000000001d0027 5e               POP ESI
0x00000000001d0028 41               INC ECX
0x00000000001d0029 5d               POP EBP
0x00000000001d002a 41               INC ECX
0x00000000001d002b 5c               POP ESP
0x00000000001d002c 5d               POP EBP
0x00000000001d002d 5b               POP EBX
0x00000000001d002e 5f               POP EDI
0x00000000001d002f 5e               POP ESI
0x00000000001d0030 c3               RET
0x00000000001d0031 0000             ADD [EAX], AL
0x00000000001d0033 40               INC EAX
0x00000000001d0034 008000000048     ADD [EAX+0x48000000], AL
0x00000000001d003a 89e9             MOV ECX, EBP
0x00000000001d003c 48               DEC EAX
0x00000000001d003d b8               DB 0xb8
0x00000000001d003e 70f6             JO 0x1d0036

Process: MsMpEng.exe Pid: 3256 Address: 0x27b00e40000
Vad Tag: VadS Protection: PAGE_EXECUTE_READWRITE
Flags: PrivateMemory: 1, Protection: 6

0x0000027b00e40000  56 57 53 55 41 54 41 55 41 56 41 57 48 83 ec 28   VWSUATAUAVAWH..(
0x0000027b00e40010  4c 8d 3c 24 48 8b e9 48 8d b1 98 38 00 00 ff e2   L.<$H..H...8....
0x0000027b00e40020  49 8d 67 28 41 5f 41 5e 41 5d 41 5c 5d 5b 5f 5e   I.g(A_A^A]A\][_^
0x0000027b00e40030  c3 00 00 40 00 80 00 00 00 48 89 e9 48 b8 70 f6   ...@.....H..H.p.

0x0000000000e40000 56               PUSH ESI
0x0000000000e40001 57               PUSH EDI
0x0000000000e40002 53               PUSH EBX
0x0000000000e40003 55               PUSH EBP
0x0000000000e40004 41               INC ECX
0x0000000000e40005 54               PUSH ESP
0x0000000000e40006 41               INC ECX
0x0000000000e40007 55               PUSH EBP
0x0000000000e40008 41               INC ECX
0x0000000000e40009 56               PUSH ESI
0x0000000000e4000a 41               INC ECX
0x0000000000e4000b 57               PUSH EDI
0x0000000000e4000c 48               DEC EAX
0x0000000000e4000d 83ec28           SUB ESP, 0x28
0x0000000000e40010 4c               DEC ESP
0x0000000000e40011 8d3c24           LEA EDI, [ESP]
0x0000000000e40014 48               DEC EAX
0x0000000000e40015 8be9             MOV EBP, ECX
0x0000000000e40017 48               DEC EAX
0x0000000000e40018 8db198380000     LEA ESI, [ECX+0x3898]
0x0000000000e4001e ffe2             JMP EDX
0x0000000000e40020 49               DEC ECX
0x0000000000e40021 8d6728           LEA ESP, [EDI+0x28]
0x0000000000e40024 41               INC ECX
0x0000000000e40025 5f               POP EDI
0x0000000000e40026 41               INC ECX
0x0000000000e40027 5e               POP ESI
0x0000000000e40028 41               INC ECX
0x0000000000e40029 5d               POP EBP
0x0000000000e4002a 41               INC ECX
0x0000000000e4002b 5c               POP ESP
0x0000000000e4002c 5d               POP EBP
0x0000000000e4002d 5b               POP EBX
0x0000000000e4002e 5f               POP EDI
0x0000000000e4002f 5e               POP ESI
0x0000000000e40030 c3               RET
0x0000000000e40031 0000             ADD [EAX], AL
0x0000000000e40033 40               INC EAX
0x0000000000e40034 008000000048     ADD [EAX+0x48000000], AL
0x0000000000e4003a 89e9             MOV ECX, EBP
0x0000000000e4003c 48               DEC EAX
0x0000000000e4003d b8               DB 0xb8
0x0000000000e4003e 70f6             JO 0xe40036

Process: MsMpEng.exe Pid: 3256 Address: 0x27b19f80000
Vad Tag: VadS Protection: PAGE_EXECUTE_READWRITE
Flags: PrivateMemory: 1, Protection: 6

0x0000027b19f80000  55 48 8d 2c 24 48 83 ec 20 48 8b 01 48 8b 49 08   UH.,$H...H..H.I.
0x0000027b19f80010  ff d0 48 8d 65 00 5d c3 cc cc cc cc cc cc cc cc   ..H.e.].........
0x0000027b19f80020  cc cc cc cc cc cc cc cc cc cc cc cc cc cc cc cc   ................
0x0000027b19f80030  cc cc cc cc cc cc cc cc cc cc cc cc cc cc cc cc   ................

0x0000000019f80000 55               PUSH EBP
0x0000000019f80001 48               DEC EAX
0x0000000019f80002 8d2c24           LEA EBP, [ESP]
0x0000000019f80005 48               DEC EAX
0x0000000019f80006 83ec20           SUB ESP, 0x20
0x0000000019f80009 48               DEC EAX
0x0000000019f8000a 8b01             MOV EAX, [ECX]
0x0000000019f8000c 48               DEC EAX
0x0000000019f8000d 8b4908           MOV ECX, [ECX+0x8]
0x0000000019f80010 ffd0             CALL EAX
0x0000000019f80012 48               DEC EAX
0x0000000019f80013 8d6500           LEA ESP, [EBP+0x0]
0x0000000019f80016 5d               POP EBP
0x0000000019f80017 c3               RET
0x0000000019f80018 cc               INT 3
0x0000000019f80019 cc               INT 3
0x0000000019f8001a cc               INT 3
0x0000000019f8001b cc               INT 3
0x0000000019f8001c cc               INT 3
0x0000000019f8001d cc               INT 3
0x0000000019f8001e cc               INT 3
0x0000000019f8001f cc               INT 3
0x0000000019f80020 cc               INT 3
0x0000000019f80021 cc               INT 3
0x0000000019f80022 cc               INT 3
0x0000000019f80023 cc               INT 3
0x0000000019f80024 cc               INT 3
0x0000000019f80025 cc               INT 3
0x0000000019f80026 cc               INT 3
0x0000000019f80027 cc               INT 3
0x0000000019f80028 cc               INT 3
0x0000000019f80029 cc               INT 3
0x0000000019f8002a cc               INT 3
0x0000000019f8002b cc               INT 3
0x0000000019f8002c cc               INT 3
0x0000000019f8002d cc               INT 3
0x0000000019f8002e cc               INT 3
0x0000000019f8002f cc               INT 3
0x0000000019f80030 cc               INT 3
0x0000000019f80031 cc               INT 3
0x0000000019f80032 cc               INT 3
0x0000000019f80033 cc               INT 3
0x0000000019f80034 cc               INT 3
0x0000000019f80035 cc               INT 3
0x0000000019f80036 cc               INT 3
0x0000000019f80037 cc               INT 3
0x0000000019f80038 cc               INT 3
0x0000000019f80039 cc               INT 3
0x0000000019f8003a cc               INT 3
0x0000000019f8003b cc               INT 3
0x0000000019f8003c cc               INT 3
0x0000000019f8003d cc               INT 3
0x0000000019f8003e cc               INT 3
0x0000000019f8003f cc               INT 3

Process: MsMpEng.exe Pid: 3256 Address: 0x27b2e000000
Vad Tag: VadS Protection: PAGE_EXECUTE_READWRITE
Flags: PrivateMemory: 1, Protection: 6

0x0000027b2e000000  55 48 8d 2c 24 48 83 ec 20 48 8b 01 48 8b 49 08   UH.,$H...H..H.I.
0x0000027b2e000010  ff d0 48 8d 65 00 5d c3 cc cc cc cc cc cc cc cc   ..H.e.].........
0x0000027b2e000020  cc cc cc cc cc cc cc cc cc cc cc cc cc cc cc cc   ................
0x0000027b2e000030  cc cc cc cc cc cc cc cc cc cc cc cc cc cc cc cc   ................

0x000000002e000000 55               PUSH EBP
0x000000002e000001 48               DEC EAX
0x000000002e000002 8d2c24           LEA EBP, [ESP]
0x000000002e000005 48               DEC EAX
0x000000002e000006 83ec20           SUB ESP, 0x20
0x000000002e000009 48               DEC EAX
0x000000002e00000a 8b01             MOV EAX, [ECX]
0x000000002e00000c 48               DEC EAX
0x000000002e00000d 8b4908           MOV ECX, [ECX+0x8]
0x000000002e000010 ffd0             CALL EAX
0x000000002e000012 48               DEC EAX
0x000000002e000013 8d6500           LEA ESP, [EBP+0x0]
0x000000002e000016 5d               POP EBP
0x000000002e000017 c3               RET
0x000000002e000018 cc               INT 3
0x000000002e000019 cc               INT 3
0x000000002e00001a cc               INT 3
0x000000002e00001b cc               INT 3
0x000000002e00001c cc               INT 3
0x000000002e00001d cc               INT 3
0x000000002e00001e cc               INT 3
0x000000002e00001f cc               INT 3
0x000000002e000020 cc               INT 3
0x000000002e000021 cc               INT 3
0x000000002e000022 cc               INT 3
0x000000002e000023 cc               INT 3
0x000000002e000024 cc               INT 3
0x000000002e000025 cc               INT 3
0x000000002e000026 cc               INT 3
0x000000002e000027 cc               INT 3
0x000000002e000028 cc               INT 3
0x000000002e000029 cc               INT 3
0x000000002e00002a cc               INT 3
0x000000002e00002b cc               INT 3
0x000000002e00002c cc               INT 3
0x000000002e00002d cc               INT 3
0x000000002e00002e cc               INT 3
0x000000002e00002f cc               INT 3
0x000000002e000030 cc               INT 3
0x000000002e000031 cc               INT 3
0x000000002e000032 cc               INT 3
0x000000002e000033 cc               INT 3
0x000000002e000034 cc               INT 3
0x000000002e000035 cc               INT 3
0x000000002e000036 cc               INT 3
0x000000002e000037 cc               INT 3
0x000000002e000038 cc               INT 3
0x000000002e000039 cc               INT 3
0x000000002e00003a cc               INT 3
0x000000002e00003b cc               INT 3
0x000000002e00003c cc               INT 3
0x000000002e00003d cc               INT 3
0x000000002e00003e cc               INT 3
0x000000002e00003f cc               INT 3

Process: MsMpEng.exe Pid: 3256 Address: 0x27b2fe20000
Vad Tag: VadS Protection: PAGE_EXECUTE_READWRITE
Flags: PrivateMemory: 1, Protection: 6

0x0000027b2fe20000  55 48 8d 2c 24 48 83 ec 20 48 8b 01 48 8b 49 08   UH.,$H...H..H.I.
0x0000027b2fe20010  ff d0 48 8d 65 00 5d c3 cc cc cc cc cc cc cc cc   ..H.e.].........
0x0000027b2fe20020  cc cc cc cc cc cc cc cc cc cc cc cc cc cc cc cc   ................
0x0000027b2fe20030  cc cc cc cc cc cc cc cc cc cc cc cc cc cc cc cc   ................

0x000000002fe20000 55               PUSH EBP
0x000000002fe20001 48               DEC EAX
0x000000002fe20002 8d2c24           LEA EBP, [ESP]
0x000000002fe20005 48               DEC EAX
0x000000002fe20006 83ec20           SUB ESP, 0x20
0x000000002fe20009 48               DEC EAX
0x000000002fe2000a 8b01             MOV EAX, [ECX]
0x000000002fe2000c 48               DEC EAX
0x000000002fe2000d 8b4908           MOV ECX, [ECX+0x8]
0x000000002fe20010 ffd0             CALL EAX
0x000000002fe20012 48               DEC EAX
0x000000002fe20013 8d6500           LEA ESP, [EBP+0x0]
0x000000002fe20016 5d               POP EBP
0x000000002fe20017 c3               RET
0x000000002fe20018 cc               INT 3
0x000000002fe20019 cc               INT 3
0x000000002fe2001a cc               INT 3
0x000000002fe2001b cc               INT 3
0x000000002fe2001c cc               INT 3
0x000000002fe2001d cc               INT 3
0x000000002fe2001e cc               INT 3
0x000000002fe2001f cc               INT 3
0x000000002fe20020 cc               INT 3
0x000000002fe20021 cc               INT 3
0x000000002fe20022 cc               INT 3
0x000000002fe20023 cc               INT 3
0x000000002fe20024 cc               INT 3
0x000000002fe20025 cc               INT 3
0x000000002fe20026 cc               INT 3
0x000000002fe20027 cc               INT 3
0x000000002fe20028 cc               INT 3
0x000000002fe20029 cc               INT 3
0x000000002fe2002a cc               INT 3
0x000000002fe2002b cc               INT 3
0x000000002fe2002c cc               INT 3
0x000000002fe2002d cc               INT 3
0x000000002fe2002e cc               INT 3
0x000000002fe2002f cc               INT 3
0x000000002fe20030 cc               INT 3
0x000000002fe20031 cc               INT 3
0x000000002fe20032 cc               INT 3
0x000000002fe20033 cc               INT 3
0x000000002fe20034 cc               INT 3
0x000000002fe20035 cc               INT 3
0x000000002fe20036 cc               INT 3
0x000000002fe20037 cc               INT 3
0x000000002fe20038 cc               INT 3
0x000000002fe20039 cc               INT 3
0x000000002fe2003a cc               INT 3
0x000000002fe2003b cc               INT 3
0x000000002fe2003c cc               INT 3
0x000000002fe2003d cc               INT 3
0x000000002fe2003e cc               INT 3
0x000000002fe2003f cc               INT 3

Process: MsMpEng.exe Pid: 3256 Address: 0x27b2e230000
Vad Tag: VadS Protection: PAGE_EXECUTE_READWRITE
Flags: PrivateMemory: 1, Protection: 6

0x0000027b2e230000  55 48 8d 2c 24 48 83 ec 20 48 8b 01 48 8b 49 08   UH.,$H...H..H.I.
0x0000027b2e230010  ff d0 48 8d 65 00 5d c3 cc cc cc cc cc cc cc cc   ..H.e.].........
0x0000027b2e230020  cc cc cc cc cc cc cc cc cc cc cc cc cc cc cc cc   ................
0x0000027b2e230030  cc cc cc cc cc cc cc cc cc cc cc cc cc cc cc cc   ................

0x000000002e230000 55               PUSH EBP
0x000000002e230001 48               DEC EAX
0x000000002e230002 8d2c24           LEA EBP, [ESP]
0x000000002e230005 48               DEC EAX
0x000000002e230006 83ec20           SUB ESP, 0x20
0x000000002e230009 48               DEC EAX
0x000000002e23000a 8b01             MOV EAX, [ECX]
0x000000002e23000c 48               DEC EAX
0x000000002e23000d 8b4908           MOV ECX, [ECX+0x8]
0x000000002e230010 ffd0             CALL EAX
0x000000002e230012 48               DEC EAX
0x000000002e230013 8d6500           LEA ESP, [EBP+0x0]
0x000000002e230016 5d               POP EBP
0x000000002e230017 c3               RET
0x000000002e230018 cc               INT 3
0x000000002e230019 cc               INT 3
0x000000002e23001a cc               INT 3
0x000000002e23001b cc               INT 3
0x000000002e23001c cc               INT 3
0x000000002e23001d cc               INT 3
0x000000002e23001e cc               INT 3
0x000000002e23001f cc               INT 3
0x000000002e230020 cc               INT 3
0x000000002e230021 cc               INT 3
0x000000002e230022 cc               INT 3
0x000000002e230023 cc               INT 3
0x000000002e230024 cc               INT 3
0x000000002e230025 cc               INT 3
0x000000002e230026 cc               INT 3
0x000000002e230027 cc               INT 3
0x000000002e230028 cc               INT 3
0x000000002e230029 cc               INT 3
0x000000002e23002a cc               INT 3
0x000000002e23002b cc               INT 3
0x000000002e23002c cc               INT 3
0x000000002e23002d cc               INT 3
0x000000002e23002e cc               INT 3
0x000000002e23002f cc               INT 3
0x000000002e230030 cc               INT 3
0x000000002e230031 cc               INT 3
0x000000002e230032 cc               INT 3
0x000000002e230033 cc               INT 3
0x000000002e230034 cc               INT 3
0x000000002e230035 cc               INT 3
0x000000002e230036 cc               INT 3
0x000000002e230037 cc               INT 3
0x000000002e230038 cc               INT 3
0x000000002e230039 cc               INT 3
0x000000002e23003a cc               INT 3
0x000000002e23003b cc               INT 3
0x000000002e23003c cc               INT 3
0x000000002e23003d cc               INT 3
0x000000002e23003e cc               INT 3
0x000000002e23003f cc               INT 3

Process: MsMpEng.exe Pid: 3256 Address: 0x27b2feb0000
Vad Tag: VadS Protection: PAGE_EXECUTE_READWRITE
Flags: PrivateMemory: 1, Protection: 6

0x0000027b2feb0000  55 48 8d 2c 24 48 83 ec 20 48 8b 01 48 8b 49 08   UH.,$H...H..H.I.
0x0000027b2feb0010  ff d0 48 8d 65 00 5d c3 cc cc cc cc cc cc cc cc   ..H.e.].........
0x0000027b2feb0020  cc cc cc cc cc cc cc cc cc cc cc cc cc cc cc cc   ................
0x0000027b2feb0030  cc cc cc cc cc cc cc cc cc cc cc cc cc cc cc cc   ................

0x000000002feb0000 55               PUSH EBP
0x000000002feb0001 48               DEC EAX
0x000000002feb0002 8d2c24           LEA EBP, [ESP]
0x000000002feb0005 48               DEC EAX
0x000000002feb0006 83ec20           SUB ESP, 0x20
0x000000002feb0009 48               DEC EAX
0x000000002feb000a 8b01             MOV EAX, [ECX]
0x000000002feb000c 48               DEC EAX
0x000000002feb000d 8b4908           MOV ECX, [ECX+0x8]
0x000000002feb0010 ffd0             CALL EAX
0x000000002feb0012 48               DEC EAX
0x000000002feb0013 8d6500           LEA ESP, [EBP+0x0]
0x000000002feb0016 5d               POP EBP
0x000000002feb0017 c3               RET
0x000000002feb0018 cc               INT 3
0x000000002feb0019 cc               INT 3
0x000000002feb001a cc               INT 3
0x000000002feb001b cc               INT 3
0x000000002feb001c cc               INT 3
0x000000002feb001d cc               INT 3
0x000000002feb001e cc               INT 3
0x000000002feb001f cc               INT 3
0x000000002feb0020 cc               INT 3
0x000000002feb0021 cc               INT 3
0x000000002feb0022 cc               INT 3
0x000000002feb0023 cc               INT 3
0x000000002feb0024 cc               INT 3
0x000000002feb0025 cc               INT 3
0x000000002feb0026 cc               INT 3
0x000000002feb0027 cc               INT 3
0x000000002feb0028 cc               INT 3
0x000000002feb0029 cc               INT 3
0x000000002feb002a cc               INT 3
0x000000002feb002b cc               INT 3
0x000000002feb002c cc               INT 3
0x000000002feb002d cc               INT 3
0x000000002feb002e cc               INT 3
0x000000002feb002f cc               INT 3
0x000000002feb0030 cc               INT 3
0x000000002feb0031 cc               INT 3
0x000000002feb0032 cc               INT 3
0x000000002feb0033 cc               INT 3
0x000000002feb0034 cc               INT 3
0x000000002feb0035 cc               INT 3
0x000000002feb0036 cc               INT 3
0x000000002feb0037 cc               INT 3
0x000000002feb0038 cc               INT 3
0x000000002feb0039 cc               INT 3
0x000000002feb003a cc               INT 3
0x000000002feb003b cc               INT 3
0x000000002feb003c cc               INT 3
0x000000002feb003d cc               INT 3
0x000000002feb003e cc               INT 3
0x000000002feb003f cc               INT 3

Process: MsMpEng.exe Pid: 3256 Address: 0x27b2fec0000
Vad Tag: VadS Protection: PAGE_EXECUTE_READWRITE
Flags: PrivateMemory: 1, Protection: 6

0x0000027b2fec0000  55 48 8d 2c 24 48 83 ec 20 48 8b 01 48 8b 49 08   UH.,$H...H..H.I.
0x0000027b2fec0010  ff d0 48 8d 65 00 5d c3 cc cc cc cc cc cc cc cc   ..H.e.].........
0x0000027b2fec0020  cc cc cc cc cc cc cc cc cc cc cc cc cc cc cc cc   ................
0x0000027b2fec0030  cc cc cc cc cc cc cc cc cc cc cc cc cc cc cc cc   ................

0x000000002fec0000 55               PUSH EBP
0x000000002fec0001 48               DEC EAX
0x000000002fec0002 8d2c24           LEA EBP, [ESP]
0x000000002fec0005 48               DEC EAX
0x000000002fec0006 83ec20           SUB ESP, 0x20
0x000000002fec0009 48               DEC EAX
0x000000002fec000a 8b01             MOV EAX, [ECX]
0x000000002fec000c 48               DEC EAX
0x000000002fec000d 8b4908           MOV ECX, [ECX+0x8]
0x000000002fec0010 ffd0             CALL EAX
0x000000002fec0012 48               DEC EAX
0x000000002fec0013 8d6500           LEA ESP, [EBP+0x0]
0x000000002fec0016 5d               POP EBP
0x000000002fec0017 c3               RET
0x000000002fec0018 cc               INT 3
0x000000002fec0019 cc               INT 3
0x000000002fec001a cc               INT 3
0x000000002fec001b cc               INT 3
0x000000002fec001c cc               INT 3
0x000000002fec001d cc               INT 3
0x000000002fec001e cc               INT 3
0x000000002fec001f cc               INT 3
0x000000002fec0020 cc               INT 3
0x000000002fec0021 cc               INT 3
0x000000002fec0022 cc               INT 3
0x000000002fec0023 cc               INT 3
0x000000002fec0024 cc               INT 3
0x000000002fec0025 cc               INT 3
0x000000002fec0026 cc               INT 3
0x000000002fec0027 cc               INT 3
0x000000002fec0028 cc               INT 3
0x000000002fec0029 cc               INT 3
0x000000002fec002a cc               INT 3
0x000000002fec002b cc               INT 3
0x000000002fec002c cc               INT 3
0x000000002fec002d cc               INT 3
0x000000002fec002e cc               INT 3
0x000000002fec002f cc               INT 3
0x000000002fec0030 cc               INT 3
0x000000002fec0031 cc               INT 3
0x000000002fec0032 cc               INT 3
0x000000002fec0033 cc               INT 3
0x000000002fec0034 cc               INT 3
0x000000002fec0035 cc               INT 3
0x000000002fec0036 cc               INT 3
0x000000002fec0037 cc               INT 3
0x000000002fec0038 cc               INT 3
0x000000002fec0039 cc               INT 3
0x000000002fec003a cc               INT 3
0x000000002fec003b cc               INT 3
0x000000002fec003c cc               INT 3
0x000000002fec003d cc               INT 3
0x000000002fec003e cc               INT 3
0x000000002fec003f cc               INT 3

Process: MsMpEng.exe Pid: 3256 Address: 0x27b30a40000
Vad Tag: VadS Protection: PAGE_EXECUTE_READWRITE
Flags: PrivateMemory: 1, Protection: 6

0x0000027b30a40000  55 48 8d 2c 24 48 83 ec 20 48 8b 01 48 8b 49 08   UH.,$H...H..H.I.
0x0000027b30a40010  ff d0 48 8d 65 00 5d c3 cc cc cc cc cc cc cc cc   ..H.e.].........
0x0000027b30a40020  cc cc cc cc cc cc cc cc cc cc cc cc cc cc cc cc   ................
0x0000027b30a40030  cc cc cc cc cc cc cc cc cc cc cc cc cc cc cc cc   ................

0x0000000030a40000 55               PUSH EBP
0x0000000030a40001 48               DEC EAX
0x0000000030a40002 8d2c24           LEA EBP, [ESP]
0x0000000030a40005 48               DEC EAX
0x0000000030a40006 83ec20           SUB ESP, 0x20
0x0000000030a40009 48               DEC EAX
0x0000000030a4000a 8b01             MOV EAX, [ECX]
0x0000000030a4000c 48               DEC EAX
0x0000000030a4000d 8b4908           MOV ECX, [ECX+0x8]
0x0000000030a40010 ffd0             CALL EAX
0x0000000030a40012 48               DEC EAX
0x0000000030a40013 8d6500           LEA ESP, [EBP+0x0]
0x0000000030a40016 5d               POP EBP
0x0000000030a40017 c3               RET
0x0000000030a40018 cc               INT 3
0x0000000030a40019 cc               INT 3
0x0000000030a4001a cc               INT 3
0x0000000030a4001b cc               INT 3
0x0000000030a4001c cc               INT 3
0x0000000030a4001d cc               INT 3
0x0000000030a4001e cc               INT 3
0x0000000030a4001f cc               INT 3
0x0000000030a40020 cc               INT 3
0x0000000030a40021 cc               INT 3
0x0000000030a40022 cc               INT 3
0x0000000030a40023 cc               INT 3
0x0000000030a40024 cc               INT 3
0x0000000030a40025 cc               INT 3
0x0000000030a40026 cc               INT 3
0x0000000030a40027 cc               INT 3
0x0000000030a40028 cc               INT 3
0x0000000030a40029 cc               INT 3
0x0000000030a4002a cc               INT 3
0x0000000030a4002b cc               INT 3
0x0000000030a4002c cc               INT 3
0x0000000030a4002d cc               INT 3
0x0000000030a4002e cc               INT 3
0x0000000030a4002f cc               INT 3
0x0000000030a40030 cc               INT 3
0x0000000030a40031 cc               INT 3
0x0000000030a40032 cc               INT 3
0x0000000030a40033 cc               INT 3
0x0000000030a40034 cc               INT 3
0x0000000030a40035 cc               INT 3
0x0000000030a40036 cc               INT 3
0x0000000030a40037 cc               INT 3
0x0000000030a40038 cc               INT 3
0x0000000030a40039 cc               INT 3
0x0000000030a4003a cc               INT 3
0x0000000030a4003b cc               INT 3
0x0000000030a4003c cc               INT 3
0x0000000030a4003d cc               INT 3
0x0000000030a4003e cc               INT 3
0x0000000030a4003f cc               INT 3

Process: MsMpEng.exe Pid: 3256 Address: 0x27b30ae0000
Vad Tag: VadS Protection: PAGE_EXECUTE_READWRITE
Flags: PrivateMemory: 1, Protection: 6

0x0000027b30ae0000  55 48 8d 2c 24 48 83 ec 20 48 8b 01 48 8b 49 08   UH.,$H...H..H.I.
0x0000027b30ae0010  ff d0 48 8d 65 00 5d c3 cc cc cc cc cc cc cc cc   ..H.e.].........
0x0000027b30ae0020  cc cc cc cc cc cc cc cc cc cc cc cc cc cc cc cc   ................
0x0000027b30ae0030  cc cc cc cc cc cc cc cc cc cc cc cc cc cc cc cc   ................

0x0000000030ae0000 55               PUSH EBP
0x0000000030ae0001 48               DEC EAX
0x0000000030ae0002 8d2c24           LEA EBP, [ESP]
0x0000000030ae0005 48               DEC EAX
0x0000000030ae0006 83ec20           SUB ESP, 0x20
0x0000000030ae0009 48               DEC EAX
0x0000000030ae000a 8b01             MOV EAX, [ECX]
0x0000000030ae000c 48               DEC EAX
0x0000000030ae000d 8b4908           MOV ECX, [ECX+0x8]
0x0000000030ae0010 ffd0             CALL EAX
0x0000000030ae0012 48               DEC EAX
0x0000000030ae0013 8d6500           LEA ESP, [EBP+0x0]
0x0000000030ae0016 5d               POP EBP
0x0000000030ae0017 c3               RET
0x0000000030ae0018 cc               INT 3
0x0000000030ae0019 cc               INT 3
0x0000000030ae001a cc               INT 3
0x0000000030ae001b cc               INT 3
0x0000000030ae001c cc               INT 3
0x0000000030ae001d cc               INT 3
0x0000000030ae001e cc               INT 3
0x0000000030ae001f cc               INT 3
0x0000000030ae0020 cc               INT 3
0x0000000030ae0021 cc               INT 3
0x0000000030ae0022 cc               INT 3
0x0000000030ae0023 cc               INT 3
0x0000000030ae0024 cc               INT 3
0x0000000030ae0025 cc               INT 3
0x0000000030ae0026 cc               INT 3
0x0000000030ae0027 cc               INT 3
0x0000000030ae0028 cc               INT 3
0x0000000030ae0029 cc               INT 3
0x0000000030ae002a cc               INT 3
0x0000000030ae002b cc               INT 3
0x0000000030ae002c cc               INT 3
0x0000000030ae002d cc               INT 3
0x0000000030ae002e cc               INT 3
0x0000000030ae002f cc               INT 3
0x0000000030ae0030 cc               INT 3
0x0000000030ae0031 cc               INT 3
0x0000000030ae0032 cc               INT 3
0x0000000030ae0033 cc               INT 3
0x0000000030ae0034 cc               INT 3
0x0000000030ae0035 cc               INT 3
0x0000000030ae0036 cc               INT 3
0x0000000030ae0037 cc               INT 3
0x0000000030ae0038 cc               INT 3
0x0000000030ae0039 cc               INT 3
0x0000000030ae003a cc               INT 3
0x0000000030ae003b cc               INT 3
0x0000000030ae003c cc               INT 3
0x0000000030ae003d cc               INT 3
0x0000000030ae003e cc               INT 3
0x0000000030ae003f cc               INT 3

Process: MsMpEng.exe Pid: 3256 Address: 0x27b30b20000
Vad Tag: VadS Protection: PAGE_EXECUTE_READWRITE
Flags: PrivateMemory: 1, Protection: 6

0x0000027b30b20000  55 48 8d 2c 24 48 83 ec 20 48 8b 01 48 8b 49 08   UH.,$H...H..H.I.
0x0000027b30b20010  ff d0 48 8d 65 00 5d c3 cc cc cc cc cc cc cc cc   ..H.e.].........
0x0000027b30b20020  cc cc cc cc cc cc cc cc cc cc cc cc cc cc cc cc   ................
0x0000027b30b20030  cc cc cc cc cc cc cc cc cc cc cc cc cc cc cc cc   ................

0x0000000030b20000 55               PUSH EBP
0x0000000030b20001 48               DEC EAX
0x0000000030b20002 8d2c24           LEA EBP, [ESP]
0x0000000030b20005 48               DEC EAX
0x0000000030b20006 83ec20           SUB ESP, 0x20
0x0000000030b20009 48               DEC EAX
0x0000000030b2000a 8b01             MOV EAX, [ECX]
0x0000000030b2000c 48               DEC EAX
0x0000000030b2000d 8b4908           MOV ECX, [ECX+0x8]
0x0000000030b20010 ffd0             CALL EAX
0x0000000030b20012 48               DEC EAX
0x0000000030b20013 8d6500           LEA ESP, [EBP+0x0]
0x0000000030b20016 5d               POP EBP
0x0000000030b20017 c3               RET
0x0000000030b20018 cc               INT 3
0x0000000030b20019 cc               INT 3
0x0000000030b2001a cc               INT 3
0x0000000030b2001b cc               INT 3
0x0000000030b2001c cc               INT 3
0x0000000030b2001d cc               INT 3
0x0000000030b2001e cc               INT 3
0x0000000030b2001f cc               INT 3
0x0000000030b20020 cc               INT 3
0x0000000030b20021 cc               INT 3
0x0000000030b20022 cc               INT 3
0x0000000030b20023 cc               INT 3
0x0000000030b20024 cc               INT 3
0x0000000030b20025 cc               INT 3
0x0000000030b20026 cc               INT 3
0x0000000030b20027 cc               INT 3
0x0000000030b20028 cc               INT 3
0x0000000030b20029 cc               INT 3
0x0000000030b2002a cc               INT 3
0x0000000030b2002b cc               INT 3
0x0000000030b2002c cc               INT 3
0x0000000030b2002d cc               INT 3
0x0000000030b2002e cc               INT 3
0x0000000030b2002f cc               INT 3
0x0000000030b20030 cc               INT 3
0x0000000030b20031 cc               INT 3
0x0000000030b20032 cc               INT 3
0x0000000030b20033 cc               INT 3
0x0000000030b20034 cc               INT 3
0x0000000030b20035 cc               INT 3
0x0000000030b20036 cc               INT 3
0x0000000030b20037 cc               INT 3
0x0000000030b20038 cc               INT 3
0x0000000030b20039 cc               INT 3
0x0000000030b2003a cc               INT 3
0x0000000030b2003b cc               INT 3
0x0000000030b2003c cc               INT 3
0x0000000030b2003d cc               INT 3
0x0000000030b2003e cc               INT 3
0x0000000030b2003f cc               INT 3

Process: MsMpEng.exe Pid: 3256 Address: 0x27b310a0000
Vad Tag: VadS Protection: PAGE_EXECUTE_READWRITE
Flags: PrivateMemory: 1, Protection: 6

0x0000027b310a0000  cc cc cc cc cc cc cc cc cc cc cc cc cc cc cc cc   ................
0x0000027b310a0010  cc cc cc cc cc cc cc cc cc cc cc cc cc cc cc cc   ................
0x0000027b310a0020  cc cc cc cc cc cc cc cc cc cc cc cc cc cc cc cc   ................
0x0000027b310a0030  cc 08 00 42 00 00 00 00 05 48 8b 45 20 48 89 c2   ...B.....H.E.H..

0x00000000310a0000 cc               INT 3
0x00000000310a0001 cc               INT 3
0x00000000310a0002 cc               INT 3
0x00000000310a0003 cc               INT 3
0x00000000310a0004 cc               INT 3
0x00000000310a0005 cc               INT 3
0x00000000310a0006 cc               INT 3
0x00000000310a0007 cc               INT 3
0x00000000310a0008 cc               INT 3
0x00000000310a0009 cc               INT 3
0x00000000310a000a cc               INT 3
0x00000000310a000b cc               INT 3
0x00000000310a000c cc               INT 3
0x00000000310a000d cc               INT 3
0x00000000310a000e cc               INT 3
0x00000000310a000f cc               INT 3
0x00000000310a0010 cc               INT 3
0x00000000310a0011 cc               INT 3
0x00000000310a0012 cc               INT 3
0x00000000310a0013 cc               INT 3
0x00000000310a0014 cc               INT 3
0x00000000310a0015 cc               INT 3
0x00000000310a0016 cc               INT 3
0x00000000310a0017 cc               INT 3
0x00000000310a0018 cc               INT 3
0x00000000310a0019 cc               INT 3
0x00000000310a001a cc               INT 3
0x00000000310a001b cc               INT 3
0x00000000310a001c cc               INT 3
0x00000000310a001d cc               INT 3
0x00000000310a001e cc               INT 3
0x00000000310a001f cc               INT 3
0x00000000310a0020 cc               INT 3
0x00000000310a0021 cc               INT 3
0x00000000310a0022 cc               INT 3
0x00000000310a0023 cc               INT 3
0x00000000310a0024 cc               INT 3
0x00000000310a0025 cc               INT 3
0x00000000310a0026 cc               INT 3
0x00000000310a0027 cc               INT 3
0x00000000310a0028 cc               INT 3
0x00000000310a0029 cc               INT 3
0x00000000310a002a cc               INT 3
0x00000000310a002b cc               INT 3
0x00000000310a002c cc               INT 3
0x00000000310a002d cc               INT 3
0x00000000310a002e cc               INT 3
0x00000000310a002f cc               INT 3
0x00000000310a0030 cc               INT 3
0x00000000310a0031 0800             OR [EAX], AL
0x00000000310a0033 42               INC EDX
0x00000000310a0034 0000             ADD [EAX], AL
0x00000000310a0036 0000             ADD [EAX], AL
0x00000000310a0038 05488b4520       ADD EAX, 0x20458b48
0x00000000310a003d 48               DEC EAX
0x00000000310a003e 89c2             MOV EDX, EAX

Process: MsMpEng.exe Pid: 3256 Address: 0x27b32230000
Vad Tag: VadS Protection: PAGE_EXECUTE_READWRITE
Flags: PrivateMemory: 1, Protection: 6

0x0000027b32230000  cc cc cc cc cc cc cc cc cc cc cc cc cc cc cc cc   ................
0x0000027b32230010  cc cc cc cc cc cc cc cc cc cc cc cc cc cc cc cc   ................
0x0000027b32230020  cc cc cc cc cc cc cc cc cc cc cc cc cc cc cc cc   ................
0x0000027b32230030  cc 0c 00 4e 00 0c 00 01 05 48 8b 55 28 48 8b 8d   ...N.....H.U(H..

0x0000000032230000 cc               INT 3
0x0000000032230001 cc               INT 3
0x0000000032230002 cc               INT 3
0x0000000032230003 cc               INT 3
0x0000000032230004 cc               INT 3
0x0000000032230005 cc               INT 3
0x0000000032230006 cc               INT 3
0x0000000032230007 cc               INT 3
0x0000000032230008 cc               INT 3
0x0000000032230009 cc               INT 3
0x000000003223000a cc               INT 3
0x000000003223000b cc               INT 3
0x000000003223000c cc               INT 3
0x000000003223000d cc               INT 3
0x000000003223000e cc               INT 3
0x000000003223000f cc               INT 3
0x0000000032230010 cc               INT 3
0x0000000032230011 cc               INT 3
0x0000000032230012 cc               INT 3
0x0000000032230013 cc               INT 3
0x0000000032230014 cc               INT 3
0x0000000032230015 cc               INT 3
0x0000000032230016 cc               INT 3
0x0000000032230017 cc               INT 3
0x0000000032230018 cc               INT 3
0x0000000032230019 cc               INT 3
0x000000003223001a cc               INT 3
0x000000003223001b cc               INT 3
0x000000003223001c cc               INT 3
0x000000003223001d cc               INT 3
0x000000003223001e cc               INT 3
0x000000003223001f cc               INT 3
0x0000000032230020 cc               INT 3
0x0000000032230021 cc               INT 3
0x0000000032230022 cc               INT 3
0x0000000032230023 cc               INT 3
0x0000000032230024 cc               INT 3
0x0000000032230025 cc               INT 3
0x0000000032230026 cc               INT 3
0x0000000032230027 cc               INT 3
0x0000000032230028 cc               INT 3
0x0000000032230029 cc               INT 3
0x000000003223002a cc               INT 3
0x000000003223002b cc               INT 3
0x000000003223002c cc               INT 3
0x000000003223002d cc               INT 3
0x000000003223002e cc               INT 3
0x000000003223002f cc               INT 3
0x0000000032230030 cc               INT 3
0x0000000032230031 0c00             OR AL, 0x0
0x0000000032230033 4e               DEC ESI
0x0000000032230034 000c00           ADD [EAX+EAX], CL
0x0000000032230037 0105488b5528     ADD [0x28558b48], EAX
0x000000003223003d 48               DEC EAX
0x000000003223003e 8b               DB 0x8b
0x000000003223003f 8d               DB 0x8d

