Process: MsMpEng.exe Pid: 2400 Address: 0x2230d020000
Vad Tag: VadS Protection: PAGE_EXECUTE_READWRITE
Flags: PrivateMemory: 1, Protection: 6

0x000002230d020000  55 48 8d 2c 24 48 83 ec 20 48 8b 01 48 8b 49 08   UH.,$H...H..H.I.
0x000002230d020010  ff d0 48 8d 65 00 5d c3 cc cc cc cc cc cc cc cc   ..H.e.].........
0x000002230d020020  cc cc cc cc cc cc cc cc cc cc cc cc cc cc cc cc   ................
0x000002230d020030  cc cc cc cc cc cc cc cc cc cc cc cc cc cc cc cc   ................

0x000000000d020000 55               PUSH EBP
0x000000000d020001 48               DEC EAX
0x000000000d020002 8d2c24           LEA EBP, [ESP]
0x000000000d020005 48               DEC EAX
0x000000000d020006 83ec20           SUB ESP, 0x20
0x000000000d020009 48               DEC EAX
0x000000000d02000a 8b01             MOV EAX, [ECX]
0x000000000d02000c 48               DEC EAX
0x000000000d02000d 8b4908           MOV ECX, [ECX+0x8]
0x000000000d020010 ffd0             CALL EAX
0x000000000d020012 48               DEC EAX
0x000000000d020013 8d6500           LEA ESP, [EBP+0x0]
0x000000000d020016 5d               POP EBP
0x000000000d020017 c3               RET
0x000000000d020018 cc               INT 3
0x000000000d020019 cc               INT 3
0x000000000d02001a cc               INT 3
0x000000000d02001b cc               INT 3
0x000000000d02001c cc               INT 3
0x000000000d02001d cc               INT 3
0x000000000d02001e cc               INT 3
0x000000000d02001f cc               INT 3
0x000000000d020020 cc               INT 3
0x000000000d020021 cc               INT 3
0x000000000d020022 cc               INT 3
0x000000000d020023 cc               INT 3
0x000000000d020024 cc               INT 3
0x000000000d020025 cc               INT 3
0x000000000d020026 cc               INT 3
0x000000000d020027 cc               INT 3
0x000000000d020028 cc               INT 3
0x000000000d020029 cc               INT 3
0x000000000d02002a cc               INT 3
0x000000000d02002b cc               INT 3
0x000000000d02002c cc               INT 3
0x000000000d02002d cc               INT 3
0x000000000d02002e cc               INT 3
0x000000000d02002f cc               INT 3
0x000000000d020030 cc               INT 3
0x000000000d020031 cc               INT 3
0x000000000d020032 cc               INT 3
0x000000000d020033 cc               INT 3
0x000000000d020034 cc               INT 3
0x000000000d020035 cc               INT 3
0x000000000d020036 cc               INT 3
0x000000000d020037 cc               INT 3
0x000000000d020038 cc               INT 3
0x000000000d020039 cc               INT 3
0x000000000d02003a cc               INT 3
0x000000000d02003b cc               INT 3
0x000000000d02003c cc               INT 3
0x000000000d02003d cc               INT 3
0x000000000d02003e cc               INT 3
0x000000000d02003f cc               INT 3

Process: MsMpEng.exe Pid: 2400 Address: 0x2230b900000
Vad Tag: VadS Protection: PAGE_EXECUTE_READWRITE
Flags: PrivateMemory: 1, Protection: 6

0x000002230b900000  56 57 53 55 41 54 41 55 41 56 41 57 48 83 ec 28   VWSUATAUAVAWH..(
0x000002230b900010  4c 8d 3c 24 48 8b e9 48 8d b1 98 38 00 00 ff e2   L.<$H..H...8....
0x000002230b900020  49 8d 67 28 41 5f 41 5e 41 5d 41 5c 5d 5b 5f 5e   I.g(A_A^A]A\][_^
0x000002230b900030  c3 00 00 40 00 80 00 00 00 48 89 e9 48 b8 60 a0   ...@.....H..H.`.

0x000000000b900000 56               PUSH ESI
0x000000000b900001 57               PUSH EDI
0x000000000b900002 53               PUSH EBX
0x000000000b900003 55               PUSH EBP
0x000000000b900004 41               INC ECX
0x000000000b900005 54               PUSH ESP
0x000000000b900006 41               INC ECX
0x000000000b900007 55               PUSH EBP
0x000000000b900008 41               INC ECX
0x000000000b900009 56               PUSH ESI
0x000000000b90000a 41               INC ECX
0x000000000b90000b 57               PUSH EDI
0x000000000b90000c 48               DEC EAX
0x000000000b90000d 83ec28           SUB ESP, 0x28
0x000000000b900010 4c               DEC ESP
0x000000000b900011 8d3c24           LEA EDI, [ESP]
0x000000000b900014 48               DEC EAX
0x000000000b900015 8be9             MOV EBP, ECX
0x000000000b900017 48               DEC EAX
0x000000000b900018 8db198380000     LEA ESI, [ECX+0x3898]
0x000000000b90001e ffe2             JMP EDX
0x000000000b900020 49               DEC ECX
0x000000000b900021 8d6728           LEA ESP, [EDI+0x28]
0x000000000b900024 41               INC ECX
0x000000000b900025 5f               POP EDI
0x000000000b900026 41               INC ECX
0x000000000b900027 5e               POP ESI
0x000000000b900028 41               INC ECX
0x000000000b900029 5d               POP EBP
0x000000000b90002a 41               INC ECX
0x000000000b90002b 5c               POP ESP
0x000000000b90002c 5d               POP EBP
0x000000000b90002d 5b               POP EBX
0x000000000b90002e 5f               POP EDI
0x000000000b90002f 5e               POP ESI
0x000000000b900030 c3               RET
0x000000000b900031 0000             ADD [EAX], AL
0x000000000b900033 40               INC EAX
0x000000000b900034 008000000048     ADD [EAX+0x48000000], AL
0x000000000b90003a 89e9             MOV ECX, EBP
0x000000000b90003c 48               DEC EAX
0x000000000b90003d b8               DB 0xb8
0x000000000b90003e 60               PUSHA
0x000000000b90003f a0               DB 0xa0

Process: MsMpEng.exe Pid: 2400 Address: 0x2230bbe0000
Vad Tag: VadS Protection: PAGE_EXECUTE_READWRITE
Flags: PrivateMemory: 1, Protection: 6

0x000002230bbe0000  56 57 53 55 41 54 41 55 41 56 41 57 48 83 ec 28   VWSUATAUAVAWH..(
0x000002230bbe0010  4c 8d 3c 24 48 8b e9 48 8d b1 98 38 00 00 ff e2   L.<$H..H...8....
0x000002230bbe0020  49 8d 67 28 41 5f 41 5e 41 5d 41 5c 5d 5b 5f 5e   I.g(A_A^A]A\][_^
0x000002230bbe0030  c3 00 00 40 00 80 00 00 00 48 89 e9 48 b8 60 a0   ...@.....H..H.`.

0x000000000bbe0000 56               PUSH ESI
0x000000000bbe0001 57               PUSH EDI
0x000000000bbe0002 53               PUSH EBX
0x000000000bbe0003 55               PUSH EBP
0x000000000bbe0004 41               INC ECX
0x000000000bbe0005 54               PUSH ESP
0x000000000bbe0006 41               INC ECX
0x000000000bbe0007 55               PUSH EBP
0x000000000bbe0008 41               INC ECX
0x000000000bbe0009 56               PUSH ESI
0x000000000bbe000a 41               INC ECX
0x000000000bbe000b 57               PUSH EDI
0x000000000bbe000c 48               DEC EAX
0x000000000bbe000d 83ec28           SUB ESP, 0x28
0x000000000bbe0010 4c               DEC ESP
0x000000000bbe0011 8d3c24           LEA EDI, [ESP]
0x000000000bbe0014 48               DEC EAX
0x000000000bbe0015 8be9             MOV EBP, ECX
0x000000000bbe0017 48               DEC EAX
0x000000000bbe0018 8db198380000     LEA ESI, [ECX+0x3898]
0x000000000bbe001e ffe2             JMP EDX
0x000000000bbe0020 49               DEC ECX
0x000000000bbe0021 8d6728           LEA ESP, [EDI+0x28]
0x000000000bbe0024 41               INC ECX
0x000000000bbe0025 5f               POP EDI
0x000000000bbe0026 41               INC ECX
0x000000000bbe0027 5e               POP ESI
0x000000000bbe0028 41               INC ECX
0x000000000bbe0029 5d               POP EBP
0x000000000bbe002a 41               INC ECX
0x000000000bbe002b 5c               POP ESP
0x000000000bbe002c 5d               POP EBP
0x000000000bbe002d 5b               POP EBX
0x000000000bbe002e 5f               POP EDI
0x000000000bbe002f 5e               POP ESI
0x000000000bbe0030 c3               RET
0x000000000bbe0031 0000             ADD [EAX], AL
0x000000000bbe0033 40               INC EAX
0x000000000bbe0034 008000000048     ADD [EAX+0x48000000], AL
0x000000000bbe003a 89e9             MOV ECX, EBP
0x000000000bbe003c 48               DEC EAX
0x000000000bbe003d b8               DB 0xb8
0x000000000bbe003e 60               PUSHA
0x000000000bbe003f a0               DB 0xa0

Process: MsMpEng.exe Pid: 2400 Address: 0x2230cff0000
Vad Tag: VadS Protection: PAGE_EXECUTE_READWRITE
Flags: PrivateMemory: 1, Protection: 6

0x000002230cff0000  55 48 8d 2c 24 48 83 ec 20 48 8b 01 48 8b 49 08   UH.,$H...H..H.I.
0x000002230cff0010  ff d0 48 8d 65 00 5d c3 cc cc cc cc cc cc cc cc   ..H.e.].........
0x000002230cff0020  cc cc cc cc cc cc cc cc cc cc cc cc cc cc cc cc   ................
0x000002230cff0030  cc cc cc cc cc cc cc cc cc cc cc cc cc cc cc cc   ................

0x000000000cff0000 55               PUSH EBP
0x000000000cff0001 48               DEC EAX
0x000000000cff0002 8d2c24           LEA EBP, [ESP]
0x000000000cff0005 48               DEC EAX
0x000000000cff0006 83ec20           SUB ESP, 0x20
0x000000000cff0009 48               DEC EAX
0x000000000cff000a 8b01             MOV EAX, [ECX]
0x000000000cff000c 48               DEC EAX
0x000000000cff000d 8b4908           MOV ECX, [ECX+0x8]
0x000000000cff0010 ffd0             CALL EAX
0x000000000cff0012 48               DEC EAX
0x000000000cff0013 8d6500           LEA ESP, [EBP+0x0]
0x000000000cff0016 5d               POP EBP
0x000000000cff0017 c3               RET
0x000000000cff0018 cc               INT 3
0x000000000cff0019 cc               INT 3
0x000000000cff001a cc               INT 3
0x000000000cff001b cc               INT 3
0x000000000cff001c cc               INT 3
0x000000000cff001d cc               INT 3
0x000000000cff001e cc               INT 3
0x000000000cff001f cc               INT 3
0x000000000cff0020 cc               INT 3
0x000000000cff0021 cc               INT 3
0x000000000cff0022 cc               INT 3
0x000000000cff0023 cc               INT 3
0x000000000cff0024 cc               INT 3
0x000000000cff0025 cc               INT 3
0x000000000cff0026 cc               INT 3
0x000000000cff0027 cc               INT 3
0x000000000cff0028 cc               INT 3
0x000000000cff0029 cc               INT 3
0x000000000cff002a cc               INT 3
0x000000000cff002b cc               INT 3
0x000000000cff002c cc               INT 3
0x000000000cff002d cc               INT 3
0x000000000cff002e cc               INT 3
0x000000000cff002f cc               INT 3
0x000000000cff0030 cc               INT 3
0x000000000cff0031 cc               INT 3
0x000000000cff0032 cc               INT 3
0x000000000cff0033 cc               INT 3
0x000000000cff0034 cc               INT 3
0x000000000cff0035 cc               INT 3
0x000000000cff0036 cc               INT 3
0x000000000cff0037 cc               INT 3
0x000000000cff0038 cc               INT 3
0x000000000cff0039 cc               INT 3
0x000000000cff003a cc               INT 3
0x000000000cff003b cc               INT 3
0x000000000cff003c cc               INT 3
0x000000000cff003d cc               INT 3
0x000000000cff003e cc               INT 3
0x000000000cff003f cc               INT 3

Process: MsMpEng.exe Pid: 2400 Address: 0x2230cfd0000
Vad Tag: VadS Protection: PAGE_EXECUTE_READWRITE
Flags: PrivateMemory: 1, Protection: 6

0x000002230cfd0000  55 48 8d 2c 24 48 83 ec 20 48 8b 01 48 8b 49 08   UH.,$H...H..H.I.
0x000002230cfd0010  ff d0 48 8d 65 00 5d c3 cc cc cc cc cc cc cc cc   ..H.e.].........
0x000002230cfd0020  cc cc cc cc cc cc cc cc cc cc cc cc cc cc cc cc   ................
0x000002230cfd0030  cc cc cc cc cc cc cc cc cc cc cc cc cc cc cc cc   ................

0x000000000cfd0000 55               PUSH EBP
0x000000000cfd0001 48               DEC EAX
0x000000000cfd0002 8d2c24           LEA EBP, [ESP]
0x000000000cfd0005 48               DEC EAX
0x000000000cfd0006 83ec20           SUB ESP, 0x20
0x000000000cfd0009 48               DEC EAX
0x000000000cfd000a 8b01             MOV EAX, [ECX]
0x000000000cfd000c 48               DEC EAX
0x000000000cfd000d 8b4908           MOV ECX, [ECX+0x8]
0x000000000cfd0010 ffd0             CALL EAX
0x000000000cfd0012 48               DEC EAX
0x000000000cfd0013 8d6500           LEA ESP, [EBP+0x0]
0x000000000cfd0016 5d               POP EBP
0x000000000cfd0017 c3               RET
0x000000000cfd0018 cc               INT 3
0x000000000cfd0019 cc               INT 3
0x000000000cfd001a cc               INT 3
0x000000000cfd001b cc               INT 3
0x000000000cfd001c cc               INT 3
0x000000000cfd001d cc               INT 3
0x000000000cfd001e cc               INT 3
0x000000000cfd001f cc               INT 3
0x000000000cfd0020 cc               INT 3
0x000000000cfd0021 cc               INT 3
0x000000000cfd0022 cc               INT 3
0x000000000cfd0023 cc               INT 3
0x000000000cfd0024 cc               INT 3
0x000000000cfd0025 cc               INT 3
0x000000000cfd0026 cc               INT 3
0x000000000cfd0027 cc               INT 3
0x000000000cfd0028 cc               INT 3
0x000000000cfd0029 cc               INT 3
0x000000000cfd002a cc               INT 3
0x000000000cfd002b cc               INT 3
0x000000000cfd002c cc               INT 3
0x000000000cfd002d cc               INT 3
0x000000000cfd002e cc               INT 3
0x000000000cfd002f cc               INT 3
0x000000000cfd0030 cc               INT 3
0x000000000cfd0031 cc               INT 3
0x000000000cfd0032 cc               INT 3
0x000000000cfd0033 cc               INT 3
0x000000000cfd0034 cc               INT 3
0x000000000cfd0035 cc               INT 3
0x000000000cfd0036 cc               INT 3
0x000000000cfd0037 cc               INT 3
0x000000000cfd0038 cc               INT 3
0x000000000cfd0039 cc               INT 3
0x000000000cfd003a cc               INT 3
0x000000000cfd003b cc               INT 3
0x000000000cfd003c cc               INT 3
0x000000000cfd003d cc               INT 3
0x000000000cfd003e cc               INT 3
0x000000000cfd003f cc               INT 3

Process: MsMpEng.exe Pid: 2400 Address: 0x2230d0b0000
Vad Tag: VadS Protection: PAGE_EXECUTE_READWRITE
Flags: PrivateMemory: 1, Protection: 6

0x000002230d0b0000  55 48 8d 2c 24 48 83 ec 20 48 8b 01 48 8b 49 08   UH.,$H...H..H.I.
0x000002230d0b0010  ff d0 48 8d 65 00 5d c3 cc cc cc cc cc cc cc cc   ..H.e.].........
0x000002230d0b0020  cc cc cc cc cc cc cc cc cc cc cc cc cc cc cc cc   ................
0x000002230d0b0030  cc cc cc cc cc cc cc cc cc cc cc cc cc cc cc cc   ................

0x000000000d0b0000 55               PUSH EBP
0x000000000d0b0001 48               DEC EAX
0x000000000d0b0002 8d2c24           LEA EBP, [ESP]
0x000000000d0b0005 48               DEC EAX
0x000000000d0b0006 83ec20           SUB ESP, 0x20
0x000000000d0b0009 48               DEC EAX
0x000000000d0b000a 8b01             MOV EAX, [ECX]
0x000000000d0b000c 48               DEC EAX
0x000000000d0b000d 8b4908           MOV ECX, [ECX+0x8]
0x000000000d0b0010 ffd0             CALL EAX
0x000000000d0b0012 48               DEC EAX
0x000000000d0b0013 8d6500           LEA ESP, [EBP+0x0]
0x000000000d0b0016 5d               POP EBP
0x000000000d0b0017 c3               RET
0x000000000d0b0018 cc               INT 3
0x000000000d0b0019 cc               INT 3
0x000000000d0b001a cc               INT 3
0x000000000d0b001b cc               INT 3
0x000000000d0b001c cc               INT 3
0x000000000d0b001d cc               INT 3
0x000000000d0b001e cc               INT 3
0x000000000d0b001f cc               INT 3
0x000000000d0b0020 cc               INT 3
0x000000000d0b0021 cc               INT 3
0x000000000d0b0022 cc               INT 3
0x000000000d0b0023 cc               INT 3
0x000000000d0b0024 cc               INT 3
0x000000000d0b0025 cc               INT 3
0x000000000d0b0026 cc               INT 3
0x000000000d0b0027 cc               INT 3
0x000000000d0b0028 cc               INT 3
0x000000000d0b0029 cc               INT 3
0x000000000d0b002a cc               INT 3
0x000000000d0b002b cc               INT 3
0x000000000d0b002c cc               INT 3
0x000000000d0b002d cc               INT 3
0x000000000d0b002e cc               INT 3
0x000000000d0b002f cc               INT 3
0x000000000d0b0030 cc               INT 3
0x000000000d0b0031 cc               INT 3
0x000000000d0b0032 cc               INT 3
0x000000000d0b0033 cc               INT 3
0x000000000d0b0034 cc               INT 3
0x000000000d0b0035 cc               INT 3
0x000000000d0b0036 cc               INT 3
0x000000000d0b0037 cc               INT 3
0x000000000d0b0038 cc               INT 3
0x000000000d0b0039 cc               INT 3
0x000000000d0b003a cc               INT 3
0x000000000d0b003b cc               INT 3
0x000000000d0b003c cc               INT 3
0x000000000d0b003d cc               INT 3
0x000000000d0b003e cc               INT 3
0x000000000d0b003f cc               INT 3

Process: MsMpEng.exe Pid: 2400 Address: 0x2230d0d0000
Vad Tag: VadS Protection: PAGE_EXECUTE_READWRITE
Flags: PrivateMemory: 1, Protection: 6

0x000002230d0d0000  55 48 8d 2c 24 48 83 ec 20 48 8b 01 48 8b 49 08   UH.,$H...H..H.I.
0x000002230d0d0010  ff d0 48 8d 65 00 5d c3 cc cc cc cc cc cc cc cc   ..H.e.].........
0x000002230d0d0020  cc cc cc cc cc cc cc cc cc cc cc cc cc cc cc cc   ................
0x000002230d0d0030  cc cc cc cc cc cc cc cc cc cc cc cc cc cc cc cc   ................

0x000000000d0d0000 55               PUSH EBP
0x000000000d0d0001 48               DEC EAX
0x000000000d0d0002 8d2c24           LEA EBP, [ESP]
0x000000000d0d0005 48               DEC EAX
0x000000000d0d0006 83ec20           SUB ESP, 0x20
0x000000000d0d0009 48               DEC EAX
0x000000000d0d000a 8b01             MOV EAX, [ECX]
0x000000000d0d000c 48               DEC EAX
0x000000000d0d000d 8b4908           MOV ECX, [ECX+0x8]
0x000000000d0d0010 ffd0             CALL EAX
0x000000000d0d0012 48               DEC EAX
0x000000000d0d0013 8d6500           LEA ESP, [EBP+0x0]
0x000000000d0d0016 5d               POP EBP
0x000000000d0d0017 c3               RET
0x000000000d0d0018 cc               INT 3
0x000000000d0d0019 cc               INT 3
0x000000000d0d001a cc               INT 3
0x000000000d0d001b cc               INT 3
0x000000000d0d001c cc               INT 3
0x000000000d0d001d cc               INT 3
0x000000000d0d001e cc               INT 3
0x000000000d0d001f cc               INT 3
0x000000000d0d0020 cc               INT 3
0x000000000d0d0021 cc               INT 3
0x000000000d0d0022 cc               INT 3
0x000000000d0d0023 cc               INT 3
0x000000000d0d0024 cc               INT 3
0x000000000d0d0025 cc               INT 3
0x000000000d0d0026 cc               INT 3
0x000000000d0d0027 cc               INT 3
0x000000000d0d0028 cc               INT 3
0x000000000d0d0029 cc               INT 3
0x000000000d0d002a cc               INT 3
0x000000000d0d002b cc               INT 3
0x000000000d0d002c cc               INT 3
0x000000000d0d002d cc               INT 3
0x000000000d0d002e cc               INT 3
0x000000000d0d002f cc               INT 3
0x000000000d0d0030 cc               INT 3
0x000000000d0d0031 cc               INT 3
0x000000000d0d0032 cc               INT 3
0x000000000d0d0033 cc               INT 3
0x000000000d0d0034 cc               INT 3
0x000000000d0d0035 cc               INT 3
0x000000000d0d0036 cc               INT 3
0x000000000d0d0037 cc               INT 3
0x000000000d0d0038 cc               INT 3
0x000000000d0d0039 cc               INT 3
0x000000000d0d003a cc               INT 3
0x000000000d0d003b cc               INT 3
0x000000000d0d003c cc               INT 3
0x000000000d0d003d cc               INT 3
0x000000000d0d003e cc               INT 3
0x000000000d0d003f cc               INT 3

Process: MsMpEng.exe Pid: 2400 Address: 0x2230d1b0000
Vad Tag: VadS Protection: PAGE_EXECUTE_READWRITE
Flags: PrivateMemory: 1, Protection: 6

0x000002230d1b0000  55 48 8d 2c 24 48 83 ec 20 48 8b 01 48 8b 49 08   UH.,$H...H..H.I.
0x000002230d1b0010  ff d0 48 8d 65 00 5d c3 cc cc cc cc cc cc cc cc   ..H.e.].........
0x000002230d1b0020  cc cc cc cc cc cc cc cc cc cc cc cc cc cc cc cc   ................
0x000002230d1b0030  cc cc cc cc cc cc cc cc cc cc cc cc cc cc cc cc   ................

0x000000000d1b0000 55               PUSH EBP
0x000000000d1b0001 48               DEC EAX
0x000000000d1b0002 8d2c24           LEA EBP, [ESP]
0x000000000d1b0005 48               DEC EAX
0x000000000d1b0006 83ec20           SUB ESP, 0x20
0x000000000d1b0009 48               DEC EAX
0x000000000d1b000a 8b01             MOV EAX, [ECX]
0x000000000d1b000c 48               DEC EAX
0x000000000d1b000d 8b4908           MOV ECX, [ECX+0x8]
0x000000000d1b0010 ffd0             CALL EAX
0x000000000d1b0012 48               DEC EAX
0x000000000d1b0013 8d6500           LEA ESP, [EBP+0x0]
0x000000000d1b0016 5d               POP EBP
0x000000000d1b0017 c3               RET
0x000000000d1b0018 cc               INT 3
0x000000000d1b0019 cc               INT 3
0x000000000d1b001a cc               INT 3
0x000000000d1b001b cc               INT 3
0x000000000d1b001c cc               INT 3
0x000000000d1b001d cc               INT 3
0x000000000d1b001e cc               INT 3
0x000000000d1b001f cc               INT 3
0x000000000d1b0020 cc               INT 3
0x000000000d1b0021 cc               INT 3
0x000000000d1b0022 cc               INT 3
0x000000000d1b0023 cc               INT 3
0x000000000d1b0024 cc               INT 3
0x000000000d1b0025 cc               INT 3
0x000000000d1b0026 cc               INT 3
0x000000000d1b0027 cc               INT 3
0x000000000d1b0028 cc               INT 3
0x000000000d1b0029 cc               INT 3
0x000000000d1b002a cc               INT 3
0x000000000d1b002b cc               INT 3
0x000000000d1b002c cc               INT 3
0x000000000d1b002d cc               INT 3
0x000000000d1b002e cc               INT 3
0x000000000d1b002f cc               INT 3
0x000000000d1b0030 cc               INT 3
0x000000000d1b0031 cc               INT 3
0x000000000d1b0032 cc               INT 3
0x000000000d1b0033 cc               INT 3
0x000000000d1b0034 cc               INT 3
0x000000000d1b0035 cc               INT 3
0x000000000d1b0036 cc               INT 3
0x000000000d1b0037 cc               INT 3
0x000000000d1b0038 cc               INT 3
0x000000000d1b0039 cc               INT 3
0x000000000d1b003a cc               INT 3
0x000000000d1b003b cc               INT 3
0x000000000d1b003c cc               INT 3
0x000000000d1b003d cc               INT 3
0x000000000d1b003e cc               INT 3
0x000000000d1b003f cc               INT 3

Process: MsMpEng.exe Pid: 2400 Address: 0x2230d250000
Vad Tag: VadS Protection: PAGE_EXECUTE_READWRITE
Flags: PrivateMemory: 1, Protection: 6

0x000002230d250000  55 48 8d 2c 24 48 83 ec 20 48 8b 01 48 8b 49 08   UH.,$H...H..H.I.
0x000002230d250010  ff d0 48 8d 65 00 5d c3 cc cc cc cc cc cc cc cc   ..H.e.].........
0x000002230d250020  cc cc cc cc cc cc cc cc cc cc cc cc cc cc cc cc   ................
0x000002230d250030  cc cc cc cc cc cc cc cc cc cc cc cc cc cc cc cc   ................

0x000000000d250000 55               PUSH EBP
0x000000000d250001 48               DEC EAX
0x000000000d250002 8d2c24           LEA EBP, [ESP]
0x000000000d250005 48               DEC EAX
0x000000000d250006 83ec20           SUB ESP, 0x20
0x000000000d250009 48               DEC EAX
0x000000000d25000a 8b01             MOV EAX, [ECX]
0x000000000d25000c 48               DEC EAX
0x000000000d25000d 8b4908           MOV ECX, [ECX+0x8]
0x000000000d250010 ffd0             CALL EAX
0x000000000d250012 48               DEC EAX
0x000000000d250013 8d6500           LEA ESP, [EBP+0x0]
0x000000000d250016 5d               POP EBP
0x000000000d250017 c3               RET
0x000000000d250018 cc               INT 3
0x000000000d250019 cc               INT 3
0x000000000d25001a cc               INT 3
0x000000000d25001b cc               INT 3
0x000000000d25001c cc               INT 3
0x000000000d25001d cc               INT 3
0x000000000d25001e cc               INT 3
0x000000000d25001f cc               INT 3
0x000000000d250020 cc               INT 3
0x000000000d250021 cc               INT 3
0x000000000d250022 cc               INT 3
0x000000000d250023 cc               INT 3
0x000000000d250024 cc               INT 3
0x000000000d250025 cc               INT 3
0x000000000d250026 cc               INT 3
0x000000000d250027 cc               INT 3
0x000000000d250028 cc               INT 3
0x000000000d250029 cc               INT 3
0x000000000d25002a cc               INT 3
0x000000000d25002b cc               INT 3
0x000000000d25002c cc               INT 3
0x000000000d25002d cc               INT 3
0x000000000d25002e cc               INT 3
0x000000000d25002f cc               INT 3
0x000000000d250030 cc               INT 3
0x000000000d250031 cc               INT 3
0x000000000d250032 cc               INT 3
0x000000000d250033 cc               INT 3
0x000000000d250034 cc               INT 3
0x000000000d250035 cc               INT 3
0x000000000d250036 cc               INT 3
0x000000000d250037 cc               INT 3
0x000000000d250038 cc               INT 3
0x000000000d250039 cc               INT 3
0x000000000d25003a cc               INT 3
0x000000000d25003b cc               INT 3
0x000000000d25003c cc               INT 3
0x000000000d25003d cc               INT 3
0x000000000d25003e cc               INT 3
0x000000000d25003f cc               INT 3

Process: MsMpEng.exe Pid: 2400 Address: 0x2230d290000
Vad Tag: VadS Protection: PAGE_EXECUTE_READWRITE
Flags: PrivateMemory: 1, Protection: 6

0x000002230d290000  55 48 8d 2c 24 48 83 ec 20 48 8b 01 48 8b 49 08   UH.,$H...H..H.I.
0x000002230d290010  ff d0 48 8d 65 00 5d c3 cc cc cc cc cc cc cc cc   ..H.e.].........
0x000002230d290020  cc cc cc cc cc cc cc cc cc cc cc cc cc cc cc cc   ................
0x000002230d290030  cc cc cc cc cc cc cc cc cc cc cc cc cc cc cc cc   ................

0x000000000d290000 55               PUSH EBP
0x000000000d290001 48               DEC EAX
0x000000000d290002 8d2c24           LEA EBP, [ESP]
0x000000000d290005 48               DEC EAX
0x000000000d290006 83ec20           SUB ESP, 0x20
0x000000000d290009 48               DEC EAX
0x000000000d29000a 8b01             MOV EAX, [ECX]
0x000000000d29000c 48               DEC EAX
0x000000000d29000d 8b4908           MOV ECX, [ECX+0x8]
0x000000000d290010 ffd0             CALL EAX
0x000000000d290012 48               DEC EAX
0x000000000d290013 8d6500           LEA ESP, [EBP+0x0]
0x000000000d290016 5d               POP EBP
0x000000000d290017 c3               RET
0x000000000d290018 cc               INT 3
0x000000000d290019 cc               INT 3
0x000000000d29001a cc               INT 3
0x000000000d29001b cc               INT 3
0x000000000d29001c cc               INT 3
0x000000000d29001d cc               INT 3
0x000000000d29001e cc               INT 3
0x000000000d29001f cc               INT 3
0x000000000d290020 cc               INT 3
0x000000000d290021 cc               INT 3
0x000000000d290022 cc               INT 3
0x000000000d290023 cc               INT 3
0x000000000d290024 cc               INT 3
0x000000000d290025 cc               INT 3
0x000000000d290026 cc               INT 3
0x000000000d290027 cc               INT 3
0x000000000d290028 cc               INT 3
0x000000000d290029 cc               INT 3
0x000000000d29002a cc               INT 3
0x000000000d29002b cc               INT 3
0x000000000d29002c cc               INT 3
0x000000000d29002d cc               INT 3
0x000000000d29002e cc               INT 3
0x000000000d29002f cc               INT 3
0x000000000d290030 cc               INT 3
0x000000000d290031 cc               INT 3
0x000000000d290032 cc               INT 3
0x000000000d290033 cc               INT 3
0x000000000d290034 cc               INT 3
0x000000000d290035 cc               INT 3
0x000000000d290036 cc               INT 3
0x000000000d290037 cc               INT 3
0x000000000d290038 cc               INT 3
0x000000000d290039 cc               INT 3
0x000000000d29003a cc               INT 3
0x000000000d29003b cc               INT 3
0x000000000d29003c cc               INT 3
0x000000000d29003d cc               INT 3
0x000000000d29003e cc               INT 3
0x000000000d29003f cc               INT 3

Process: MsMpEng.exe Pid: 2400 Address: 0x2230f5f0000
Vad Tag: VadS Protection: PAGE_EXECUTE_READWRITE
Flags: PrivateMemory: 1, Protection: 6

0x000002230f5f0000  55 48 8d 2c 24 48 83 ec 20 48 8b 01 48 8b 49 08   UH.,$H...H..H.I.
0x000002230f5f0010  ff d0 48 8d 65 00 5d c3 cc cc cc cc cc cc cc cc   ..H.e.].........
0x000002230f5f0020  cc cc cc cc cc cc cc cc cc cc cc cc cc cc cc cc   ................
0x000002230f5f0030  cc cc cc cc cc cc cc cc cc cc cc cc cc cc cc cc   ................

0x000000000f5f0000 55               PUSH EBP
0x000000000f5f0001 48               DEC EAX
0x000000000f5f0002 8d2c24           LEA EBP, [ESP]
0x000000000f5f0005 48               DEC EAX
0x000000000f5f0006 83ec20           SUB ESP, 0x20
0x000000000f5f0009 48               DEC EAX
0x000000000f5f000a 8b01             MOV EAX, [ECX]
0x000000000f5f000c 48               DEC EAX
0x000000000f5f000d 8b4908           MOV ECX, [ECX+0x8]
0x000000000f5f0010 ffd0             CALL EAX
0x000000000f5f0012 48               DEC EAX
0x000000000f5f0013 8d6500           LEA ESP, [EBP+0x0]
0x000000000f5f0016 5d               POP EBP
0x000000000f5f0017 c3               RET
0x000000000f5f0018 cc               INT 3
0x000000000f5f0019 cc               INT 3
0x000000000f5f001a cc               INT 3
0x000000000f5f001b cc               INT 3
0x000000000f5f001c cc               INT 3
0x000000000f5f001d cc               INT 3
0x000000000f5f001e cc               INT 3
0x000000000f5f001f cc               INT 3
0x000000000f5f0020 cc               INT 3
0x000000000f5f0021 cc               INT 3
0x000000000f5f0022 cc               INT 3
0x000000000f5f0023 cc               INT 3
0x000000000f5f0024 cc               INT 3
0x000000000f5f0025 cc               INT 3
0x000000000f5f0026 cc               INT 3
0x000000000f5f0027 cc               INT 3
0x000000000f5f0028 cc               INT 3
0x000000000f5f0029 cc               INT 3
0x000000000f5f002a cc               INT 3
0x000000000f5f002b cc               INT 3
0x000000000f5f002c cc               INT 3
0x000000000f5f002d cc               INT 3
0x000000000f5f002e cc               INT 3
0x000000000f5f002f cc               INT 3
0x000000000f5f0030 cc               INT 3
0x000000000f5f0031 cc               INT 3
0x000000000f5f0032 cc               INT 3
0x000000000f5f0033 cc               INT 3
0x000000000f5f0034 cc               INT 3
0x000000000f5f0035 cc               INT 3
0x000000000f5f0036 cc               INT 3
0x000000000f5f0037 cc               INT 3
0x000000000f5f0038 cc               INT 3
0x000000000f5f0039 cc               INT 3
0x000000000f5f003a cc               INT 3
0x000000000f5f003b cc               INT 3
0x000000000f5f003c cc               INT 3
0x000000000f5f003d cc               INT 3
0x000000000f5f003e cc               INT 3
0x000000000f5f003f cc               INT 3

Process: MsMpEng.exe Pid: 2400 Address: 0x22313030000
Vad Tag: VadS Protection: PAGE_EXECUTE_READWRITE
Flags: PrivateMemory: 1, Protection: 6

0x0000022313030000  cc cc cc cc cc cc cc cc cc cc cc cc cc cc cc cc   ................
0x0000022313030010  cc cc cc cc cc cc cc cc cc cc cc cc cc cc cc cc   ................
0x0000022313030020  cc cc cc cc cc cc cc cc cc cc cc cc cc cc cc cc   ................
0x0000022313030030  cc 08 00 42 00 00 00 00 05 48 8b 45 20 48 89 c2   ...B.....H.E.H..

0x0000000013030000 cc               INT 3
0x0000000013030001 cc               INT 3
0x0000000013030002 cc               INT 3
0x0000000013030003 cc               INT 3
0x0000000013030004 cc               INT 3
0x0000000013030005 cc               INT 3
0x0000000013030006 cc               INT 3
0x0000000013030007 cc               INT 3
0x0000000013030008 cc               INT 3
0x0000000013030009 cc               INT 3
0x000000001303000a cc               INT 3
0x000000001303000b cc               INT 3
0x000000001303000c cc               INT 3
0x000000001303000d cc               INT 3
0x000000001303000e cc               INT 3
0x000000001303000f cc               INT 3
0x0000000013030010 cc               INT 3
0x0000000013030011 cc               INT 3
0x0000000013030012 cc               INT 3
0x0000000013030013 cc               INT 3
0x0000000013030014 cc               INT 3
0x0000000013030015 cc               INT 3
0x0000000013030016 cc               INT 3
0x0000000013030017 cc               INT 3
0x0000000013030018 cc               INT 3
0x0000000013030019 cc               INT 3
0x000000001303001a cc               INT 3
0x000000001303001b cc               INT 3
0x000000001303001c cc               INT 3
0x000000001303001d cc               INT 3
0x000000001303001e cc               INT 3
0x000000001303001f cc               INT 3
0x0000000013030020 cc               INT 3
0x0000000013030021 cc               INT 3
0x0000000013030022 cc               INT 3
0x0000000013030023 cc               INT 3
0x0000000013030024 cc               INT 3
0x0000000013030025 cc               INT 3
0x0000000013030026 cc               INT 3
0x0000000013030027 cc               INT 3
0x0000000013030028 cc               INT 3
0x0000000013030029 cc               INT 3
0x000000001303002a cc               INT 3
0x000000001303002b cc               INT 3
0x000000001303002c cc               INT 3
0x000000001303002d cc               INT 3
0x000000001303002e cc               INT 3
0x000000001303002f cc               INT 3
0x0000000013030030 cc               INT 3
0x0000000013030031 0800             OR [EAX], AL
0x0000000013030033 42               INC EDX
0x0000000013030034 0000             ADD [EAX], AL
0x0000000013030036 0000             ADD [EAX], AL
0x0000000013030038 05488b4520       ADD EAX, 0x20458b48
0x000000001303003d 48               DEC EAX
0x000000001303003e 89c2             MOV EDX, EAX

Process: MsMpEng.exe Pid: 2400 Address: 0x22314950000
Vad Tag: VadS Protection: PAGE_EXECUTE_READWRITE
Flags: PrivateMemory: 1, Protection: 6

0x0000022314950000  cc cc cc cc cc cc cc cc cc cc cc cc cc cc cc cc   ................
0x0000022314950010  cc cc cc cc cc cc cc cc cc cc cc cc cc cc cc cc   ................
0x0000022314950020  cc cc cc cc cc cc cc cc cc cc cc cc cc cc cc cc   ................
0x0000022314950030  cc 0c 00 4e 00 0c 00 01 05 48 8b 55 28 48 8b 8d   ...N.....H.U(H..

0x0000000014950000 cc               INT 3
0x0000000014950001 cc               INT 3
0x0000000014950002 cc               INT 3
0x0000000014950003 cc               INT 3
0x0000000014950004 cc               INT 3
0x0000000014950005 cc               INT 3
0x0000000014950006 cc               INT 3
0x0000000014950007 cc               INT 3
0x0000000014950008 cc               INT 3
0x0000000014950009 cc               INT 3
0x000000001495000a cc               INT 3
0x000000001495000b cc               INT 3
0x000000001495000c cc               INT 3
0x000000001495000d cc               INT 3
0x000000001495000e cc               INT 3
0x000000001495000f cc               INT 3
0x0000000014950010 cc               INT 3
0x0000000014950011 cc               INT 3
0x0000000014950012 cc               INT 3
0x0000000014950013 cc               INT 3
0x0000000014950014 cc               INT 3
0x0000000014950015 cc               INT 3
0x0000000014950016 cc               INT 3
0x0000000014950017 cc               INT 3
0x0000000014950018 cc               INT 3
0x0000000014950019 cc               INT 3
0x000000001495001a cc               INT 3
0x000000001495001b cc               INT 3
0x000000001495001c cc               INT 3
0x000000001495001d cc               INT 3
0x000000001495001e cc               INT 3
0x000000001495001f cc               INT 3
0x0000000014950020 cc               INT 3
0x0000000014950021 cc               INT 3
0x0000000014950022 cc               INT 3
0x0000000014950023 cc               INT 3
0x0000000014950024 cc               INT 3
0x0000000014950025 cc               INT 3
0x0000000014950026 cc               INT 3
0x0000000014950027 cc               INT 3
0x0000000014950028 cc               INT 3
0x0000000014950029 cc               INT 3
0x000000001495002a cc               INT 3
0x000000001495002b cc               INT 3
0x000000001495002c cc               INT 3
0x000000001495002d cc               INT 3
0x000000001495002e cc               INT 3
0x000000001495002f cc               INT 3
0x0000000014950030 cc               INT 3
0x0000000014950031 0c00             OR AL, 0x0
0x0000000014950033 4e               DEC ESI
0x0000000014950034 000c00           ADD [EAX+EAX], CL
0x0000000014950037 0105488b5528     ADD [0x28558b48], EAX
0x000000001495003d 48               DEC EAX
0x000000001495003e 8b               DB 0x8b
0x000000001495003f 8d               DB 0x8d

Process: MsMpEng.exe Pid: 2400 Address: 0x22314b50000
Vad Tag: VadS Protection: PAGE_EXECUTE_READWRITE
Flags: PrivateMemory: 1, Protection: 6

0x0000022314b50000  56 57 53 55 41 54 41 55 41 56 41 57 48 83 ec 28   VWSUATAUAVAWH..(
0x0000022314b50010  4c 8d 3c 24 48 8b e9 48 8d b1 98 38 00 00 ff e2   L.<$H..H...8....
0x0000022314b50020  49 8d 67 28 41 5f 41 5e 41 5d 41 5c 5d 5b 5f 5e   I.g(A_A^A]A\][_^
0x0000022314b50030  c3 00 00 40 00 80 00 00 00 48 89 e9 48 b8 60 a0   ...@.....H..H.`.

0x0000000014b50000 56               PUSH ESI
0x0000000014b50001 57               PUSH EDI
0x0000000014b50002 53               PUSH EBX
0x0000000014b50003 55               PUSH EBP
0x0000000014b50004 41               INC ECX
0x0000000014b50005 54               PUSH ESP
0x0000000014b50006 41               INC ECX
0x0000000014b50007 55               PUSH EBP
0x0000000014b50008 41               INC ECX
0x0000000014b50009 56               PUSH ESI
0x0000000014b5000a 41               INC ECX
0x0000000014b5000b 57               PUSH EDI
0x0000000014b5000c 48               DEC EAX
0x0000000014b5000d 83ec28           SUB ESP, 0x28
0x0000000014b50010 4c               DEC ESP
0x0000000014b50011 8d3c24           LEA EDI, [ESP]
0x0000000014b50014 48               DEC EAX
0x0000000014b50015 8be9             MOV EBP, ECX
0x0000000014b50017 48               DEC EAX
0x0000000014b50018 8db198380000     LEA ESI, [ECX+0x3898]
0x0000000014b5001e ffe2             JMP EDX
0x0000000014b50020 49               DEC ECX
0x0000000014b50021 8d6728           LEA ESP, [EDI+0x28]
0x0000000014b50024 41               INC ECX
0x0000000014b50025 5f               POP EDI
0x0000000014b50026 41               INC ECX
0x0000000014b50027 5e               POP ESI
0x0000000014b50028 41               INC ECX
0x0000000014b50029 5d               POP EBP
0x0000000014b5002a 41               INC ECX
0x0000000014b5002b 5c               POP ESP
0x0000000014b5002c 5d               POP EBP
0x0000000014b5002d 5b               POP EBX
0x0000000014b5002e 5f               POP EDI
0x0000000014b5002f 5e               POP ESI
0x0000000014b50030 c3               RET
0x0000000014b50031 0000             ADD [EAX], AL
0x0000000014b50033 40               INC EAX
0x0000000014b50034 008000000048     ADD [EAX+0x48000000], AL
0x0000000014b5003a 89e9             MOV ECX, EBP
0x0000000014b5003c 48               DEC EAX
0x0000000014b5003d b8               DB 0xb8
0x0000000014b5003e 60               PUSHA
0x0000000014b5003f a0               DB 0xa0

Process: MsMpEng.exe Pid: 2400 Address: 0x2231a280000
Vad Tag: VadS Protection: PAGE_EXECUTE_READWRITE
Flags: PrivateMemory: 1, Protection: 6

0x000002231a280000  56 57 53 55 41 54 41 55 41 56 41 57 48 83 ec 28   VWSUATAUAVAWH..(
0x000002231a280010  4c 8d 3c 24 48 8b e9 48 8d b1 98 38 00 00 ff e2   L.<$H..H...8....
0x000002231a280020  49 8d 67 28 41 5f 41 5e 41 5d 41 5c 5d 5b 5f 5e   I.g(A_A^A]A\][_^
0x000002231a280030  c3 00 00 40 00 80 00 00 00 48 89 e9 48 b8 60 a0   ...@.....H..H.`.

0x000000001a280000 56               PUSH ESI
0x000000001a280001 57               PUSH EDI
0x000000001a280002 53               PUSH EBX
0x000000001a280003 55               PUSH EBP
0x000000001a280004 41               INC ECX
0x000000001a280005 54               PUSH ESP
0x000000001a280006 41               INC ECX
0x000000001a280007 55               PUSH EBP
0x000000001a280008 41               INC ECX
0x000000001a280009 56               PUSH ESI
0x000000001a28000a 41               INC ECX
0x000000001a28000b 57               PUSH EDI
0x000000001a28000c 48               DEC EAX
0x000000001a28000d 83ec28           SUB ESP, 0x28
0x000000001a280010 4c               DEC ESP
0x000000001a280011 8d3c24           LEA EDI, [ESP]
0x000000001a280014 48               DEC EAX
0x000000001a280015 8be9             MOV EBP, ECX
0x000000001a280017 48               DEC EAX
0x000000001a280018 8db198380000     LEA ESI, [ECX+0x3898]
0x000000001a28001e ffe2             JMP EDX
0x000000001a280020 49               DEC ECX
0x000000001a280021 8d6728           LEA ESP, [EDI+0x28]
0x000000001a280024 41               INC ECX
0x000000001a280025 5f               POP EDI
0x000000001a280026 41               INC ECX
0x000000001a280027 5e               POP ESI
0x000000001a280028 41               INC ECX
0x000000001a280029 5d               POP EBP
0x000000001a28002a 41               INC ECX
0x000000001a28002b 5c               POP ESP
0x000000001a28002c 5d               POP EBP
0x000000001a28002d 5b               POP EBX
0x000000001a28002e 5f               POP EDI
0x000000001a28002f 5e               POP ESI
0x000000001a280030 c3               RET
0x000000001a280031 0000             ADD [EAX], AL
0x000000001a280033 40               INC EAX
0x000000001a280034 008000000048     ADD [EAX+0x48000000], AL
0x000000001a28003a 89e9             MOV ECX, EBP
0x000000001a28003c 48               DEC EAX
0x000000001a28003d b8               DB 0xb8
0x000000001a28003e 60               PUSHA
0x000000001a28003f a0               DB 0xa0

Process: smartscreen.ex Pid: 4700 Address: 0x1e4dcaf0000
Vad Tag: VadS Protection: PAGE_EXECUTE_READWRITE
Flags: PrivateMemory: 1, Protection: 6

0x000001e4dcaf0000  48 89 54 24 10 48 89 4c 24 08 4c 89 44 24 18 4c   H.T$.H.L$.L.D$.L
0x000001e4dcaf0010  89 4c 24 20 48 8b 41 28 48 8b 48 08 48 8b 51 50   .L$.H.A(H.H.H.QP
0x000001e4dcaf0020  48 83 e2 f8 48 8b ca 48 b8 60 00 af dc e4 01 00   H...H..H.`......
0x000001e4dcaf0030  00 48 2b c8 48 81 f9 70 0f 00 00 76 09 48 c7 c1   .H+.H..p...v.H..

0x00000000dcaf0000 48               DEC EAX
0x00000000dcaf0001 89542410         MOV [ESP+0x10], EDX
0x00000000dcaf0005 48               DEC EAX
0x00000000dcaf0006 894c2408         MOV [ESP+0x8], ECX
0x00000000dcaf000a 4c               DEC ESP
0x00000000dcaf000b 89442418         MOV [ESP+0x18], EAX
0x00000000dcaf000f 4c               DEC ESP
0x00000000dcaf0010 894c2420         MOV [ESP+0x20], ECX
0x00000000dcaf0014 48               DEC EAX
0x00000000dcaf0015 8b4128           MOV EAX, [ECX+0x28]
0x00000000dcaf0018 48               DEC EAX
0x00000000dcaf0019 8b4808           MOV ECX, [EAX+0x8]
0x00000000dcaf001c 48               DEC EAX
0x00000000dcaf001d 8b5150           MOV EDX, [ECX+0x50]
0x00000000dcaf0020 48               DEC EAX
0x00000000dcaf0021 83e2f8           AND EDX, -0x8
0x00000000dcaf0024 48               DEC EAX
0x00000000dcaf0025 8bca             MOV ECX, EDX
0x00000000dcaf0027 48               DEC EAX
0x00000000dcaf0028 b86000afdc       MOV EAX, 0xdcaf0060
0x00000000dcaf002d e401             IN AL, 0x1
0x00000000dcaf002f 0000             ADD [EAX], AL
0x00000000dcaf0031 48               DEC EAX
0x00000000dcaf0032 2bc8             SUB ECX, EAX
0x00000000dcaf0034 48               DEC EAX
0x00000000dcaf0035 81f9700f0000     CMP ECX, 0xf70
0x00000000dcaf003b 7609             JBE 0xdcaf0046
0x00000000dcaf003d 48               DEC EAX
0x00000000dcaf003e c7               DB 0xc7
0x00000000dcaf003f c1               DB 0xc1

Process: OneDrive.exe Pid: 5540 Address: 0x7e20000
Vad Tag: VadS Protection: PAGE_EXECUTE_READWRITE
Flags: PrivateMemory: 1, Protection: 6

0x0000000007e20000  00 00 00 00 00 00 00 00 00 00 00 00 00 00 00 00   ................
0x0000000007e20010  f8 ff 00 00 00 00 00 00 00 00 00 00 00 00 00 00   ................
0x0000000007e20020  00 00 00 00 00 00 00 00 00 00 00 00 00 00 00 00   ................
0x0000000007e20030  00 00 00 00 00 00 00 00 00 00 00 00 00 00 00 00   ................

0x0000000007e20000 0000             ADD [EAX], AL
0x0000000007e20002 0000             ADD [EAX], AL
0x0000000007e20004 0000             ADD [EAX], AL
0x0000000007e20006 0000             ADD [EAX], AL
0x0000000007e20008 0000             ADD [EAX], AL
0x0000000007e2000a 0000             ADD [EAX], AL
0x0000000007e2000c 0000             ADD [EAX], AL
0x0000000007e2000e 0000             ADD [EAX], AL
0x0000000007e20010 f8               CLC
0x0000000007e20011 ff00             INC DWORD [EAX]
0x0000000007e20013 0000             ADD [EAX], AL
0x0000000007e20015 0000             ADD [EAX], AL
0x0000000007e20017 0000             ADD [EAX], AL
0x0000000007e20019 0000             ADD [EAX], AL
0x0000000007e2001b 0000             ADD [EAX], AL
0x0000000007e2001d 0000             ADD [EAX], AL
0x0000000007e2001f 0000             ADD [EAX], AL
0x0000000007e20021 0000             ADD [EAX], AL
0x0000000007e20023 0000             ADD [EAX], AL
0x0000000007e20025 0000             ADD [EAX], AL
0x0000000007e20027 0000             ADD [EAX], AL
0x0000000007e20029 0000             ADD [EAX], AL
0x0000000007e2002b 0000             ADD [EAX], AL
0x0000000007e2002d 0000             ADD [EAX], AL
0x0000000007e2002f 0000             ADD [EAX], AL
0x0000000007e20031 0000             ADD [EAX], AL
0x0000000007e20033 0000             ADD [EAX], AL
0x0000000007e20035 0000             ADD [EAX], AL
0x0000000007e20037 0000             ADD [EAX], AL
0x0000000007e20039 0000             ADD [EAX], AL
0x0000000007e2003b 0000             ADD [EAX], AL
0x0000000007e2003d 0000             ADD [EAX], AL
0x0000000007e2003f 00               DB 0x0

