Process: MsMpEng.exe Pid: 2456 Address: 0x18e82d90000
Vad Tag: VadS Protection: PAGE_EXECUTE_READWRITE
Flags: PrivateMemory: 1, Protection: 6

0x0000018e82d90000  55 48 8d 2c 24 48 83 ec 20 48 8b 01 48 8b 49 08   UH.,$H...H..H.I.
0x0000018e82d90010  ff d0 48 8d 65 00 5d c3 cc cc cc cc cc cc cc cc   ..H.e.].........
0x0000018e82d90020  cc cc cc cc cc cc cc cc cc cc cc cc cc cc cc cc   ................
0x0000018e82d90030  cc cc cc cc cc cc cc cc cc cc cc cc cc cc cc cc   ................

0x0000000082d90000 55               PUSH EBP
0x0000000082d90001 48               DEC EAX
0x0000000082d90002 8d2c24           LEA EBP, [ESP]
0x0000000082d90005 48               DEC EAX
0x0000000082d90006 83ec20           SUB ESP, 0x20
0x0000000082d90009 48               DEC EAX
0x0000000082d9000a 8b01             MOV EAX, [ECX]
0x0000000082d9000c 48               DEC EAX
0x0000000082d9000d 8b4908           MOV ECX, [ECX+0x8]
0x0000000082d90010 ffd0             CALL EAX
0x0000000082d90012 48               DEC EAX
0x0000000082d90013 8d6500           LEA ESP, [EBP+0x0]
0x0000000082d90016 5d               POP EBP
0x0000000082d90017 c3               RET
0x0000000082d90018 cc               INT 3
0x0000000082d90019 cc               INT 3
0x0000000082d9001a cc               INT 3
0x0000000082d9001b cc               INT 3
0x0000000082d9001c cc               INT 3
0x0000000082d9001d cc               INT 3
0x0000000082d9001e cc               INT 3
0x0000000082d9001f cc               INT 3
0x0000000082d90020 cc               INT 3
0x0000000082d90021 cc               INT 3
0x0000000082d90022 cc               INT 3
0x0000000082d90023 cc               INT 3
0x0000000082d90024 cc               INT 3
0x0000000082d90025 cc               INT 3
0x0000000082d90026 cc               INT 3
0x0000000082d90027 cc               INT 3
0x0000000082d90028 cc               INT 3
0x0000000082d90029 cc               INT 3
0x0000000082d9002a cc               INT 3
0x0000000082d9002b cc               INT 3
0x0000000082d9002c cc               INT 3
0x0000000082d9002d cc               INT 3
0x0000000082d9002e cc               INT 3
0x0000000082d9002f cc               INT 3
0x0000000082d90030 cc               INT 3
0x0000000082d90031 cc               INT 3
0x0000000082d90032 cc               INT 3
0x0000000082d90033 cc               INT 3
0x0000000082d90034 cc               INT 3
0x0000000082d90035 cc               INT 3
0x0000000082d90036 cc               INT 3
0x0000000082d90037 cc               INT 3
0x0000000082d90038 cc               INT 3
0x0000000082d90039 cc               INT 3
0x0000000082d9003a cc               INT 3
0x0000000082d9003b cc               INT 3
0x0000000082d9003c cc               INT 3
0x0000000082d9003d cc               INT 3
0x0000000082d9003e cc               INT 3
0x0000000082d9003f cc               INT 3

Process: MsMpEng.exe Pid: 2456 Address: 0x18e82db0000
Vad Tag: VadS Protection: PAGE_EXECUTE_READWRITE
Flags: PrivateMemory: 1, Protection: 6

0x0000018e82db0000  55 48 8d 2c 24 48 83 ec 20 48 8b 01 48 8b 49 08   UH.,$H...H..H.I.
0x0000018e82db0010  ff d0 48 8d 65 00 5d c3 cc cc cc cc cc cc cc cc   ..H.e.].........
0x0000018e82db0020  cc cc cc cc cc cc cc cc cc cc cc cc cc cc cc cc   ................
0x0000018e82db0030  cc cc cc cc cc cc cc cc cc cc cc cc cc cc cc cc   ................

0x0000000082db0000 55               PUSH EBP
0x0000000082db0001 48               DEC EAX
0x0000000082db0002 8d2c24           LEA EBP, [ESP]
0x0000000082db0005 48               DEC EAX
0x0000000082db0006 83ec20           SUB ESP, 0x20
0x0000000082db0009 48               DEC EAX
0x0000000082db000a 8b01             MOV EAX, [ECX]
0x0000000082db000c 48               DEC EAX
0x0000000082db000d 8b4908           MOV ECX, [ECX+0x8]
0x0000000082db0010 ffd0             CALL EAX
0x0000000082db0012 48               DEC EAX
0x0000000082db0013 8d6500           LEA ESP, [EBP+0x0]
0x0000000082db0016 5d               POP EBP
0x0000000082db0017 c3               RET
0x0000000082db0018 cc               INT 3
0x0000000082db0019 cc               INT 3
0x0000000082db001a cc               INT 3
0x0000000082db001b cc               INT 3
0x0000000082db001c cc               INT 3
0x0000000082db001d cc               INT 3
0x0000000082db001e cc               INT 3
0x0000000082db001f cc               INT 3
0x0000000082db0020 cc               INT 3
0x0000000082db0021 cc               INT 3
0x0000000082db0022 cc               INT 3
0x0000000082db0023 cc               INT 3
0x0000000082db0024 cc               INT 3
0x0000000082db0025 cc               INT 3
0x0000000082db0026 cc               INT 3
0x0000000082db0027 cc               INT 3
0x0000000082db0028 cc               INT 3
0x0000000082db0029 cc               INT 3
0x0000000082db002a cc               INT 3
0x0000000082db002b cc               INT 3
0x0000000082db002c cc               INT 3
0x0000000082db002d cc               INT 3
0x0000000082db002e cc               INT 3
0x0000000082db002f cc               INT 3
0x0000000082db0030 cc               INT 3
0x0000000082db0031 cc               INT 3
0x0000000082db0032 cc               INT 3
0x0000000082db0033 cc               INT 3
0x0000000082db0034 cc               INT 3
0x0000000082db0035 cc               INT 3
0x0000000082db0036 cc               INT 3
0x0000000082db0037 cc               INT 3
0x0000000082db0038 cc               INT 3
0x0000000082db0039 cc               INT 3
0x0000000082db003a cc               INT 3
0x0000000082db003b cc               INT 3
0x0000000082db003c cc               INT 3
0x0000000082db003d cc               INT 3
0x0000000082db003e cc               INT 3
0x0000000082db003f cc               INT 3

Process: MsMpEng.exe Pid: 2456 Address: 0x18e88330000
Vad Tag: VadS Protection: PAGE_EXECUTE_READWRITE
Flags: PrivateMemory: 1, Protection: 6

0x0000018e88330000  cc cc cc cc cc cc cc cc cc cc cc cc cc cc cc cc   ................
0x0000018e88330010  cc cc cc cc cc cc cc cc cc cc cc cc cc cc cc cc   ................
0x0000018e88330020  cc cc cc cc cc cc cc cc cc cc cc cc cc cc cc cc   ................
0x0000018e88330030  cc 0c 00 4e 00 0c 00 01 05 48 8b 55 28 48 8b 8d   ...N.....H.U(H..

0x0000000088330000 cc               INT 3
0x0000000088330001 cc               INT 3
0x0000000088330002 cc               INT 3
0x0000000088330003 cc               INT 3
0x0000000088330004 cc               INT 3
0x0000000088330005 cc               INT 3
0x0000000088330006 cc               INT 3
0x0000000088330007 cc               INT 3
0x0000000088330008 cc               INT 3
0x0000000088330009 cc               INT 3
0x000000008833000a cc               INT 3
0x000000008833000b cc               INT 3
0x000000008833000c cc               INT 3
0x000000008833000d cc               INT 3
0x000000008833000e cc               INT 3
0x000000008833000f cc               INT 3
0x0000000088330010 cc               INT 3
0x0000000088330011 cc               INT 3
0x0000000088330012 cc               INT 3
0x0000000088330013 cc               INT 3
0x0000000088330014 cc               INT 3
0x0000000088330015 cc               INT 3
0x0000000088330016 cc               INT 3
0x0000000088330017 cc               INT 3
0x0000000088330018 cc               INT 3
0x0000000088330019 cc               INT 3
0x000000008833001a cc               INT 3
0x000000008833001b cc               INT 3
0x000000008833001c cc               INT 3
0x000000008833001d cc               INT 3
0x000000008833001e cc               INT 3
0x000000008833001f cc               INT 3
0x0000000088330020 cc               INT 3
0x0000000088330021 cc               INT 3
0x0000000088330022 cc               INT 3
0x0000000088330023 cc               INT 3
0x0000000088330024 cc               INT 3
0x0000000088330025 cc               INT 3
0x0000000088330026 cc               INT 3
0x0000000088330027 cc               INT 3
0x0000000088330028 cc               INT 3
0x0000000088330029 cc               INT 3
0x000000008833002a cc               INT 3
0x000000008833002b cc               INT 3
0x000000008833002c cc               INT 3
0x000000008833002d cc               INT 3
0x000000008833002e cc               INT 3
0x000000008833002f cc               INT 3
0x0000000088330030 cc               INT 3
0x0000000088330031 0c00             OR AL, 0x0
0x0000000088330033 4e               DEC ESI
0x0000000088330034 000c00           ADD [EAX+EAX], CL
0x0000000088330037 0105488b5528     ADD [0x28558b48], EAX
0x000000008833003d 48               DEC EAX
0x000000008833003e 8b               DB 0x8b
0x000000008833003f 8d               DB 0x8d

Process: MsMpEng.exe Pid: 2456 Address: 0x18e82de0000
Vad Tag: VadS Protection: PAGE_EXECUTE_READWRITE
Flags: PrivateMemory: 1, Protection: 6

0x0000018e82de0000  55 48 8d 2c 24 48 83 ec 20 48 8b 01 48 8b 49 08   UH.,$H...H..H.I.
0x0000018e82de0010  ff d0 48 8d 65 00 5d c3 cc cc cc cc cc cc cc cc   ..H.e.].........
0x0000018e82de0020  cc cc cc cc cc cc cc cc cc cc cc cc cc cc cc cc   ................
0x0000018e82de0030  cc cc cc cc cc cc cc cc cc cc cc cc cc cc cc cc   ................

0x0000000082de0000 55               PUSH EBP
0x0000000082de0001 48               DEC EAX
0x0000000082de0002 8d2c24           LEA EBP, [ESP]
0x0000000082de0005 48               DEC EAX
0x0000000082de0006 83ec20           SUB ESP, 0x20
0x0000000082de0009 48               DEC EAX
0x0000000082de000a 8b01             MOV EAX, [ECX]
0x0000000082de000c 48               DEC EAX
0x0000000082de000d 8b4908           MOV ECX, [ECX+0x8]
0x0000000082de0010 ffd0             CALL EAX
0x0000000082de0012 48               DEC EAX
0x0000000082de0013 8d6500           LEA ESP, [EBP+0x0]
0x0000000082de0016 5d               POP EBP
0x0000000082de0017 c3               RET
0x0000000082de0018 cc               INT 3
0x0000000082de0019 cc               INT 3
0x0000000082de001a cc               INT 3
0x0000000082de001b cc               INT 3
0x0000000082de001c cc               INT 3
0x0000000082de001d cc               INT 3
0x0000000082de001e cc               INT 3
0x0000000082de001f cc               INT 3
0x0000000082de0020 cc               INT 3
0x0000000082de0021 cc               INT 3
0x0000000082de0022 cc               INT 3
0x0000000082de0023 cc               INT 3
0x0000000082de0024 cc               INT 3
0x0000000082de0025 cc               INT 3
0x0000000082de0026 cc               INT 3
0x0000000082de0027 cc               INT 3
0x0000000082de0028 cc               INT 3
0x0000000082de0029 cc               INT 3
0x0000000082de002a cc               INT 3
0x0000000082de002b cc               INT 3
0x0000000082de002c cc               INT 3
0x0000000082de002d cc               INT 3
0x0000000082de002e cc               INT 3
0x0000000082de002f cc               INT 3
0x0000000082de0030 cc               INT 3
0x0000000082de0031 cc               INT 3
0x0000000082de0032 cc               INT 3
0x0000000082de0033 cc               INT 3
0x0000000082de0034 cc               INT 3
0x0000000082de0035 cc               INT 3
0x0000000082de0036 cc               INT 3
0x0000000082de0037 cc               INT 3
0x0000000082de0038 cc               INT 3
0x0000000082de0039 cc               INT 3
0x0000000082de003a cc               INT 3
0x0000000082de003b cc               INT 3
0x0000000082de003c cc               INT 3
0x0000000082de003d cc               INT 3
0x0000000082de003e cc               INT 3
0x0000000082de003f cc               INT 3

Process: MsMpEng.exe Pid: 2456 Address: 0x18e82e90000
Vad Tag: VadS Protection: PAGE_EXECUTE_READWRITE
Flags: PrivateMemory: 1, Protection: 6

0x0000018e82e90000  55 48 8d 2c 24 48 83 ec 20 48 8b 01 48 8b 49 08   UH.,$H...H..H.I.
0x0000018e82e90010  ff d0 48 8d 65 00 5d c3 cc cc cc cc cc cc cc cc   ..H.e.].........
0x0000018e82e90020  cc cc cc cc cc cc cc cc cc cc cc cc cc cc cc cc   ................
0x0000018e82e90030  cc cc cc cc cc cc cc cc cc cc cc cc cc cc cc cc   ................

0x0000000082e90000 55               PUSH EBP
0x0000000082e90001 48               DEC EAX
0x0000000082e90002 8d2c24           LEA EBP, [ESP]
0x0000000082e90005 48               DEC EAX
0x0000000082e90006 83ec20           SUB ESP, 0x20
0x0000000082e90009 48               DEC EAX
0x0000000082e9000a 8b01             MOV EAX, [ECX]
0x0000000082e9000c 48               DEC EAX
0x0000000082e9000d 8b4908           MOV ECX, [ECX+0x8]
0x0000000082e90010 ffd0             CALL EAX
0x0000000082e90012 48               DEC EAX
0x0000000082e90013 8d6500           LEA ESP, [EBP+0x0]
0x0000000082e90016 5d               POP EBP
0x0000000082e90017 c3               RET
0x0000000082e90018 cc               INT 3
0x0000000082e90019 cc               INT 3
0x0000000082e9001a cc               INT 3
0x0000000082e9001b cc               INT 3
0x0000000082e9001c cc               INT 3
0x0000000082e9001d cc               INT 3
0x0000000082e9001e cc               INT 3
0x0000000082e9001f cc               INT 3
0x0000000082e90020 cc               INT 3
0x0000000082e90021 cc               INT 3
0x0000000082e90022 cc               INT 3
0x0000000082e90023 cc               INT 3
0x0000000082e90024 cc               INT 3
0x0000000082e90025 cc               INT 3
0x0000000082e90026 cc               INT 3
0x0000000082e90027 cc               INT 3
0x0000000082e90028 cc               INT 3
0x0000000082e90029 cc               INT 3
0x0000000082e9002a cc               INT 3
0x0000000082e9002b cc               INT 3
0x0000000082e9002c cc               INT 3
0x0000000082e9002d cc               INT 3
0x0000000082e9002e cc               INT 3
0x0000000082e9002f cc               INT 3
0x0000000082e90030 cc               INT 3
0x0000000082e90031 cc               INT 3
0x0000000082e90032 cc               INT 3
0x0000000082e90033 cc               INT 3
0x0000000082e90034 cc               INT 3
0x0000000082e90035 cc               INT 3
0x0000000082e90036 cc               INT 3
0x0000000082e90037 cc               INT 3
0x0000000082e90038 cc               INT 3
0x0000000082e90039 cc               INT 3
0x0000000082e9003a cc               INT 3
0x0000000082e9003b cc               INT 3
0x0000000082e9003c cc               INT 3
0x0000000082e9003d cc               INT 3
0x0000000082e9003e cc               INT 3
0x0000000082e9003f cc               INT 3

Process: MsMpEng.exe Pid: 2456 Address: 0x18e82e70000
Vad Tag: VadS Protection: PAGE_EXECUTE_READWRITE
Flags: PrivateMemory: 1, Protection: 6

0x0000018e82e70000  55 48 8d 2c 24 48 83 ec 20 48 8b 01 48 8b 49 08   UH.,$H...H..H.I.
0x0000018e82e70010  ff d0 48 8d 65 00 5d c3 cc cc cc cc cc cc cc cc   ..H.e.].........
0x0000018e82e70020  cc cc cc cc cc cc cc cc cc cc cc cc cc cc cc cc   ................
0x0000018e82e70030  cc cc cc cc cc cc cc cc cc cc cc cc cc cc cc cc   ................

0x0000000082e70000 55               PUSH EBP
0x0000000082e70001 48               DEC EAX
0x0000000082e70002 8d2c24           LEA EBP, [ESP]
0x0000000082e70005 48               DEC EAX
0x0000000082e70006 83ec20           SUB ESP, 0x20
0x0000000082e70009 48               DEC EAX
0x0000000082e7000a 8b01             MOV EAX, [ECX]
0x0000000082e7000c 48               DEC EAX
0x0000000082e7000d 8b4908           MOV ECX, [ECX+0x8]
0x0000000082e70010 ffd0             CALL EAX
0x0000000082e70012 48               DEC EAX
0x0000000082e70013 8d6500           LEA ESP, [EBP+0x0]
0x0000000082e70016 5d               POP EBP
0x0000000082e70017 c3               RET
0x0000000082e70018 cc               INT 3
0x0000000082e70019 cc               INT 3
0x0000000082e7001a cc               INT 3
0x0000000082e7001b cc               INT 3
0x0000000082e7001c cc               INT 3
0x0000000082e7001d cc               INT 3
0x0000000082e7001e cc               INT 3
0x0000000082e7001f cc               INT 3
0x0000000082e70020 cc               INT 3
0x0000000082e70021 cc               INT 3
0x0000000082e70022 cc               INT 3
0x0000000082e70023 cc               INT 3
0x0000000082e70024 cc               INT 3
0x0000000082e70025 cc               INT 3
0x0000000082e70026 cc               INT 3
0x0000000082e70027 cc               INT 3
0x0000000082e70028 cc               INT 3
0x0000000082e70029 cc               INT 3
0x0000000082e7002a cc               INT 3
0x0000000082e7002b cc               INT 3
0x0000000082e7002c cc               INT 3
0x0000000082e7002d cc               INT 3
0x0000000082e7002e cc               INT 3
0x0000000082e7002f cc               INT 3
0x0000000082e70030 cc               INT 3
0x0000000082e70031 cc               INT 3
0x0000000082e70032 cc               INT 3
0x0000000082e70033 cc               INT 3
0x0000000082e70034 cc               INT 3
0x0000000082e70035 cc               INT 3
0x0000000082e70036 cc               INT 3
0x0000000082e70037 cc               INT 3
0x0000000082e70038 cc               INT 3
0x0000000082e70039 cc               INT 3
0x0000000082e7003a cc               INT 3
0x0000000082e7003b cc               INT 3
0x0000000082e7003c cc               INT 3
0x0000000082e7003d cc               INT 3
0x0000000082e7003e cc               INT 3
0x0000000082e7003f cc               INT 3

Process: MsMpEng.exe Pid: 2456 Address: 0x18e82eb0000
Vad Tag: VadS Protection: PAGE_EXECUTE_READWRITE
Flags: PrivateMemory: 1, Protection: 6

0x0000018e82eb0000  55 48 8d 2c 24 48 83 ec 20 48 8b 01 48 8b 49 08   UH.,$H...H..H.I.
0x0000018e82eb0010  ff d0 48 8d 65 00 5d c3 cc cc cc cc cc cc cc cc   ..H.e.].........
0x0000018e82eb0020  cc cc cc cc cc cc cc cc cc cc cc cc cc cc cc cc   ................
0x0000018e82eb0030  cc cc cc cc cc cc cc cc cc cc cc cc cc cc cc cc   ................

0x0000000082eb0000 55               PUSH EBP
0x0000000082eb0001 48               DEC EAX
0x0000000082eb0002 8d2c24           LEA EBP, [ESP]
0x0000000082eb0005 48               DEC EAX
0x0000000082eb0006 83ec20           SUB ESP, 0x20
0x0000000082eb0009 48               DEC EAX
0x0000000082eb000a 8b01             MOV EAX, [ECX]
0x0000000082eb000c 48               DEC EAX
0x0000000082eb000d 8b4908           MOV ECX, [ECX+0x8]
0x0000000082eb0010 ffd0             CALL EAX
0x0000000082eb0012 48               DEC EAX
0x0000000082eb0013 8d6500           LEA ESP, [EBP+0x0]
0x0000000082eb0016 5d               POP EBP
0x0000000082eb0017 c3               RET
0x0000000082eb0018 cc               INT 3
0x0000000082eb0019 cc               INT 3
0x0000000082eb001a cc               INT 3
0x0000000082eb001b cc               INT 3
0x0000000082eb001c cc               INT 3
0x0000000082eb001d cc               INT 3
0x0000000082eb001e cc               INT 3
0x0000000082eb001f cc               INT 3
0x0000000082eb0020 cc               INT 3
0x0000000082eb0021 cc               INT 3
0x0000000082eb0022 cc               INT 3
0x0000000082eb0023 cc               INT 3
0x0000000082eb0024 cc               INT 3
0x0000000082eb0025 cc               INT 3
0x0000000082eb0026 cc               INT 3
0x0000000082eb0027 cc               INT 3
0x0000000082eb0028 cc               INT 3
0x0000000082eb0029 cc               INT 3
0x0000000082eb002a cc               INT 3
0x0000000082eb002b cc               INT 3
0x0000000082eb002c cc               INT 3
0x0000000082eb002d cc               INT 3
0x0000000082eb002e cc               INT 3
0x0000000082eb002f cc               INT 3
0x0000000082eb0030 cc               INT 3
0x0000000082eb0031 cc               INT 3
0x0000000082eb0032 cc               INT 3
0x0000000082eb0033 cc               INT 3
0x0000000082eb0034 cc               INT 3
0x0000000082eb0035 cc               INT 3
0x0000000082eb0036 cc               INT 3
0x0000000082eb0037 cc               INT 3
0x0000000082eb0038 cc               INT 3
0x0000000082eb0039 cc               INT 3
0x0000000082eb003a cc               INT 3
0x0000000082eb003b cc               INT 3
0x0000000082eb003c cc               INT 3
0x0000000082eb003d cc               INT 3
0x0000000082eb003e cc               INT 3
0x0000000082eb003f cc               INT 3

Process: MsMpEng.exe Pid: 2456 Address: 0x18e87c70000
Vad Tag: VadS Protection: PAGE_EXECUTE_READWRITE
Flags: PrivateMemory: 1, Protection: 6

0x0000018e87c70000  55 48 8d 2c 24 48 83 ec 20 48 8b 01 48 8b 49 08   UH.,$H...H..H.I.
0x0000018e87c70010  ff d0 48 8d 65 00 5d c3 cc cc cc cc cc cc cc cc   ..H.e.].........
0x0000018e87c70020  cc cc cc cc cc cc cc cc cc cc cc cc cc cc cc cc   ................
0x0000018e87c70030  cc cc cc cc cc cc cc cc cc cc cc cc cc cc cc cc   ................

0x0000000087c70000 55               PUSH EBP
0x0000000087c70001 48               DEC EAX
0x0000000087c70002 8d2c24           LEA EBP, [ESP]
0x0000000087c70005 48               DEC EAX
0x0000000087c70006 83ec20           SUB ESP, 0x20
0x0000000087c70009 48               DEC EAX
0x0000000087c7000a 8b01             MOV EAX, [ECX]
0x0000000087c7000c 48               DEC EAX
0x0000000087c7000d 8b4908           MOV ECX, [ECX+0x8]
0x0000000087c70010 ffd0             CALL EAX
0x0000000087c70012 48               DEC EAX
0x0000000087c70013 8d6500           LEA ESP, [EBP+0x0]
0x0000000087c70016 5d               POP EBP
0x0000000087c70017 c3               RET
0x0000000087c70018 cc               INT 3
0x0000000087c70019 cc               INT 3
0x0000000087c7001a cc               INT 3
0x0000000087c7001b cc               INT 3
0x0000000087c7001c cc               INT 3
0x0000000087c7001d cc               INT 3
0x0000000087c7001e cc               INT 3
0x0000000087c7001f cc               INT 3
0x0000000087c70020 cc               INT 3
0x0000000087c70021 cc               INT 3
0x0000000087c70022 cc               INT 3
0x0000000087c70023 cc               INT 3
0x0000000087c70024 cc               INT 3
0x0000000087c70025 cc               INT 3
0x0000000087c70026 cc               INT 3
0x0000000087c70027 cc               INT 3
0x0000000087c70028 cc               INT 3
0x0000000087c70029 cc               INT 3
0x0000000087c7002a cc               INT 3
0x0000000087c7002b cc               INT 3
0x0000000087c7002c cc               INT 3
0x0000000087c7002d cc               INT 3
0x0000000087c7002e cc               INT 3
0x0000000087c7002f cc               INT 3
0x0000000087c70030 cc               INT 3
0x0000000087c70031 cc               INT 3
0x0000000087c70032 cc               INT 3
0x0000000087c70033 cc               INT 3
0x0000000087c70034 cc               INT 3
0x0000000087c70035 cc               INT 3
0x0000000087c70036 cc               INT 3
0x0000000087c70037 cc               INT 3
0x0000000087c70038 cc               INT 3
0x0000000087c70039 cc               INT 3
0x0000000087c7003a cc               INT 3
0x0000000087c7003b cc               INT 3
0x0000000087c7003c cc               INT 3
0x0000000087c7003d cc               INT 3
0x0000000087c7003e cc               INT 3
0x0000000087c7003f cc               INT 3

Process: MsMpEng.exe Pid: 2456 Address: 0x18e87cb0000
Vad Tag: VadS Protection: PAGE_EXECUTE_READWRITE
Flags: PrivateMemory: 1, Protection: 6

0x0000018e87cb0000  55 48 8d 2c 24 48 83 ec 20 48 8b 01 48 8b 49 08   UH.,$H...H..H.I.
0x0000018e87cb0010  ff d0 48 8d 65 00 5d c3 cc cc cc cc cc cc cc cc   ..H.e.].........
0x0000018e87cb0020  cc cc cc cc cc cc cc cc cc cc cc cc cc cc cc cc   ................
0x0000018e87cb0030  cc cc cc cc cc cc cc cc cc cc cc cc cc cc cc cc   ................

0x0000000087cb0000 55               PUSH EBP
0x0000000087cb0001 48               DEC EAX
0x0000000087cb0002 8d2c24           LEA EBP, [ESP]
0x0000000087cb0005 48               DEC EAX
0x0000000087cb0006 83ec20           SUB ESP, 0x20
0x0000000087cb0009 48               DEC EAX
0x0000000087cb000a 8b01             MOV EAX, [ECX]
0x0000000087cb000c 48               DEC EAX
0x0000000087cb000d 8b4908           MOV ECX, [ECX+0x8]
0x0000000087cb0010 ffd0             CALL EAX
0x0000000087cb0012 48               DEC EAX
0x0000000087cb0013 8d6500           LEA ESP, [EBP+0x0]
0x0000000087cb0016 5d               POP EBP
0x0000000087cb0017 c3               RET
0x0000000087cb0018 cc               INT 3
0x0000000087cb0019 cc               INT 3
0x0000000087cb001a cc               INT 3
0x0000000087cb001b cc               INT 3
0x0000000087cb001c cc               INT 3
0x0000000087cb001d cc               INT 3
0x0000000087cb001e cc               INT 3
0x0000000087cb001f cc               INT 3
0x0000000087cb0020 cc               INT 3
0x0000000087cb0021 cc               INT 3
0x0000000087cb0022 cc               INT 3
0x0000000087cb0023 cc               INT 3
0x0000000087cb0024 cc               INT 3
0x0000000087cb0025 cc               INT 3
0x0000000087cb0026 cc               INT 3
0x0000000087cb0027 cc               INT 3
0x0000000087cb0028 cc               INT 3
0x0000000087cb0029 cc               INT 3
0x0000000087cb002a cc               INT 3
0x0000000087cb002b cc               INT 3
0x0000000087cb002c cc               INT 3
0x0000000087cb002d cc               INT 3
0x0000000087cb002e cc               INT 3
0x0000000087cb002f cc               INT 3
0x0000000087cb0030 cc               INT 3
0x0000000087cb0031 cc               INT 3
0x0000000087cb0032 cc               INT 3
0x0000000087cb0033 cc               INT 3
0x0000000087cb0034 cc               INT 3
0x0000000087cb0035 cc               INT 3
0x0000000087cb0036 cc               INT 3
0x0000000087cb0037 cc               INT 3
0x0000000087cb0038 cc               INT 3
0x0000000087cb0039 cc               INT 3
0x0000000087cb003a cc               INT 3
0x0000000087cb003b cc               INT 3
0x0000000087cb003c cc               INT 3
0x0000000087cb003d cc               INT 3
0x0000000087cb003e cc               INT 3
0x0000000087cb003f cc               INT 3

Process: MsMpEng.exe Pid: 2456 Address: 0x18e88230000
Vad Tag: VadS Protection: PAGE_EXECUTE_READWRITE
Flags: PrivateMemory: 1, Protection: 6

0x0000018e88230000  cc cc cc cc cc cc cc cc cc cc cc cc cc cc cc cc   ................
0x0000018e88230010  cc cc cc cc cc cc cc cc cc cc cc cc cc cc cc cc   ................
0x0000018e88230020  cc cc cc cc cc cc cc cc cc cc cc cc cc cc cc cc   ................
0x0000018e88230030  cc 04 00 26 00 00 00 01 02 48 8b 45 20 48 89 c2   ...&.....H.E.H..

0x0000000088230000 cc               INT 3
0x0000000088230001 cc               INT 3
0x0000000088230002 cc               INT 3
0x0000000088230003 cc               INT 3
0x0000000088230004 cc               INT 3
0x0000000088230005 cc               INT 3
0x0000000088230006 cc               INT 3
0x0000000088230007 cc               INT 3
0x0000000088230008 cc               INT 3
0x0000000088230009 cc               INT 3
0x000000008823000a cc               INT 3
0x000000008823000b cc               INT 3
0x000000008823000c cc               INT 3
0x000000008823000d cc               INT 3
0x000000008823000e cc               INT 3
0x000000008823000f cc               INT 3
0x0000000088230010 cc               INT 3
0x0000000088230011 cc               INT 3
0x0000000088230012 cc               INT 3
0x0000000088230013 cc               INT 3
0x0000000088230014 cc               INT 3
0x0000000088230015 cc               INT 3
0x0000000088230016 cc               INT 3
0x0000000088230017 cc               INT 3
0x0000000088230018 cc               INT 3
0x0000000088230019 cc               INT 3
0x000000008823001a cc               INT 3
0x000000008823001b cc               INT 3
0x000000008823001c cc               INT 3
0x000000008823001d cc               INT 3
0x000000008823001e cc               INT 3
0x000000008823001f cc               INT 3
0x0000000088230020 cc               INT 3
0x0000000088230021 cc               INT 3
0x0000000088230022 cc               INT 3
0x0000000088230023 cc               INT 3
0x0000000088230024 cc               INT 3
0x0000000088230025 cc               INT 3
0x0000000088230026 cc               INT 3
0x0000000088230027 cc               INT 3
0x0000000088230028 cc               INT 3
0x0000000088230029 cc               INT 3
0x000000008823002a cc               INT 3
0x000000008823002b cc               INT 3
0x000000008823002c cc               INT 3
0x000000008823002d cc               INT 3
0x000000008823002e cc               INT 3
0x000000008823002f cc               INT 3
0x0000000088230030 cc               INT 3
0x0000000088230031 0400             ADD AL, 0x0
0x0000000088230033 260000           ADD [ES:EAX], AL
0x0000000088230036 0001             ADD [ECX], AL
0x0000000088230038 02488b           ADD CL, [EAX-0x75]
0x000000008823003b 45               INC EBP
0x000000008823003c 204889           AND [EAX-0x77], CL
0x000000008823003f c2               DB 0xc2

Process: MsMpEng.exe Pid: 2456 Address: 0x18e899d0000
Vad Tag: VadS Protection: PAGE_EXECUTE_READWRITE
Flags: PrivateMemory: 1, Protection: 6

0x0000018e899d0000  56 57 53 55 41 54 41 55 41 56 41 57 48 83 ec 28   VWSUATAUAVAWH..(
0x0000018e899d0010  4c 8d 3c 24 48 8b e9 48 8d b1 98 38 00 00 ff e2   L.<$H..H...8....
0x0000018e899d0020  49 8d 67 28 41 5f 41 5e 41 5d 41 5c 5d 5b 5f 5e   I.g(A_A^A]A\][_^
0x0000018e899d0030  c3 00 00 40 00 80 00 00 00 48 89 e9 48 b8 60 a0   ...@.....H..H.`.

0x00000000899d0000 56               PUSH ESI
0x00000000899d0001 57               PUSH EDI
0x00000000899d0002 53               PUSH EBX
0x00000000899d0003 55               PUSH EBP
0x00000000899d0004 41               INC ECX
0x00000000899d0005 54               PUSH ESP
0x00000000899d0006 41               INC ECX
0x00000000899d0007 55               PUSH EBP
0x00000000899d0008 41               INC ECX
0x00000000899d0009 56               PUSH ESI
0x00000000899d000a 41               INC ECX
0x00000000899d000b 57               PUSH EDI
0x00000000899d000c 48               DEC EAX
0x00000000899d000d 83ec28           SUB ESP, 0x28
0x00000000899d0010 4c               DEC ESP
0x00000000899d0011 8d3c24           LEA EDI, [ESP]
0x00000000899d0014 48               DEC EAX
0x00000000899d0015 8be9             MOV EBP, ECX
0x00000000899d0017 48               DEC EAX
0x00000000899d0018 8db198380000     LEA ESI, [ECX+0x3898]
0x00000000899d001e ffe2             JMP EDX
0x00000000899d0020 49               DEC ECX
0x00000000899d0021 8d6728           LEA ESP, [EDI+0x28]
0x00000000899d0024 41               INC ECX
0x00000000899d0025 5f               POP EDI
0x00000000899d0026 41               INC ECX
0x00000000899d0027 5e               POP ESI
0x00000000899d0028 41               INC ECX
0x00000000899d0029 5d               POP EBP
0x00000000899d002a 41               INC ECX
0x00000000899d002b 5c               POP ESP
0x00000000899d002c 5d               POP EBP
0x00000000899d002d 5b               POP EBX
0x00000000899d002e 5f               POP EDI
0x00000000899d002f 5e               POP ESI
0x00000000899d0030 c3               RET
0x00000000899d0031 0000             ADD [EAX], AL
0x00000000899d0033 40               INC EAX
0x00000000899d0034 008000000048     ADD [EAX+0x48000000], AL
0x00000000899d003a 89e9             MOV ECX, EBP
0x00000000899d003c 48               DEC EAX
0x00000000899d003d b8               DB 0xb8
0x00000000899d003e 60               PUSHA
0x00000000899d003f a0               DB 0xa0

Process: MsMpEng.exe Pid: 2456 Address: 0x18e8a230000
Vad Tag: VadS Protection: PAGE_EXECUTE_READWRITE
Flags: PrivateMemory: 1, Protection: 6

0x0000018e8a230000  56 57 53 55 41 54 41 55 41 56 41 57 48 83 ec 28   VWSUATAUAVAWH..(
0x0000018e8a230010  4c 8d 3c 24 48 8b e9 48 8d b1 98 38 00 00 ff e2   L.<$H..H...8....
0x0000018e8a230020  49 8d 67 28 41 5f 41 5e 41 5d 41 5c 5d 5b 5f 5e   I.g(A_A^A]A\][_^
0x0000018e8a230030  c3 00 00 40 00 80 00 00 00 48 89 e9 48 b8 60 a0   ...@.....H..H.`.

0x000000008a230000 56               PUSH ESI
0x000000008a230001 57               PUSH EDI
0x000000008a230002 53               PUSH EBX
0x000000008a230003 55               PUSH EBP
0x000000008a230004 41               INC ECX
0x000000008a230005 54               PUSH ESP
0x000000008a230006 41               INC ECX
0x000000008a230007 55               PUSH EBP
0x000000008a230008 41               INC ECX
0x000000008a230009 56               PUSH ESI
0x000000008a23000a 41               INC ECX
0x000000008a23000b 57               PUSH EDI
0x000000008a23000c 48               DEC EAX
0x000000008a23000d 83ec28           SUB ESP, 0x28
0x000000008a230010 4c               DEC ESP
0x000000008a230011 8d3c24           LEA EDI, [ESP]
0x000000008a230014 48               DEC EAX
0x000000008a230015 8be9             MOV EBP, ECX
0x000000008a230017 48               DEC EAX
0x000000008a230018 8db198380000     LEA ESI, [ECX+0x3898]
0x000000008a23001e ffe2             JMP EDX
0x000000008a230020 49               DEC ECX
0x000000008a230021 8d6728           LEA ESP, [EDI+0x28]
0x000000008a230024 41               INC ECX
0x000000008a230025 5f               POP EDI
0x000000008a230026 41               INC ECX
0x000000008a230027 5e               POP ESI
0x000000008a230028 41               INC ECX
0x000000008a230029 5d               POP EBP
0x000000008a23002a 41               INC ECX
0x000000008a23002b 5c               POP ESP
0x000000008a23002c 5d               POP EBP
0x000000008a23002d 5b               POP EBX
0x000000008a23002e 5f               POP EDI
0x000000008a23002f 5e               POP ESI
0x000000008a230030 c3               RET
0x000000008a230031 0000             ADD [EAX], AL
0x000000008a230033 40               INC EAX
0x000000008a230034 008000000048     ADD [EAX+0x48000000], AL
0x000000008a23003a 89e9             MOV ECX, EBP
0x000000008a23003c 48               DEC EAX
0x000000008a23003d b8               DB 0xb8
0x000000008a23003e 60               PUSHA
0x000000008a23003f a0               DB 0xa0

Process: MsMpEng.exe Pid: 2456 Address: 0x18e89f50000
Vad Tag: VadS Protection: PAGE_EXECUTE_READWRITE
Flags: PrivateMemory: 1, Protection: 6

0x0000018e89f50000  56 57 53 55 41 54 41 55 41 56 41 57 48 83 ec 28   VWSUATAUAVAWH..(
0x0000018e89f50010  4c 8d 3c 24 48 8b e9 48 8d b1 98 38 00 00 ff e2   L.<$H..H...8....
0x0000018e89f50020  49 8d 67 28 41 5f 41 5e 41 5d 41 5c 5d 5b 5f 5e   I.g(A_A^A]A\][_^
0x0000018e89f50030  c3 00 00 40 00 80 00 00 00 48 89 e9 48 b8 60 a0   ...@.....H..H.`.

0x0000000089f50000 56               PUSH ESI
0x0000000089f50001 57               PUSH EDI
0x0000000089f50002 53               PUSH EBX
0x0000000089f50003 55               PUSH EBP
0x0000000089f50004 41               INC ECX
0x0000000089f50005 54               PUSH ESP
0x0000000089f50006 41               INC ECX
0x0000000089f50007 55               PUSH EBP
0x0000000089f50008 41               INC ECX
0x0000000089f50009 56               PUSH ESI
0x0000000089f5000a 41               INC ECX
0x0000000089f5000b 57               PUSH EDI
0x0000000089f5000c 48               DEC EAX
0x0000000089f5000d 83ec28           SUB ESP, 0x28
0x0000000089f50010 4c               DEC ESP
0x0000000089f50011 8d3c24           LEA EDI, [ESP]
0x0000000089f50014 48               DEC EAX
0x0000000089f50015 8be9             MOV EBP, ECX
0x0000000089f50017 48               DEC EAX
0x0000000089f50018 8db198380000     LEA ESI, [ECX+0x3898]
0x0000000089f5001e ffe2             JMP EDX
0x0000000089f50020 49               DEC ECX
0x0000000089f50021 8d6728           LEA ESP, [EDI+0x28]
0x0000000089f50024 41               INC ECX
0x0000000089f50025 5f               POP EDI
0x0000000089f50026 41               INC ECX
0x0000000089f50027 5e               POP ESI
0x0000000089f50028 41               INC ECX
0x0000000089f50029 5d               POP EBP
0x0000000089f5002a 41               INC ECX
0x0000000089f5002b 5c               POP ESP
0x0000000089f5002c 5d               POP EBP
0x0000000089f5002d 5b               POP EBX
0x0000000089f5002e 5f               POP EDI
0x0000000089f5002f 5e               POP ESI
0x0000000089f50030 c3               RET
0x0000000089f50031 0000             ADD [EAX], AL
0x0000000089f50033 40               INC EAX
0x0000000089f50034 008000000048     ADD [EAX+0x48000000], AL
0x0000000089f5003a 89e9             MOV ECX, EBP
0x0000000089f5003c 48               DEC EAX
0x0000000089f5003d b8               DB 0xb8
0x0000000089f5003e 60               PUSHA
0x0000000089f5003f a0               DB 0xa0

Process: MsMpEng.exe Pid: 2456 Address: 0x18e8a870000
Vad Tag: VadS Protection: PAGE_EXECUTE_READWRITE
Flags: PrivateMemory: 1, Protection: 6

0x0000018e8a870000  56 57 53 55 41 54 41 55 41 56 41 57 48 83 ec 28   VWSUATAUAVAWH..(
0x0000018e8a870010  4c 8d 3c 24 48 8b e9 48 8d b1 98 38 00 00 ff e2   L.<$H..H...8....
0x0000018e8a870020  49 8d 67 28 41 5f 41 5e 41 5d 41 5c 5d 5b 5f 5e   I.g(A_A^A]A\][_^
0x0000018e8a870030  c3 00 00 40 00 80 00 00 00 48 89 e9 48 b8 60 a0   ...@.....H..H.`.

0x000000008a870000 56               PUSH ESI
0x000000008a870001 57               PUSH EDI
0x000000008a870002 53               PUSH EBX
0x000000008a870003 55               PUSH EBP
0x000000008a870004 41               INC ECX
0x000000008a870005 54               PUSH ESP
0x000000008a870006 41               INC ECX
0x000000008a870007 55               PUSH EBP
0x000000008a870008 41               INC ECX
0x000000008a870009 56               PUSH ESI
0x000000008a87000a 41               INC ECX
0x000000008a87000b 57               PUSH EDI
0x000000008a87000c 48               DEC EAX
0x000000008a87000d 83ec28           SUB ESP, 0x28
0x000000008a870010 4c               DEC ESP
0x000000008a870011 8d3c24           LEA EDI, [ESP]
0x000000008a870014 48               DEC EAX
0x000000008a870015 8be9             MOV EBP, ECX
0x000000008a870017 48               DEC EAX
0x000000008a870018 8db198380000     LEA ESI, [ECX+0x3898]
0x000000008a87001e ffe2             JMP EDX
0x000000008a870020 49               DEC ECX
0x000000008a870021 8d6728           LEA ESP, [EDI+0x28]
0x000000008a870024 41               INC ECX
0x000000008a870025 5f               POP EDI
0x000000008a870026 41               INC ECX
0x000000008a870027 5e               POP ESI
0x000000008a870028 41               INC ECX
0x000000008a870029 5d               POP EBP
0x000000008a87002a 41               INC ECX
0x000000008a87002b 5c               POP ESP
0x000000008a87002c 5d               POP EBP
0x000000008a87002d 5b               POP EBX
0x000000008a87002e 5f               POP EDI
0x000000008a87002f 5e               POP ESI
0x000000008a870030 c3               RET
0x000000008a870031 0000             ADD [EAX], AL
0x000000008a870033 40               INC EAX
0x000000008a870034 008000000048     ADD [EAX+0x48000000], AL
0x000000008a87003a 89e9             MOV ECX, EBP
0x000000008a87003c 48               DEC EAX
0x000000008a87003d b8               DB 0xb8
0x000000008a87003e 60               PUSHA
0x000000008a87003f a0               DB 0xa0

Process: Wireshark.exe Pid: 4480 Address: 0x1d5de870000
Vad Tag: VadS Protection: PAGE_EXECUTE_READWRITE
Flags: PrivateMemory: 1, Protection: 6

0x000001d5de870000  00 00 00 00 00 00 00 00 00 00 00 00 00 00 00 00   ................
0x000001d5de870010  00 00 00 00 00 00 00 00 00 00 1f e0 d5 01 00 00   ................
0x000001d5de870020  b0 dc 00 00 00 00 00 00 00 00 00 00 00 00 00 00   ................
0x000001d5de870030  00 00 00 00 00 00 00 00 00 00 00 00 00 00 00 00   ................

0x00000000de870000 0000             ADD [EAX], AL
0x00000000de870002 0000             ADD [EAX], AL
0x00000000de870004 0000             ADD [EAX], AL
0x00000000de870006 0000             ADD [EAX], AL
0x00000000de870008 0000             ADD [EAX], AL
0x00000000de87000a 0000             ADD [EAX], AL
0x00000000de87000c 0000             ADD [EAX], AL
0x00000000de87000e 0000             ADD [EAX], AL
0x00000000de870010 0000             ADD [EAX], AL
0x00000000de870012 0000             ADD [EAX], AL
0x00000000de870014 0000             ADD [EAX], AL
0x00000000de870016 0000             ADD [EAX], AL
0x00000000de870018 0000             ADD [EAX], AL
0x00000000de87001a 1f               POP DS
0x00000000de87001b e0d5             LOOPNZ 0xde86fff2
0x00000000de87001d 0100             ADD [EAX], EAX
0x00000000de87001f 00b0dc000000     ADD [EAX+0xdc], DH
0x00000000de870025 0000             ADD [EAX], AL
0x00000000de870027 0000             ADD [EAX], AL
0x00000000de870029 0000             ADD [EAX], AL
0x00000000de87002b 0000             ADD [EAX], AL
0x00000000de87002d 0000             ADD [EAX], AL
0x00000000de87002f 0000             ADD [EAX], AL
0x00000000de870031 0000             ADD [EAX], AL
0x00000000de870033 0000             ADD [EAX], AL
0x00000000de870035 0000             ADD [EAX], AL
0x00000000de870037 0000             ADD [EAX], AL
0x00000000de870039 0000             ADD [EAX], AL
0x00000000de87003b 0000             ADD [EAX], AL
0x00000000de87003d 0000             ADD [EAX], AL
0x00000000de87003f 00               DB 0x0

Process: Wireshark.exe Pid: 4480 Address: 0x1d5e01f0000
Vad Tag: VadS Protection: PAGE_EXECUTE_READWRITE
Flags: PrivateMemory: 1, Protection: 6

0x000001d5e01f0000  00 00 00 00 00 00 00 00 00 00 00 00 00 00 00 00   ................
0x000001d5e01f0010  00 00 87 de d5 01 00 00 00 00 00 00 00 00 00 00   ................
0x000001d5e01f0020  f0 ff 00 00 00 00 00 00 00 48 8b 43 10 48 83 e8   .........H.C.H..
0x000001d5e01f0030  02 48 89 44 24 68 49 89 de 48 89 d8 48 8b 50 08   .H.D$hI..H..H.P.

0x00000000e01f0000 0000             ADD [EAX], AL
0x00000000e01f0002 0000             ADD [EAX], AL
0x00000000e01f0004 0000             ADD [EAX], AL
0x00000000e01f0006 0000             ADD [EAX], AL
0x00000000e01f0008 0000             ADD [EAX], AL
0x00000000e01f000a 0000             ADD [EAX], AL
0x00000000e01f000c 0000             ADD [EAX], AL
0x00000000e01f000e 0000             ADD [EAX], AL
0x00000000e01f0010 0000             ADD [EAX], AL
0x00000000e01f0012 87de             XCHG ESI, EBX
0x00000000e01f0014 d501             AAD 0x1
0x00000000e01f0016 0000             ADD [EAX], AL
0x00000000e01f0018 0000             ADD [EAX], AL
0x00000000e01f001a 0000             ADD [EAX], AL
0x00000000e01f001c 0000             ADD [EAX], AL
0x00000000e01f001e 0000             ADD [EAX], AL
0x00000000e01f0020 f0ff00           LOCK INC DWORD [EAX]
0x00000000e01f0023 0000             ADD [EAX], AL
0x00000000e01f0025 0000             ADD [EAX], AL
0x00000000e01f0027 0000             ADD [EAX], AL
0x00000000e01f0029 48               DEC EAX
0x00000000e01f002a 8b4310           MOV EAX, [EBX+0x10]
0x00000000e01f002d 48               DEC EAX
0x00000000e01f002e 83e802           SUB EAX, 0x2
0x00000000e01f0031 48               DEC EAX
0x00000000e01f0032 89442468         MOV [ESP+0x68], EAX
0x00000000e01f0036 49               DEC ECX
0x00000000e01f0037 89de             MOV ESI, EBX
0x00000000e01f0039 48               DEC EAX
0x00000000e01f003a 89d8             MOV EAX, EBX
0x00000000e01f003c 48               DEC EAX
0x00000000e01f003d 8b5008           MOV EDX, [EAX+0x8]

